(lp0
(ieffectgroup
EffectGroup
p1
(dp2
S'm_effects'
p3
(dp4
I0
(lp5
I1
a(lp6
cwx._gdi
Colour
p7
(I255
I0
I0
I255
tp8
Rp9
aasI1
(lp10
I1
a(lp11
g7
(I0
I255
I0
I255
tp12
Rp13
aasI2
(lp14
I1
a(lp15
g7
(I0
I0
I255
I255
tp16
Rp17
aasI3
(lp18
I1
a(lp19
g7
(I125
I125
I125
I255
tp20
Rp21
aasI4
(lp22
I3
a(lp23
g7
(I125
I125
I125
I255
tp24
Rp25
aV1
p26
aV2
p27
aasI5
(lp28
I4
a(lp29
g7
(I0
I0
I0
I255
tp30
Rp31
ag7
(I0
I0
I0
I255
tp32
Rp33
aV1
p34
aasI6
(lp35
I5
a(lp36
g7
(I0
I0
I0
I255
tp37
Rp38
ag7
(I0
I0
I0
I255
tp39
Rp40
aV1
p41
aV1
p42
aV1
p43
aasI7
(lp44
I6
a(lp45
g7
(I0
I0
I0
I255
tp46
Rp47
ag7
(I0
I0
I0
I255
tp48
Rp49
aV1
p50
aV1
p51
aV1
p52
aasI8
(lp53
I7
a(lp54
g7
(I0
I0
I0
I255
tp55
Rp56
ag7
(I0
I0
I0
I255
tp57
Rp58
ag7
(I0
I0
I0
I255
tp59
Rp60
aV1
p61
aV1
p62
aV1
p63
aasI9
(lp64
I8
a(lp65
I2
ag7
(I255
I0
I0
I255
tp66
Rp67
aV1
p68
ag7
(I0
I0
I0
I255
tp69
Rp70
aV2
p71
aasI10
(lp72
I9
a(lp73
I3
ag7
(I255
I0
I0
I255
tp74
Rp75
aV1
p76
ag7
(I0
I255
I0
I255
tp77
Rp78
aV1
p79
ag7
(I0
I0
I0
I255
tp80
Rp81
aV2
p82
aasI11
(lp83
I10
a(lp84
I4
ag7
(I255
I0
I0
I255
tp85
Rp86
aV1
p87
ag7
(I0
I0
I0
I255
tp88
Rp89
aV2
p90
ag7
(I0
I255
I0
I255
tp91
Rp92
aV1
p93
ag7
(I0
I0
I0
I255
tp94
Rp95
aV2
p96
aassS'm_time'
p97
V01:00 000ms
p98
sba(ieffectgroup
EffectGroup
p99
(dp100
g3
(dp101
I0
(lp102
I-1
a(lp103
asI1
(lp104
I12
a(lp105
I8
ag7
(I255
I0
I0
I255
tp106
Rp107
aV1
p108
ag7
(I255
I255
I0
I255
tp109
Rp110
aV1
p111
ag7
(I0
I255
I0
I255
tp112
Rp113
aV1
p114
ag7
(I0
I255
I255
I255
tp115
Rp116
aV1
p117
ag7
(I0
I0
I255
I255
tp118
Rp119
aV1
p120
ag7
(I255
I0
I255
I255
tp121
Rp122
aV1
p123
ag7
(I0
I0
I0
I255
tp124
Rp125
aV38
p126
ag7
(I0
I0
I0
I255
tp127
Rp128
aV1
p129
aasI2
(lp130
I12
a(lp131
I8
ag7
(I255
I0
I0
I255
tp132
Rp133
aV2
p134
ag7
(I255
I255
I0
I255
tp135
Rp136
aV1
p137
ag7
(I0
I255
I0
I255
tp138
Rp139
aV1
p140
ag7
(I0
I255
I255
I255
tp141
Rp142
aV1
p143
ag7
(I0
I0
I255
I255
tp144
Rp145
aV1
p146
ag7
(I255
I0
I255
I255
tp147
Rp148
aV1
p149
ag7
(I0
I0
I0
I255
tp150
Rp151
aV38
p152
ag7
(I0
I0
I0
I255
tp153
Rp154
aV1
p155
aasI3
(lp156
I12
a(lp157
I8
ag7
(I255
I0
I0
I255
tp158
Rp159
aV2
p160
ag7
(I255
I255
I0
I255
tp161
Rp162
aV1
p163
ag7
(I0
I255
I0
I255
tp164
Rp165
aV1
p166
ag7
(I0
I255
I255
I255
tp167
Rp168
aV1
p169
ag7
(I0
I0
I255
I255
tp170
Rp171
aV1
p172
ag7
(I255
I0
I255
I255
tp173
Rp174
aV1
p175
ag7
(I0
I0
I0
I255
tp176
Rp177
aV38
p178
ag7
(I0
I0
I0
I255
tp179
Rp180
aV1
p181
aasI4
(lp182
I-1
aNasI5
(lp183
I-1
a(lp184
asI6
(lp185
I-1
a(lp186
asI7
(lp187
I-1
a(lp188
asI8
(lp189
I1
a(lp190
g7
(I255
I255
I255
I255
tp191
Rp192
aasI9
(lp193
I12
a(lp194
I8
ag7
(I255
I0
I0
I255
tp195
Rp196
aV2
p197
ag7
(I255
I255
I0
I255
tp198
Rp199
aV1
p200
ag7
(I0
I255
I0
I255
tp201
Rp202
aV1
p203
ag7
(I0
I255
I255
I255
tp204
Rp205
aV1
p206
ag7
(I0
I0
I255
I255
tp207
Rp208
aV1
p209
ag7
(I255
I0
I255
I255
tp210
Rp211
aV1
p212
ag7
(I0
I0
I0
I255
tp213
Rp214
aV38
p215
ag7
(I0
I0
I0
I255
tp216
Rp217
aV1
p218
aasI10
(lp219
I12
a(lp220
I8
ag7
(I255
I0
I0
I255
tp221
Rp222
aV2
p223
ag7
(I255
I255
I0
I255
tp224
Rp225
aV1
p226
ag7
(I0
I255
I0
I255
tp227
Rp228
aV1
p229
ag7
(I0
I255
I255
I255
tp230
Rp231
aV1
p232
ag7
(I0
I0
I255
I255
tp233
Rp234
aV1
p235
ag7
(I255
I0
I255
I255
tp236
Rp237
aV1
p238
ag7
(I0
I0
I0
I255
tp239
Rp240
aV38
p241
ag7
(I0
I0
I0
I255
tp242
Rp243
aV1
p244
aasI11
(lp245
I12
a(lp246
I8
ag7
(I255
I0
I0
I255
tp247
Rp248
aV2
p249
ag7
(I255
I255
I0
I255
tp250
Rp251
aV1
p252
ag7
(I0
I255
I0
I255
tp253
Rp254
aV1
p255
ag7
(I0
I255
I255
I255
tp256
Rp257
aV1
p258
ag7
(I0
I0
I255
I255
tp259
Rp260
aV1
p261
ag7
(I255
I0
I255
I255
tp262
Rp263
aV1
p264
ag7
(I0
I0
I0
I255
tp265
Rp266
aV38
p267
ag7
(I0
I0
I0
I255
tp268
Rp269
aV1
p270
aassg97
V02:00 000ms
p271
sba(ieffectgroup
EffectGroup
p272
(dp273
g3
(dp274
I0
(lp275
I-1
aNasI1
(lp276
I-1
aNasI2
(lp277
I-1
aNasI3
(lp278
I-1
aNasI4
(lp279
I-1
aNasI5
(lp280
I3
a(lp281
g7
(I125
I0
I0
I255
tp282
Rp283
aV1
p284
aV30
p285
aasI6
(lp286
I3
a(lp287
g7
(I125
I0
I0
I255
tp288
Rp289
aV1
p290
aV30
p291
aasI7
(lp292
I-1
aNasI8
(lp293
I-1
aNasI9
(lp294
I-1
aNasI10
(lp295
I-1
aNasI11
(lp296
I-1
aNassg97
V03:02 000ms
p297
sba(ieffectgroup
EffectGroup
p298
(dp299
g3
(dp300
I0
(lp301
I-1
aNasI1
(lp302
I-1
aNasI2
(lp303
I-1
aNasI3
(lp304
I-1
aNasI4
(lp305
I-1
a(lp306
asI5
(lp307
I3
a(lp308
g7
(I125
I0
I0
I255
tp309
Rp310
aV1
p311
aV10
p312
aasI6
(lp313
I3
a(lp314
g7
(I125
I0
I0
I255
tp315
Rp316
aV1
p317
aV10
p318
aasI7
(lp319
I-1
aNasI8
(lp320
I-1
aNasI9
(lp321
I-1
aNasI10
(lp322
I-1
aNasI11
(lp323
I-1
aNassg97
V03:02 100ms
p324
sba(ieffectgroup
EffectGroup
p325
(dp326
g3
(dp327
I0
(lp328
I-1
aNasI1
(lp329
I-1
aNasI2
(lp330
I-1
aNasI3
(lp331
I-1
aNasI4
(lp332
I-1
aNasI5
(lp333
I3
a(lp334
g7
(I255
I0
I0
I255
tp335
Rp336
aV1
p337
aV5
p338
aasI6
(lp339
I3
a(lp340
g7
(I255
I0
I0
I255
tp341
Rp342
aV1
p343
aV5
p344
aasI7
(lp345
I-1
aNasI8
(lp346
I-1
aNasI9
(lp347
I-1
aNasI10
(lp348
I-1
aNasI11
(lp349
I-1
aNassg97
V03:02 110ms
p350
sba(ieffectgroup
EffectGroup
p351
(dp352
g3
(dp353
I0
(lp354
I-1
aNasI1
(lp355
I-1
aNasI2
(lp356
I-1
aNasI3
(lp357
I-1
aNasI4
(lp358
I-1
a(lp359
asI5
(lp360
I5
a(lp361
g7
(I255
I0
I0
I255
tp362
Rp363
ag7
(I255
I125
I0
I255
tp364
Rp365
aV3
p366
aV1
p367
aV10
p368
aasI6
(lp369
I5
a(lp370
g7
(I255
I0
I0
I255
tp371
Rp372
ag7
(I255
I125
I0
I255
tp373
Rp374
aV3
p375
aV1
p376
aV10
p377
aasI7
(lp378
I-1
aNasI8
(lp379
I-1
aNasI9
(lp380
I-1
aNasI10
(lp381
I-1
aNasI11
(lp382
I-1
aNassg97
V03:02 200ms
p383
sba(ieffectgroup
EffectGroup
p384
(dp385
g3
(dp386
I0
(lp387
I-1
aNasI1
(lp388
I-1
aNasI2
(lp389
I-1
aNasI3
(lp390
I-1
aNasI4
(lp391
I-1
aNasI5
(lp392
I-1
aNasI6
(lp393
I-1
aNasI7
(lp394
I-1
aNasI8
(lp395
I-1
aNasI9
(lp396
I-1
aNasI10
(lp397
I-1
aNasI11
(lp398
I-1
aNassg97
V03:02 300ms
p399
sba.