(lp0
(ieffectgroup
EffectGroup
p1
(dp2
S'm_effects'
p3
(dp4
I0
(lp5
I-1
a(lp6
asI1
(lp7
I-1
aNasI2
(lp8
I-1
aNasI3
(lp9
I-1
a(lp10
asI4
(lp11
I-1
a(lp12
asI5
(lp13
I1
a(lp14
cwx._gdi
Colour
p15
(I5
I0
I0
I255
tp16
Rp17
aasI6
(lp18
I1
a(lp19
g15
(I0
I5
I0
I255
tp20
Rp21
aasI7
(lp22
I-1
a(lp23
asI8
(lp24
I-1
a(lp25
asI9
(lp26
I-1
a(lp27
asI10
(lp28
I-1
a(lp29
asI11
(lp30
I-1
a(lp31
assS'm_time'
p32
V01:00 000ms
p33
sba(ieffectgroup
EffectGroup
p34
(dp35
g3
(dp36
I0
(lp37
I12
a(lp38
I8
ag15
(I255
I0
I0
I255
tp39
Rp40
aV2
p41
ag15
(I255
I255
I0
I255
tp42
Rp43
aV1
p44
ag15
(I0
I255
I0
I255
tp45
Rp46
aV1
p47
ag15
(I0
I255
I255
I255
tp48
Rp49
aV1
p50
ag15
(I0
I0
I255
I255
tp51
Rp52
aV1
p53
ag15
(I255
I0
I255
I255
tp54
Rp55
aV1
p56
ag15
(I0
I0
I0
I255
tp57
Rp58
aV38
p59
ag15
(I0
I0
I0
I255
tp60
Rp61
aV1
p62
aasI1
(lp63
I12
a(lp64
I8
ag15
(I255
I0
I0
I255
tp65
Rp66
aV1
p67
ag15
(I255
I255
I0
I255
tp68
Rp69
aV1
p70
ag15
(I0
I255
I0
I255
tp71
Rp72
aV1
p73
ag15
(I0
I255
I255
I255
tp74
Rp75
aV1
p76
ag15
(I0
I0
I255
I255
tp77
Rp78
aV1
p79
ag15
(I255
I0
I255
I255
tp80
Rp81
aV1
p82
ag15
(I0
I0
I0
I255
tp83
Rp84
aV38
p85
ag15
(I0
I0
I0
I255
tp86
Rp87
aV1
p88
aasI2
(lp89
I12
a(lp90
I8
ag15
(I255
I0
I0
I255
tp91
Rp92
aV2
p93
ag15
(I255
I255
I0
I255
tp94
Rp95
aV1
p96
ag15
(I0
I255
I0
I255
tp97
Rp98
aV1
p99
ag15
(I0
I255
I255
I255
tp100
Rp101
aV1
p102
ag15
(I0
I0
I255
I255
tp103
Rp104
aV1
p105
ag15
(I255
I0
I255
I255
tp106
Rp107
aV1
p108
ag15
(I0
I0
I0
I255
tp109
Rp110
aV38
p111
ag15
(I0
I0
I0
I255
tp112
Rp113
aV1
p114
aasI3
(lp115
I12
a(lp116
I8
ag15
(I255
I0
I0
I255
tp117
Rp118
aV2
p119
ag15
(I255
I255
I0
I255
tp120
Rp121
aV1
p122
ag15
(I0
I255
I0
I255
tp123
Rp124
aV1
p125
ag15
(I0
I255
I255
I255
tp126
Rp127
aV1
p128
ag15
(I0
I0
I255
I255
tp129
Rp130
aV1
p131
ag15
(I255
I0
I255
I255
tp132
Rp133
aV1
p134
ag15
(I0
I0
I0
I255
tp135
Rp136
aV38
p137
ag15
(I0
I0
I0
I255
tp138
Rp139
aV1
p140
aasI4
(lp141
I-1
aNasI5
(lp142
I-1
a(lp143
asI6
(lp144
I-1
a(lp145
asI7
(lp146
I-1
a(lp147
asI8
(lp148
I12
a(lp149
I8
ag15
(I255
I0
I0
I255
tp150
Rp151
aV1
p152
ag15
(I255
I255
I0
I255
tp153
Rp154
aV1
p155
ag15
(I0
I255
I0
I255
tp156
Rp157
aV1
p158
ag15
(I0
I255
I255
I255
tp159
Rp160
aV1
p161
ag15
(I0
I0
I255
I255
tp162
Rp163
aV1
p164
ag15
(I255
I0
I255
I255
tp165
Rp166
aV1
p167
ag15
(I0
I0
I0
I255
tp168
Rp169
aV38
p170
ag15
(I0
I0
I0
I255
tp171
Rp172
aV1
p173
aasI9
(lp174
I12
a(lp175
I8
ag15
(I255
I0
I0
I255
tp176
Rp177
aV2
p178
ag15
(I255
I255
I0
I255
tp179
Rp180
aV1
p181
ag15
(I0
I255
I0
I255
tp182
Rp183
aV1
p184
ag15
(I0
I255
I255
I255
tp185
Rp186
aV1
p187
ag15
(I0
I0
I255
I255
tp188
Rp189
aV1
p190
ag15
(I255
I0
I255
I255
tp191
Rp192
aV1
p193
ag15
(I0
I0
I0
I255
tp194
Rp195
aV38
p196
ag15
(I0
I0
I0
I255
tp197
Rp198
aV1
p199
aasI10
(lp200
I12
a(lp201
I8
ag15
(I255
I0
I0
I255
tp202
Rp203
aV2
p204
ag15
(I255
I255
I0
I255
tp205
Rp206
aV1
p207
ag15
(I0
I255
I0
I255
tp208
Rp209
aV1
p210
ag15
(I0
I255
I255
I255
tp211
Rp212
aV1
p213
ag15
(I0
I0
I255
I255
tp214
Rp215
aV1
p216
ag15
(I255
I0
I255
I255
tp217
Rp218
aV1
p219
ag15
(I0
I0
I0
I255
tp220
Rp221
aV38
p222
ag15
(I0
I0
I0
I255
tp223
Rp224
aV1
p225
aasI11
(lp226
I12
a(lp227
I8
ag15
(I255
I0
I0
I255
tp228
Rp229
aV2
p230
ag15
(I255
I255
I0
I255
tp231
Rp232
aV1
p233
ag15
(I0
I255
I0
I255
tp234
Rp235
aV1
p236
ag15
(I0
I255
I255
I255
tp237
Rp238
aV1
p239
ag15
(I0
I0
I255
I255
tp240
Rp241
aV1
p242
ag15
(I255
I0
I255
I255
tp243
Rp244
aV1
p245
ag15
(I0
I0
I0
I255
tp246
Rp247
aV38
p248
ag15
(I0
I0
I0
I255
tp249
Rp250
aV1
p251
aassg32
V02:00 000ms
p252
sba(ieffectgroup
EffectGroup
p253
(dp254
g3
(dp255
I0
(lp256
I-1
a(lp257
asI1
(lp258
I-1
a(lp259
asI2
(lp260
I-1
a(lp261
asI3
(lp262
I-1
a(lp263
asI4
(lp264
I-1
a(lp265
asI5
(lp266
I3
a(lp267
g15
(I255
I0
I0
I255
tp268
Rp269
aV1
p270
aV30
p271
aasI6
(lp272
I3
a(lp273
g15
(I0
I0
I125
I255
tp274
Rp275
aV1
p276
aV30
p277
aasI7
(lp278
I-1
a(lp279
asI8
(lp280
I-1
aNasI9
(lp281
I-1
aNasI10
(lp282
I-1
aNasI11
(lp283
I-1
aNassg32
V03:00 000ms
p284
sba(ieffectgroup
EffectGroup
p285
(dp286
g3
(dp287
I0
(lp288
I-1
aNasI1
(lp289
I-1
aNasI2
(lp290
I-1
aNasI3
(lp291
I-1
aNasI4
(lp292
I-1
aNasI5
(lp293
I3
a(lp294
g15
(I0
I0
I125
I255
tp295
Rp296
aV1
p297
aV60
p298
aasI6
(lp299
I-1
aNasI7
(lp300
I-1
aNasI8
(lp301
I-1
aNasI9
(lp302
I-1
aNasI10
(lp303
I-1
aNasI11
(lp304
I-1
aNassg32
V03:01 010ms
p305
sba(ieffectgroup
EffectGroup
p306
(dp307
g3
(dp308
I0
(lp309
I-1
aNasI1
(lp310
I-1
aNasI2
(lp311
I-1
aNasI3
(lp312
I-1
aNasI4
(lp313
I-1
aNasI5
(lp314
I-1
aNasI6
(lp315
I3
a(lp316
g15
(I255
I0
I0
I255
tp317
Rp318
aV1
p319
aV60
p320
aasI7
(lp321
I-1
aNasI8
(lp322
I-1
aNasI9
(lp323
I-1
aNasI10
(lp324
I-1
aNasI11
(lp325
I-1
aNassg32
V03:01 020ms
p326
sba(ieffectgroup
EffectGroup
p327
(dp328
g3
(dp329
I0
(lp330
I-1
aNasI1
(lp331
I-1
aNasI2
(lp332
I-1
aNasI3
(lp333
I-1
aNasI4
(lp334
I-1
aNasI5
(lp335
I5
a(lp336
g15
(I255
I0
I0
I255
tp337
Rp338
ag15
(I0
I255
I0
I255
tp339
Rp340
aV100
p341
aV1
p342
aV1
p343
aasI6
(lp344
I-1
aNasI7
(lp345
I-1
aNasI8
(lp346
I-1
aNasI9
(lp347
I-1
aNasI10
(lp348
I-1
aNasI11
(lp349
I-1
aNassg32
V03:01 030ms
p350
sba(ieffectgroup
EffectGroup
p351
(dp352
g3
(dp353
I0
(lp354
I-1
aNasI1
(lp355
I-1
aNasI2
(lp356
I-1
aNasI3
(lp357
I-1
aNasI4
(lp358
I-1
aNasI5
(lp359
I-1
aNasI6
(lp360
I-1
aNasI7
(lp361
I-1
aNasI8
(lp362
I-1
aNasI9
(lp363
I-1
aNasI10
(lp364
I-1
aNasI11
(lp365
I-1
aNassg32
V03:01 040ms
p366
sba.