(lp0
(ieffectgroup
EffectGroup
p1
(dp2
S'm_effects'
p3
(dp4
I0
(lp5
I-1
a(lp6
asI1
(lp7
I-1
aNasI2
(lp8
I-1
aNasI3
(lp9
I-1
aNasI4
(lp10
I-1
aNasI5
(lp11
I-1
a(lp12
asI6
(lp13
I1
a(lp14
cwx._gdi
Colour
p15
(I0
I255
I0
I255
tp16
Rp17
aasI7
(lp18
I-1
aNasI8
(lp19
I-1
aNasI9
(lp20
I-1
aNasI10
(lp21
I-1
aNasI11
(lp22
I-1
aNassS'm_time'
p23
V00:01 050ms
p24
sba(ieffectgroup
EffectGroup
p25
(dp26
g3
(dp27
I0
(lp28
I8
a(lp29
I2
ag15
(I255
I0
I0
I255
tp30
Rp31
aV2
p32
ag15
(I0
I0
I0
I255
tp33
Rp34
aV40
p35
aasI1
(lp36
I8
a(lp37
I2
ag15
(I255
I0
I0
I255
tp38
Rp39
aV2
p40
ag15
(I0
I0
I0
I255
tp41
Rp42
aV40
p43
aasI2
(lp44
I8
a(lp45
I2
ag15
(I255
I0
I0
I255
tp46
Rp47
aV2
p48
ag15
(I0
I0
I0
I255
tp49
Rp50
aV40
p51
aasI3
(lp52
I8
a(lp53
I2
ag15
(I255
I0
I0
I255
tp54
Rp55
aV2
p56
ag15
(I0
I0
I0
I255
tp57
Rp58
aV40
p59
aasI4
(lp60
I8
a(lp61
I2
ag15
(I255
I0
I0
I255
tp62
Rp63
aV2
p64
ag15
(I0
I0
I0
I255
tp65
Rp66
aV40
p67
aasI5
(lp68
I8
a(lp69
I2
ag15
(I255
I0
I0
I255
tp70
Rp71
aV2
p72
ag15
(I0
I0
I0
I255
tp73
Rp74
aV40
p75
aasI6
(lp76
I-1
aNasI7
(lp77
I-1
aNasI8
(lp78
I-1
aNasI9
(lp79
I-1
aNasI10
(lp80
I-1
aNasI11
(lp81
I-1
aNassg23
V00:01 070ms
p82
sba(ieffectgroup
EffectGroup
p83
(dp84
g3
(dp85
I0
(lp86
I10
a(lp87
I4
ag15
(I64
I0
I128
I255
tp88
Rp89
aV1
p90
ag15
(I0
I0
I0
I255
tp91
Rp92
aV1
p93
ag15
(I96
I96
I96
I255
tp94
Rp95
aV1
p96
ag15
(I0
I0
I0
I255
tp97
Rp98
aV1
p99
aasI1
(lp100
I10
a(lp101
I4
ag15
(I64
I0
I128
I255
tp102
Rp103
aV1
p104
ag15
(I0
I0
I0
I255
tp105
Rp106
aV1
p107
ag15
(I96
I96
I96
I255
tp108
Rp109
aV1
p110
ag15
(I0
I0
I0
I255
tp111
Rp112
aV1
p113
aasI2
(lp114
I10
a(lp115
I4
ag15
(I64
I0
I128
I255
tp116
Rp117
aV1
p118
ag15
(I0
I0
I0
I255
tp119
Rp120
aV1
p121
ag15
(I96
I96
I96
I255
tp122
Rp123
aV1
p124
ag15
(I0
I0
I0
I255
tp125
Rp126
aV1
p127
aasI3
(lp128
I10
a(lp129
I4
ag15
(I64
I0
I128
I255
tp130
Rp131
aV1
p132
ag15
(I0
I0
I0
I255
tp133
Rp134
aV1
p135
ag15
(I96
I96
I96
I255
tp136
Rp137
aV1
p138
ag15
(I0
I0
I0
I255
tp139
Rp140
aV1
p141
aasI4
(lp142
I12
a(lp143
I8
ag15
(I128
I0
I255
I255
tp144
Rp145
aV8
p146
ag15
(I0
I0
I0
I255
tp147
Rp148
aV32
p149
ag15
(I255
I0
I0
I255
tp150
Rp151
aV8
p152
ag15
(I0
I0
I0
I255
tp153
Rp154
aV32
p155
ag15
(I255
I30
I0
I255
tp156
Rp157
aV8
p158
ag15
(I0
I0
I0
I255
tp159
Rp160
aV32
p161
ag15
(I255
I60
I0
I255
tp162
Rp163
aV8
p164
ag15
(I0
I0
I0
I255
tp165
Rp166
aV32
p167
aasI5
(lp168
I3
a(lp169
g15
(I255
I0
I128
I255
tp170
Rp171
aV1
p172
aV16
p173
aasI6
(lp174
I3
a(lp175
g15
(I255
I0
I128
I255
tp176
Rp177
aV1
p178
aV16
p179
aasI7
(lp180
I12
a(lp181
I8
ag15
(I128
I0
I255
I255
tp182
Rp183
aV8
p184
ag15
(I0
I0
I0
I255
tp185
Rp186
aV32
p187
ag15
(I255
I0
I0
I255
tp188
Rp189
aV8
p190
ag15
(I0
I0
I0
I255
tp191
Rp192
aV32
p193
ag15
(I255
I30
I0
I255
tp194
Rp195
aV8
p196
ag15
(I0
I0
I0
I255
tp197
Rp198
aV32
p199
ag15
(I255
I60
I0
I255
tp200
Rp201
aV8
p202
ag15
(I0
I0
I0
I255
tp203
Rp204
aV32
p205
aasI8
(lp206
I10
a(lp207
I4
ag15
(I64
I0
I128
I255
tp208
Rp209
aV1
p210
ag15
(I0
I0
I0
I255
tp211
Rp212
aV8
p213
ag15
(I96
I96
I96
I255
tp214
Rp215
aV1
p216
ag15
(I0
I0
I0
I255
tp217
Rp218
aV8
p219
aasI9
(lp220
I10
a(lp221
I4
ag15
(I64
I0
I128
I255
tp222
Rp223
aV1
p224
ag15
(I0
I0
I0
I255
tp225
Rp226
aV8
p227
ag15
(I96
I96
I96
I255
tp228
Rp229
aV1
p230
ag15
(I0
I0
I0
I255
tp231
Rp232
aV8
p233
aasI10
(lp234
I10
a(lp235
I4
ag15
(I64
I0
I128
I255
tp236
Rp237
aV1
p238
ag15
(I0
I0
I0
I255
tp239
Rp240
aV8
p241
ag15
(I96
I96
I96
I255
tp242
Rp243
aV1
p244
ag15
(I0
I0
I0
I255
tp245
Rp246
aV8
p247
aasI11
(lp248
I10
a(lp249
I4
ag15
(I64
I0
I128
I255
tp250
Rp251
aV1
p252
ag15
(I0
I0
I0
I255
tp253
Rp254
aV8
p255
ag15
(I96
I96
I96
I255
tp256
Rp257
aV1
p258
ag15
(I0
I0
I0
I255
tp259
Rp260
aV8
p261
aassg23
V00:01 150ms
p262
sba(ieffectgroup
EffectGroup
p263
(dp264
g3
(dp265
I0
(lp266
I-1
aNasI1
(lp267
I-1
aNasI2
(lp268
I-1
aNasI3
(lp269
I-1
aNasI4
(lp270
I10
a(lp271
I4
ag15
(I0
I0
I255
I255
tp272
Rp273
aV4
p274
ag15
(I0
I0
I0
I255
tp275
Rp276
aV16
p277
ag15
(I0
I255
I0
I255
tp278
Rp279
aV4
p280
ag15
(I0
I0
I0
I255
tp281
Rp282
aV16
p283
aasI5
(lp284
I3
a(lp285
g15
(I255
I0
I128
I255
tp286
Rp287
aV1
p288
aV16
p289
aasI6
(lp290
I3
a(lp291
g15
(I255
I0
I128
I255
tp292
Rp293
aV1
p294
aV16
p295
aasI7
(lp296
I10
a(lp297
I4
ag15
(I0
I0
I255
I255
tp298
Rp299
aV4
p300
ag15
(I0
I0
I0
I255
tp301
Rp302
aV16
p303
ag15
(I0
I255
I0
I255
tp304
Rp305
aV4
p306
ag15
(I0
I0
I0
I255
tp307
Rp308
aV16
p309
aasI8
(lp310
I-1
aNasI9
(lp311
I-1
aNasI10
(lp312
I-1
aNasI11
(lp313
I-1
aNassg23
V00:01 160ms
p314
sba(ieffectgroup
EffectGroup
p315
(dp316
g3
(dp317
I0
(lp318
I-1
aNasI1
(lp319
I-1
aNasI2
(lp320
I-1
aNasI3
(lp321
I-1
aNasI4
(lp322
I-1
aNasI5
(lp323
I8
a(lp324
I2
ag15
(I255
I255
I255
I255
tp325
Rp326
aV1
p327
ag15
(I0
I0
I0
I255
tp328
Rp329
aV1
p330
aasI6
(lp331
I8
a(lp332
I2
ag15
(I255
I255
I255
I255
tp333
Rp334
aV1
p335
ag15
(I0
I0
I0
I255
tp336
Rp337
aV1
p338
aasI7
(lp339
I-1
aNasI8
(lp340
I-1
aNasI9
(lp341
I-1
aNasI10
(lp342
I-1
aNasI11
(lp343
I-1
aNassg23
V00:01 180ms
p344
sba(ieffectgroup
EffectGroup
p345
(dp346
g3
(dp347
I0
(lp348
I-1
aNasI1
(lp349
I-1
aNasI2
(lp350
I-1
aNasI3
(lp351
I-1
aNasI4
(lp352
I8
a(lp353
I2
ag15
(I255
I255
I255
I255
tp354
Rp355
aV1
p356
ag15
(I0
I0
I0
I255
tp357
Rp358
aV1
p359
aasI5
(lp360
I-1
aNasI6
(lp361
I-1
a(lp362
asI7
(lp363
I8
a(lp364
I2
ag15
(I255
I255
I255
I255
tp365
Rp366
aV1
p367
ag15
(I0
I0
I0
I255
tp368
Rp369
aV1
p370
aasI8
(lp371
I-1
aNasI9
(lp372
I-1
aNasI10
(lp373
I-1
aNasI11
(lp374
I-1
aNassg23
V00:01 190ms
p375
sba(ieffectgroup
EffectGroup
p376
(dp377
g3
(dp378
I0
(lp379
I-1
aNasI1
(lp380
I-1
aNasI2
(lp381
I-1
aNasI3
(lp382
I-1
aNasI4
(lp383
I10
a(lp384
I4
ag15
(I255
I0
I0
I255
tp385
Rp386
aV4
p387
ag15
(I0
I0
I0
I255
tp388
Rp389
aV16
p390
ag15
(I0
I0
I255
I255
tp391
Rp392
aV4
p393
ag15
(I0
I0
I0
I255
tp394
Rp395
aV16
p396
aasI5
(lp397
I3
a(lp398
g15
(I0
I255
I0
I255
tp399
Rp400
aV1
p401
aV16
p402
aasI6
(lp403
I3
a(lp404
g15
(I0
I255
I0
I255
tp405
Rp406
aV1
p407
aV16
p408
aasI7
(lp409
I10
a(lp410
I4
ag15
(I0
I0
I255
I255
tp411
Rp412
aV4
p413
ag15
(I0
I0
I0
I255
tp414
Rp415
aV16
p416
ag15
(I255
I0
I0
I255
tp417
Rp418
aV4
p419
ag15
(I0
I0
I0
I255
tp420
Rp421
aV16
p422
aasI8
(lp423
I-1
aNasI9
(lp424
I-1
aNasI10
(lp425
I-1
aNasI11
(lp426
I-1
aNassg23
V00:01 200ms
p427
sba(ieffectgroup
EffectGroup
p428
(dp429
g3
(dp430
I0
(lp431
I12
a(lp432
I8
ag15
(I255
I0
I0
I255
tp433
Rp434
aV1
p435
ag15
(I0
I0
I0
I255
tp436
Rp437
aV1
p438
ag15
(I255
I30
I0
I255
tp439
Rp440
aV1
p441
ag15
(I0
I0
I0
I255
tp442
Rp443
aV1
p444
ag15
(I255
I60
I0
I255
tp445
Rp446
aV1
p447
ag15
(I0
I0
I0
I255
tp448
Rp449
aV1
p450
ag15
(I255
I0
I30
I255
tp451
Rp452
aV1
p453
ag15
(I0
I0
I0
I255
tp454
Rp455
aV1
p456
aasI1
(lp457
I12
a(lp458
I8
ag15
(I255
I0
I0
I255
tp459
Rp460
aV1
p461
ag15
(I0
I0
I0
I255
tp462
Rp463
aV1
p464
ag15
(I255
I30
I0
I255
tp465
Rp466
aV1
p467
ag15
(I0
I0
I0
I255
tp468
Rp469
aV1
p470
ag15
(I255
I60
I0
I255
tp471
Rp472
aV1
p473
ag15
(I0
I0
I0
I255
tp474
Rp475
aV1
p476
ag15
(I255
I0
I30
I255
tp477
Rp478
aV1
p479
ag15
(I0
I0
I0
I255
tp480
Rp481
aV1
p482
aasI2
(lp483
I12
a(lp484
I8
ag15
(I255
I0
I0
I255
tp485
Rp486
aV1
p487
ag15
(I0
I0
I0
I255
tp488
Rp489
aV1
p490
ag15
(I255
I30
I0
I255
tp491
Rp492
aV1
p493
ag15
(I0
I0
I0
I255
tp494
Rp495
aV1
p496
ag15
(I255
I60
I0
I255
tp497
Rp498
aV1
p499
ag15
(I0
I0
I0
I255
tp500
Rp501
aV1
p502
ag15
(I255
I0
I30
I255
tp503
Rp504
aV1
p505
ag15
(I0
I0
I0
I255
tp506
Rp507
aV1
p508
aasI3
(lp509
I12
a(lp510
I8
ag15
(I255
I0
I0
I255
tp511
Rp512
aV1
p513
ag15
(I0
I0
I0
I255
tp514
Rp515
aV1
p516
ag15
(I255
I30
I0
I255
tp517
Rp518
aV1
p519
ag15
(I0
I0
I0
I255
tp520
Rp521
aV1
p522
ag15
(I255
I60
I0
I255
tp523
Rp524
aV1
p525
ag15
(I0
I0
I0
I255
tp526
Rp527
aV1
p528
ag15
(I255
I0
I30
I255
tp529
Rp530
aV1
p531
ag15
(I0
I0
I0
I255
tp532
Rp533
aV1
p534
aasI4
(lp535
I10
a(lp536
I4
ag15
(I255
I128
I0
I255
tp537
Rp538
aV4
p539
ag15
(I0
I0
I0
I255
tp540
Rp541
aV16
p542
ag15
(I255
I0
I0
I255
tp543
Rp544
aV4
p545
ag15
(I0
I0
I0
I255
tp546
Rp547
aV16
p548
aasI5
(lp549
I-1
a(lp550
asI6
(lp551
I-1
a(lp552
asI7
(lp553
I10
a(lp554
I4
ag15
(I125
I63
I0
I255
tp555
Rp556
aV4
p557
ag15
(I0
I0
I0
I255
tp558
Rp559
aV16
p560
ag15
(I255
I0
I0
I255
tp561
Rp562
aV4
p563
ag15
(I0
I0
I0
I255
tp564
Rp565
aV16
p566
aasI8
(lp567
I12
a(lp568
I8
ag15
(I255
I0
I0
I255
tp569
Rp570
aV1
p571
ag15
(I0
I0
I0
I255
tp572
Rp573
aV12
p574
ag15
(I255
I30
I0
I255
tp575
Rp576
aV1
p577
ag15
(I0
I0
I0
I255
tp578
Rp579
aV12
p580
ag15
(I255
I60
I0
I255
tp581
Rp582
aV1
p583
ag15
(I0
I0
I0
I255
tp584
Rp585
aV12
p586
ag15
(I255
I0
I30
I255
tp587
Rp588
aV1
p589
ag15
(I0
I0
I0
I255
tp590
Rp591
aV12
p592
aasI9
(lp593
I12
a(lp594
I8
ag15
(I255
I0
I0
I255
tp595
Rp596
aV1
p597
ag15
(I0
I0
I0
I255
tp598
Rp599
aV12
p600
ag15
(I255
I30
I0
I255
tp601
Rp602
aV1
p603
ag15
(I0
I0
I0
I255
tp604
Rp605
aV12
p606
ag15
(I255
I60
I0
I255
tp607
Rp608
aV1
p609
ag15
(I0
I0
I0
I255
tp610
Rp611
aV12
p612
ag15
(I255
I0
I30
I255
tp613
Rp614
aV1
p615
ag15
(I0
I0
I0
I255
tp616
Rp617
aV12
p618
aasI10
(lp619
I12
a(lp620
I8
ag15
(I255
I0
I0
I255
tp621
Rp622
aV1
p623
ag15
(I0
I0
I0
I255
tp624
Rp625
aV12
p626
ag15
(I255
I30
I0
I255
tp627
Rp628
aV1
p629
ag15
(I0
I0
I0
I255
tp630
Rp631
aV12
p632
ag15
(I255
I60
I0
I255
tp633
Rp634
aV1
p635
ag15
(I0
I0
I0
I255
tp636
Rp637
aV12
p638
ag15
(I255
I0
I30
I255
tp639
Rp640
aV1
p641
ag15
(I0
I0
I0
I255
tp642
Rp643
aV12
p644
aasI11
(lp645
I12
a(lp646
I8
ag15
(I255
I0
I0
I255
tp647
Rp648
aV1
p649
ag15
(I0
I0
I0
I255
tp650
Rp651
aV12
p652
ag15
(I255
I30
I0
I255
tp653
Rp654
aV1
p655
ag15
(I0
I0
I0
I255
tp656
Rp657
aV12
p658
ag15
(I255
I60
I0
I255
tp659
Rp660
aV1
p661
ag15
(I0
I0
I0
I255
tp662
Rp663
aV12
p664
ag15
(I255
I0
I30
I255
tp665
Rp666
aV1
p667
ag15
(I0
I0
I0
I255
tp668
Rp669
aV12
p670
aassg23
V00:01 220ms
p671
sba(ieffectgroup
EffectGroup
p672
(dp673
g3
(dp674
I0
(lp675
I-1
aNasI1
(lp676
I-1
aNasI2
(lp677
I-1
aNasI3
(lp678
I-1
aNasI4
(lp679
I-1
aNasI5
(lp680
I-1
aNasI6
(lp681
I-1
aNasI7
(lp682
I-1
aNasI8
(lp683
I-1
aNasI9
(lp684
I-1
aNasI10
(lp685
I-1
aNasI11
(lp686
I-1
aNassg23
V00:01 230ms
p687
sba(ieffectgroup
EffectGroup
p688
(dp689
g3
(dp690
I0
(lp691
I-1
aNasI1
(lp692
I-1
aNasI2
(lp693
I-1
aNasI3
(lp694
I-1
aNasI4
(lp695
I-1
aNasI5
(lp696
I-1
aNasI6
(lp697
I-1
aNasI7
(lp698
I-1
aNasI8
(lp699
I-1
aNasI9
(lp700
I-1
aNasI10
(lp701
I-1
aNasI11
(lp702
I-1
aNassg23
V00:01 240ms
p703
sba(ieffectgroup
EffectGroup
p704
(dp705
g3
(dp706
I0
(lp707
I-1
aNasI1
(lp708
I-1
aNasI2
(lp709
I-1
aNasI3
(lp710
I-1
aNasI4
(lp711
I-1
aNasI5
(lp712
I-1
aNasI6
(lp713
I-1
aNasI7
(lp714
I-1
aNasI8
(lp715
I-1
aNasI9
(lp716
I-1
aNasI10
(lp717
I-1
aNasI11
(lp718
I-1
aNassg23
V00:01 250ms
p719
sba(ieffectgroup
EffectGroup
p720
(dp721
g3
(dp722
I0
(lp723
I10
a(lp724
I4
ag15
(I0
I255
I0
I255
tp725
Rp726
aV1
p727
ag15
(I0
I0
I0
I255
tp728
Rp729
aV2
p730
ag15
(I0
I255
I90
I255
tp731
Rp732
aV1
p733
ag15
(I0
I0
I0
I255
tp734
Rp735
aV2
p736
aasI1
(lp737
I11
a(lp738
I6
ag15
(I0
I255
I0
I255
tp739
Rp740
aV2
p741
ag15
(I0
I0
I0
I255
tp742
Rp743
aV2
p744
ag15
(I255
I255
I255
I255
tp745
Rp746
aV2
p747
ag15
(I0
I0
I0
I255
tp748
Rp749
aV2
p750
ag15
(I0
I255
I90
I255
tp751
Rp752
aV2
p753
ag15
(I0
I0
I0
I255
tp754
Rp755
aV2
p756
aasI2
(lp757
I11
a(lp758
I6
ag15
(I0
I255
I0
I255
tp759
Rp760
aV2
p761
ag15
(I0
I0
I0
I255
tp762
Rp763
aV2
p764
ag15
(I255
I255
I255
I255
tp765
Rp766
aV2
p767
ag15
(I0
I0
I0
I255
tp768
Rp769
aV2
p770
ag15
(I0
I255
I90
I255
tp771
Rp772
aV2
p773
ag15
(I0
I0
I0
I255
tp774
Rp775
aV2
p776
aasI3
(lp777
I10
a(lp778
I4
ag15
(I0
I255
I0
I255
tp779
Rp780
aV1
p781
ag15
(I0
I0
I0
I255
tp782
Rp783
aV2
p784
ag15
(I0
I255
I90
I255
tp785
Rp786
aV1
p787
ag15
(I0
I0
I0
I255
tp788
Rp789
aV2
p790
aasI4
(lp791
I8
a(lp792
I2
ag15
(I255
I255
I255
I255
tp793
Rp794
aV8
p795
ag15
(I0
I0
I0
I255
tp796
Rp797
aV32
p798
aasI5
(lp799
I-1
a(lp800
asI6
(lp801
I-1
a(lp802
asI7
(lp803
I8
a(lp804
I2
ag15
(I96
I96
I96
I255
tp805
Rp806
aV8
p807
ag15
(I0
I0
I0
I255
tp808
Rp809
aV32
p810
aasI8
(lp811
I10
a(lp812
I4
ag15
(I0
I255
I0
I255
tp813
Rp814
aV2
p815
ag15
(I0
I0
I0
I255
tp816
Rp817
aV16
p818
ag15
(I0
I255
I90
I255
tp819
Rp820
aV2
p821
ag15
(I0
I0
I0
I255
tp822
Rp823
aV16
p824
aasI9
(lp825
I11
a(lp826
I6
ag15
(I0
I255
I0
I255
tp827
Rp828
aV2
p829
ag15
(I0
I0
I0
I255
tp830
Rp831
aV16
p832
ag15
(I96
I96
I96
I255
tp833
Rp834
aV2
p835
ag15
(I0
I0
I0
I255
tp836
Rp837
aV32
p838
ag15
(I0
I255
I90
I255
tp839
Rp840
aV2
p841
ag15
(I0
I0
I0
I255
tp842
Rp843
aV16
p844
aasI10
(lp845
I11
a(lp846
I6
ag15
(I0
I255
I0
I255
tp847
Rp848
aV2
p849
ag15
(I0
I0
I0
I255
tp850
Rp851
aV16
p852
ag15
(I96
I96
I96
I255
tp853
Rp854
aV2
p855
ag15
(I0
I0
I0
I255
tp856
Rp857
aV32
p858
ag15
(I0
I255
I90
I255
tp859
Rp860
aV2
p861
ag15
(I0
I0
I0
I255
tp862
Rp863
aV16
p864
aasI11
(lp865
I10
a(lp866
I4
ag15
(I0
I255
I0
I255
tp867
Rp868
aV2
p869
ag15
(I0
I0
I0
I255
tp870
Rp871
aV16
p872
ag15
(I0
I255
I90
I255
tp873
Rp874
aV2
p875
ag15
(I0
I0
I0
I255
tp876
Rp877
aV16
p878
aassg23
V00:01 400ms
p879
sba(ieffectgroup
EffectGroup
p880
(dp881
g3
(dp882
I0
(lp883
I9
a(lp884
I3
ag15
(I128
I0
I255
I255
tp885
Rp886
aV1
p887
ag15
(I255
I0
I0
I255
tp888
Rp889
aV1
p890
ag15
(I0
I0
I0
I255
tp891
Rp892
aV2
p893
aasI1
(lp894
I9
a(lp895
I3
ag15
(I128
I0
I255
I255
tp896
Rp897
aV1
p898
ag15
(I255
I0
I0
I255
tp899
Rp900
aV1
p901
ag15
(I0
I0
I0
I255
tp902
Rp903
aV2
p904
aasI2
(lp905
I9
a(lp906
I3
ag15
(I128
I0
I255
I255
tp907
Rp908
aV1
p909
ag15
(I255
I0
I0
I255
tp910
Rp911
aV1
p912
ag15
(I0
I0
I0
I255
tp913
Rp914
aV2
p915
aasI3
(lp916
I9
a(lp917
I3
ag15
(I128
I0
I255
I255
tp918
Rp919
aV1
p920
ag15
(I255
I0
I0
I255
tp921
Rp922
aV1
p923
ag15
(I0
I0
I0
I255
tp924
Rp925
aV2
p926
aasI4
(lp927
I8
a(lp928
I2
ag15
(I0
I255
I255
I255
tp929
Rp930
aV16
p931
ag15
(I0
I0
I0
I255
tp932
Rp933
aV32
p934
aasI5
(lp935
I-1
a(lp936
asI6
(lp937
I-1
a(lp938
asI7
(lp939
I8
a(lp940
I2
ag15
(I0
I255
I255
I255
tp941
Rp942
aV16
p943
ag15
(I0
I0
I0
I255
tp944
Rp945
aV32
p946
aasI8
(lp947
I9
a(lp948
I3
ag15
(I128
I0
I255
I255
tp949
Rp950
aV1
p951
ag15
(I255
I0
I0
I255
tp952
Rp953
aV1
p954
ag15
(I0
I0
I0
I255
tp955
Rp956
aV6
p957
aasI9
(lp958
I9
a(lp959
I3
ag15
(I128
I0
I255
I255
tp960
Rp961
aV1
p962
ag15
(I255
I0
I0
I255
tp963
Rp964
aV1
p965
ag15
(I0
I0
I0
I255
tp966
Rp967
aV6
p968
aasI10
(lp969
I9
a(lp970
I3
ag15
(I128
I0
I255
I255
tp971
Rp972
aV1
p973
ag15
(I255
I0
I0
I255
tp974
Rp975
aV1
p976
ag15
(I0
I0
I0
I255
tp977
Rp978
aV6
p979
aasI11
(lp980
I9
a(lp981
I3
ag15
(I128
I0
I255
I255
tp982
Rp983
aV1
p984
ag15
(I255
I0
I0
I255
tp985
Rp986
aV1
p987
ag15
(I0
I0
I0
I255
tp988
Rp989
aV6
p990
aassg23
V00:01 600ms
p991
sba(ieffectgroup
EffectGroup
p992
(dp993
g3
(dp994
I0
(lp995
I10
a(lp996
I4
ag15
(I51
I51
I255
I255
tp997
Rp998
aV1
p999
ag15
(I0
I0
I0
I255
tp1000
Rp1001
aV1
p1002
ag15
(I255
I200
I0
I255
tp1003
Rp1004
aV1
p1005
ag15
(I0
I0
I0
I255
tp1006
Rp1007
aV1
p1008
aasI1
(lp1009
I10
a(lp1010
I4
ag15
(I255
I200
I0
I255
tp1011
Rp1012
aV1
p1013
ag15
(I0
I0
I0
I255
tp1014
Rp1015
aV1
p1016
ag15
(I50
I50
I255
I255
tp1017
Rp1018
aV1
p1019
ag15
(I0
I0
I0
I255
tp1020
Rp1021
aV1
p1022
aasI2
(lp1023
I10
a(lp1024
I4
ag15
(I50
I50
I255
I255
tp1025
Rp1026
aV1
p1027
ag15
(I0
I0
I0
I255
tp1028
Rp1029
aV1
p1030
ag15
(I255
I200
I0
I255
tp1031
Rp1032
aV1
p1033
ag15
(I0
I0
I0
I255
tp1034
Rp1035
aV1
p1036
aasI3
(lp1037
I10
a(lp1038
I4
ag15
(I255
I200
I0
I255
tp1039
Rp1040
aV1
p1041
ag15
(I0
I0
I0
I255
tp1042
Rp1043
aV1
p1044
ag15
(I50
I50
I255
I255
tp1045
Rp1046
aV1
p1047
ag15
(I0
I0
I0
I255
tp1048
Rp1049
aV1
p1050
aasI4
(lp1051
I-1
aNasI5
(lp1052
I8
a(lp1053
I2
ag15
(I255
I255
I255
I255
tp1054
Rp1055
aV16
p1056
ag15
(I0
I0
I0
I255
tp1057
Rp1058
aV32
p1059
aasI6
(lp1060
I8
a(lp1061
I2
ag15
(I255
I255
I255
I255
tp1062
Rp1063
aV16
p1064
ag15
(I0
I0
I0
I255
tp1065
Rp1066
aV32
p1067
aasI7
(lp1068
I-1
a(lp1069
asI8
(lp1070
I10
a(lp1071
I4
ag15
(I255
I200
I0
I255
tp1072
Rp1073
aV1
p1074
ag15
(I0
I0
I0
I255
tp1075
Rp1076
aV1
p1077
ag15
(I50
I50
I255
I255
tp1078
Rp1079
aV1
p1080
ag15
(I0
I0
I0
I255
tp1081
Rp1082
aV1
p1083
aasI9
(lp1084
I10
a(lp1085
I4
ag15
(I50
I50
I255
I255
tp1086
Rp1087
aV1
p1088
ag15
(I0
I0
I0
I255
tp1089
Rp1090
aV1
p1091
ag15
(I255
I200
I0
I255
tp1092
Rp1093
aV1
p1094
ag15
(I0
I0
I0
I255
tp1095
Rp1096
aV1
p1097
aasI10
(lp1098
I10
a(lp1099
I4
ag15
(I255
I200
I0
I255
tp1100
Rp1101
aV1
p1102
ag15
(I0
I0
I0
I255
tp1103
Rp1104
aV1
p1105
ag15
(I50
I50
I255
I255
tp1106
Rp1107
aV1
p1108
ag15
(I0
I0
I0
I255
tp1109
Rp1110
aV1
p1111
aasI11
(lp1112
I10
a(lp1113
I4
ag15
(I50
I50
I255
I255
tp1114
Rp1115
aV1
p1116
ag15
(I0
I0
I0
I255
tp1117
Rp1118
aV1
p1119
ag15
(I255
I200
I0
I255
tp1120
Rp1121
aV1
p1122
ag15
(I0
I0
I0
I255
tp1123
Rp1124
aV1
p1125
aassg23
V00:01 700ms
p1126
sba(ieffectgroup
EffectGroup
p1127
(dp1128
g3
(dp1129
I0
(lp1130
I13
a(lp1131
I10
ag15
(I255
I0
I0
I255
tp1132
Rp1133
aV1
p1134
ag15
(I0
I0
I0
I255
tp1135
Rp1136
aV1
p1137
ag15
(I0
I0
I255
I255
tp1138
Rp1139
aV1
p1140
ag15
(I0
I0
I0
I255
tp1141
Rp1142
aV1
p1143
ag15
(I0
I255
I0
I255
tp1144
Rp1145
aV1
p1146
ag15
(I0
I0
I0
I255
tp1147
Rp1148
aV1
p1149
ag15
(I0
I0
I255
I255
tp1150
Rp1151
aV1
p1152
ag15
(I0
I0
I0
I255
tp1153
Rp1154
aV1
p1155
ag15
(I0
I255
I0
I255
tp1156
Rp1157
aV1
p1158
ag15
(I0
I0
I0
I255
tp1159
Rp1160
aV1
p1161
aasI1
(lp1162
I13
a(lp1163
I10
ag15
(I255
I0
I0
I255
tp1164
Rp1165
aV1
p1166
ag15
(I0
I0
I0
I255
tp1167
Rp1168
aV1
p1169
ag15
(I0
I0
I255
I255
tp1170
Rp1171
aV1
p1172
ag15
(I0
I0
I0
I255
tp1173
Rp1174
aV1
p1175
ag15
(I0
I255
I0
I255
tp1176
Rp1177
aV1
p1178
ag15
(I0
I0
I0
I255
tp1179
Rp1180
aV1
p1181
ag15
(I0
I0
I255
I255
tp1182
Rp1183
aV1
p1184
ag15
(I0
I0
I0
I255
tp1185
Rp1186
aV1
p1187
ag15
(I0
I255
I0
I255
tp1188
Rp1189
aV1
p1190
ag15
(I0
I0
I0
I255
tp1191
Rp1192
aV1
p1193
aasI2
(lp1194
I13
a(lp1195
I10
ag15
(I255
I0
I0
I255
tp1196
Rp1197
aV1
p1198
ag15
(I0
I0
I0
I255
tp1199
Rp1200
aV1
p1201
ag15
(I0
I0
I255
I255
tp1202
Rp1203
aV1
p1204
ag15
(I0
I0
I0
I255
tp1205
Rp1206
aV1
p1207
ag15
(I0
I255
I0
I255
tp1208
Rp1209
aV1
p1210
ag15
(I0
I0
I0
I255
tp1211
Rp1212
aV1
p1213
ag15
(I0
I0
I255
I255
tp1214
Rp1215
aV1
p1216
ag15
(I0
I0
I0
I255
tp1217
Rp1218
aV1
p1219
ag15
(I0
I255
I0
I255
tp1220
Rp1221
aV1
p1222
ag15
(I0
I0
I0
I255
tp1223
Rp1224
aV1
p1225
aasI3
(lp1226
I13
a(lp1227
I10
ag15
(I255
I0
I0
I255
tp1228
Rp1229
aV1
p1230
ag15
(I0
I0
I0
I255
tp1231
Rp1232
aV1
p1233
ag15
(I0
I0
I255
I255
tp1234
Rp1235
aV1
p1236
ag15
(I0
I0
I0
I255
tp1237
Rp1238
aV1
p1239
ag15
(I0
I255
I0
I255
tp1240
Rp1241
aV1
p1242
ag15
(I0
I0
I0
I255
tp1243
Rp1244
aV1
p1245
ag15
(I0
I0
I255
I255
tp1246
Rp1247
aV1
p1248
ag15
(I0
I0
I0
I255
tp1249
Rp1250
aV1
p1251
ag15
(I0
I255
I0
I255
tp1252
Rp1253
aV1
p1254
ag15
(I0
I0
I0
I255
tp1255
Rp1256
aV1
p1257
aasI4
(lp1258
I-1
a(lp1259
asI5
(lp1260
I13
a(lp1261
I10
ag15
(I255
I0
I0
I255
tp1262
Rp1263
aV4
p1264
ag15
(I0
I0
I0
I255
tp1265
Rp1266
aV32
p1267
ag15
(I0
I0
I255
I255
tp1268
Rp1269
aV4
p1270
ag15
(I0
I0
I0
I255
tp1271
Rp1272
aV32
p1273
ag15
(I0
I255
I0
I255
tp1274
Rp1275
aV4
p1276
ag15
(I0
I0
I0
I255
tp1277
Rp1278
aV32
p1279
ag15
(I0
I0
I255
I255
tp1280
Rp1281
aV4
p1282
ag15
(I0
I0
I0
I255
tp1283
Rp1284
aV32
p1285
ag15
(I0
I255
I0
I255
tp1286
Rp1287
aV4
p1288
ag15
(I0
I0
I0
I255
tp1289
Rp1290
aV32
p1291
aasI6
(lp1292
I13
a(lp1293
I10
ag15
(I255
I0
I0
I255
tp1294
Rp1295
aV4
p1296
ag15
(I0
I0
I0
I255
tp1297
Rp1298
aV32
p1299
ag15
(I0
I0
I255
I255
tp1300
Rp1301
aV4
p1302
ag15
(I0
I0
I0
I255
tp1303
Rp1304
aV32
p1305
ag15
(I0
I255
I0
I255
tp1306
Rp1307
aV4
p1308
ag15
(I0
I0
I0
I255
tp1309
Rp1310
aV32
p1311
ag15
(I0
I0
I255
I255
tp1312
Rp1313
aV4
p1314
ag15
(I0
I0
I0
I255
tp1315
Rp1316
aV32
p1317
ag15
(I0
I255
I0
I255
tp1318
Rp1319
aV4
p1320
ag15
(I0
I0
I0
I255
tp1321
Rp1322
aV32
p1323
aasI7
(lp1324
I-1
aNasI8
(lp1325
I13
a(lp1326
I10
ag15
(I255
I0
I0
I255
tp1327
Rp1328
aV1
p1329
ag15
(I0
I0
I0
I255
tp1330
Rp1331
aV1
p1332
ag15
(I0
I0
I255
I255
tp1333
Rp1334
aV1
p1335
ag15
(I0
I0
I0
I255
tp1336
Rp1337
aV1
p1338
ag15
(I0
I255
I0
I255
tp1339
Rp1340
aV1
p1341
ag15
(I0
I0
I0
I255
tp1342
Rp1343
aV1
p1344
ag15
(I0
I0
I255
I255
tp1345
Rp1346
aV1
p1347
ag15
(I0
I0
I0
I255
tp1348
Rp1349
aV1
p1350
ag15
(I0
I255
I0
I255
tp1351
Rp1352
aV1
p1353
ag15
(I0
I0
I0
I255
tp1354
Rp1355
aV1
p1356
aasI9
(lp1357
I13
a(lp1358
I10
ag15
(I255
I0
I0
I255
tp1359
Rp1360
aV1
p1361
ag15
(I0
I0
I0
I255
tp1362
Rp1363
aV1
p1364
ag15
(I0
I0
I255
I255
tp1365
Rp1366
aV1
p1367
ag15
(I0
I0
I0
I255
tp1368
Rp1369
aV1
p1370
ag15
(I0
I255
I0
I255
tp1371
Rp1372
aV1
p1373
ag15
(I0
I0
I0
I255
tp1374
Rp1375
aV1
p1376
ag15
(I0
I0
I255
I255
tp1377
Rp1378
aV1
p1379
ag15
(I0
I0
I0
I255
tp1380
Rp1381
aV1
p1382
ag15
(I0
I255
I0
I255
tp1383
Rp1384
aV1
p1385
ag15
(I0
I0
I0
I255
tp1386
Rp1387
aV1
p1388
aasI10
(lp1389
I13
a(lp1390
I10
ag15
(I255
I0
I0
I255
tp1391
Rp1392
aV1
p1393
ag15
(I0
I0
I0
I255
tp1394
Rp1395
aV1
p1396
ag15
(I0
I0
I255
I255
tp1397
Rp1398
aV1
p1399
ag15
(I0
I0
I0
I255
tp1400
Rp1401
aV1
p1402
ag15
(I0
I255
I0
I255
tp1403
Rp1404
aV1
p1405
ag15
(I0
I0
I0
I255
tp1406
Rp1407
aV1
p1408
ag15
(I0
I0
I255
I255
tp1409
Rp1410
aV1
p1411
ag15
(I0
I0
I0
I255
tp1412
Rp1413
aV1
p1414
ag15
(I0
I255
I0
I255
tp1415
Rp1416
aV1
p1417
ag15
(I0
I0
I0
I255
tp1418
Rp1419
aV1
p1420
aasI11
(lp1421
I13
a(lp1422
I10
ag15
(I255
I0
I0
I255
tp1423
Rp1424
aV1
p1425
ag15
(I0
I0
I0
I255
tp1426
Rp1427
aV1
p1428
ag15
(I0
I0
I255
I255
tp1429
Rp1430
aV1
p1431
ag15
(I0
I0
I0
I255
tp1432
Rp1433
aV1
p1434
ag15
(I0
I255
I0
I255
tp1435
Rp1436
aV1
p1437
ag15
(I0
I0
I0
I255
tp1438
Rp1439
aV1
p1440
ag15
(I0
I0
I255
I255
tp1441
Rp1442
aV1
p1443
ag15
(I0
I0
I0
I255
tp1444
Rp1445
aV1
p1446
ag15
(I0
I255
I0
I255
tp1447
Rp1448
aV1
p1449
ag15
(I0
I0
I0
I255
tp1450
Rp1451
aV1
p1452
aassg23
V00:01 750ms
p1453
sba(ieffectgroup
EffectGroup
p1454
(dp1455
g3
(dp1456
I0
(lp1457
I11
a(lp1458
I6
ag15
(I255
I255
I255
I255
tp1459
Rp1460
aV1
p1461
ag15
(I0
I0
I0
I255
tp1462
Rp1463
aV3
p1464
ag15
(I0
I0
I0
I255
tp1465
Rp1466
aV1
p1467
ag15
(I255
I0
I0
I255
tp1468
Rp1469
aV1
p1470
ag15
(I0
I0
I255
I255
tp1471
Rp1472
aV1
p1473
ag15
(I0
I0
I0
I255
tp1474
Rp1475
aV1
p1476
aasI1
(lp1477
I11
a(lp1478
I6
ag15
(I255
I255
I255
I255
tp1479
Rp1480
aV1
p1481
ag15
(I0
I0
I0
I255
tp1482
Rp1483
aV3
p1484
ag15
(I0
I0
I0
I255
tp1485
Rp1486
aV1
p1487
ag15
(I0
I0
I255
I255
tp1488
Rp1489
aV1
p1490
ag15
(I255
I0
I0
I255
tp1491
Rp1492
aV1
p1493
ag15
(I0
I0
I0
I255
tp1494
Rp1495
aV1
p1496
aasI2
(lp1497
I11
a(lp1498
I6
ag15
(I255
I255
I255
I255
tp1499
Rp1500
aV1
p1501
ag15
(I0
I0
I0
I255
tp1502
Rp1503
aV3
p1504
ag15
(I0
I0
I0
I255
tp1505
Rp1506
aV1
p1507
ag15
(I255
I0
I0
I255
tp1508
Rp1509
aV1
p1510
ag15
(I0
I0
I255
I255
tp1511
Rp1512
aV1
p1513
ag15
(I0
I0
I0
I255
tp1514
Rp1515
aV1
p1516
aasI3
(lp1517
I11
a(lp1518
I6
ag15
(I255
I255
I255
I255
tp1519
Rp1520
aV1
p1521
ag15
(I0
I0
I0
I255
tp1522
Rp1523
aV3
p1524
ag15
(I0
I0
I0
I255
tp1525
Rp1526
aV1
p1527
ag15
(I0
I0
I255
I255
tp1528
Rp1529
aV1
p1530
ag15
(I255
I0
I0
I255
tp1531
Rp1532
aV1
p1533
ag15
(I0
I0
I0
I255
tp1534
Rp1535
aV1
p1536
aasI4
(lp1537
I10
a(lp1538
I4
ag15
(I255
I0
I0
I255
tp1539
Rp1540
aV32
p1541
ag15
(I0
I0
I0
I255
tp1542
Rp1543
aV64
p1544
ag15
(I0
I0
I255
I255
tp1545
Rp1546
aV32
p1547
ag15
(I0
I0
I0
I255
tp1548
Rp1549
aV64
p1550
aasI5
(lp1551
I-1
a(lp1552
asI6
(lp1553
I-1
a(lp1554
asI7
(lp1555
I10
a(lp1556
I4
ag15
(I0
I0
I255
I255
tp1557
Rp1558
aV32
p1559
ag15
(I0
I0
I0
I255
tp1560
Rp1561
aV64
p1562
ag15
(I255
I0
I0
I255
tp1563
Rp1564
aV32
p1565
ag15
(I0
I0
I0
I255
tp1566
Rp1567
aV64
p1568
aasI8
(lp1569
I11
a(lp1570
I6
ag15
(I255
I255
I255
I255
tp1571
Rp1572
aV1
p1573
ag15
(I0
I0
I0
I255
tp1574
Rp1575
aV8
p1576
ag15
(I0
I0
I0
I255
tp1577
Rp1578
aV1
p1579
ag15
(I0
I0
I255
I255
tp1580
Rp1581
aV1
p1582
ag15
(I255
I0
I0
I255
tp1583
Rp1584
aV1
p1585
ag15
(I0
I0
I0
I255
tp1586
Rp1587
aV1
p1588
aasI9
(lp1589
I11
a(lp1590
I6
ag15
(I255
I255
I255
I255
tp1591
Rp1592
aV1
p1593
ag15
(I0
I0
I0
I255
tp1594
Rp1595
aV8
p1596
ag15
(I0
I0
I0
I255
tp1597
Rp1598
aV1
p1599
ag15
(I255
I0
I0
I255
tp1600
Rp1601
aV1
p1602
ag15
(I0
I0
I255
I255
tp1603
Rp1604
aV1
p1605
ag15
(I0
I0
I0
I255
tp1606
Rp1607
aV1
p1608
aasI10
(lp1609
I11
a(lp1610
I6
ag15
(I255
I255
I255
I255
tp1611
Rp1612
aV1
p1613
ag15
(I0
I0
I0
I255
tp1614
Rp1615
aV8
p1616
ag15
(I0
I0
I0
I255
tp1617
Rp1618
aV1
p1619
ag15
(I0
I0
I255
I255
tp1620
Rp1621
aV1
p1622
ag15
(I255
I0
I0
I255
tp1623
Rp1624
aV1
p1625
ag15
(I0
I0
I0
I255
tp1626
Rp1627
aV1
p1628
aasI11
(lp1629
I11
a(lp1630
I6
ag15
(I255
I255
I255
I255
tp1631
Rp1632
aV1
p1633
ag15
(I0
I0
I0
I255
tp1634
Rp1635
aV8
p1636
ag15
(I0
I0
I0
I255
tp1637
Rp1638
aV1
p1639
ag15
(I255
I0
I0
I255
tp1640
Rp1641
aV1
p1642
ag15
(I0
I0
I255
I255
tp1643
Rp1644
aV1
p1645
ag15
(I0
I0
I0
I255
tp1646
Rp1647
aV1
p1648
aassg23
V00:01 800ms
p1649
sba(ieffectgroup
EffectGroup
p1650
(dp1651
g3
(dp1652
I0
(lp1653
I11
a(lp1654
I6
ag15
(I128
I0
I255
I255
tp1655
Rp1656
aV1
p1657
ag15
(I0
I0
I0
I255
tp1658
Rp1659
aV4
p1660
ag15
(I0
I0
I255
I255
tp1661
Rp1662
aV1
p1663
ag15
(I0
I0
I0
I255
tp1664
Rp1665
aV4
p1666
ag15
(I0
I255
I0
I255
tp1667
Rp1668
aV1
p1669
ag15
(I0
I0
I0
I255
tp1670
Rp1671
aV4
p1672
aasI1
(lp1673
I11
a(lp1674
I6
ag15
(I128
I0
I255
I255
tp1675
Rp1676
aV1
p1677
ag15
(I0
I0
I0
I255
tp1678
Rp1679
aV4
p1680
ag15
(I0
I0
I255
I255
tp1681
Rp1682
aV1
p1683
ag15
(I0
I0
I0
I255
tp1684
Rp1685
aV4
p1686
ag15
(I0
I255
I0
I255
tp1687
Rp1688
aV1
p1689
ag15
(I0
I0
I0
I255
tp1690
Rp1691
aV4
p1692
aasI2
(lp1693
I11
a(lp1694
I6
ag15
(I128
I0
I255
I255
tp1695
Rp1696
aV1
p1697
ag15
(I0
I0
I0
I255
tp1698
Rp1699
aV4
p1700
ag15
(I0
I0
I255
I255
tp1701
Rp1702
aV1
p1703
ag15
(I0
I0
I0
I255
tp1704
Rp1705
aV4
p1706
ag15
(I0
I255
I0
I255
tp1707
Rp1708
aV1
p1709
ag15
(I0
I0
I0
I255
tp1710
Rp1711
aV4
p1712
aasI3
(lp1713
I11
a(lp1714
I6
ag15
(I128
I0
I255
I255
tp1715
Rp1716
aV1
p1717
ag15
(I0
I0
I1
I255
tp1718
Rp1719
aV4
p1720
ag15
(I0
I0
I255
I255
tp1721
Rp1722
aV1
p1723
ag15
(I0
I0
I1
I255
tp1724
Rp1725
aV4
p1726
ag15
(I0
I255
I0
I255
tp1727
Rp1728
aV1
p1729
ag15
(I0
I0
I1
I255
tp1730
Rp1731
aV4
p1732
aasI4
(lp1733
I3
a(lp1734
g15
(I128
I0
I255
I255
tp1735
Rp1736
aV1
p1737
aV64
p1738
aasI5
(lp1739
I-1
aNasI6
(lp1740
I-1
aNasI7
(lp1741
I3
a(lp1742
g15
(I128
I0
I255
I255
tp1743
Rp1744
aV1
p1745
aV64
p1746
aasI8
(lp1747
I11
a(lp1748
I6
ag15
(I128
I0
I255
I255
tp1749
Rp1750
aV1
p1751
ag15
(I0
I0
I1
I255
tp1752
Rp1753
aV4
p1754
ag15
(I0
I0
I255
I255
tp1755
Rp1756
aV1
p1757
ag15
(I0
I0
I1
I255
tp1758
Rp1759
aV4
p1760
ag15
(I0
I255
I0
I255
tp1761
Rp1762
aV1
p1763
ag15
(I0
I0
I1
I255
tp1764
Rp1765
aV4
p1766
aasI9
(lp1767
I11
a(lp1768
I6
ag15
(I128
I0
I255
I255
tp1769
Rp1770
aV1
p1771
ag15
(I0
I0
I0
I255
tp1772
Rp1773
aV4
p1774
ag15
(I0
I0
I255
I255
tp1775
Rp1776
aV1
p1777
ag15
(I0
I0
I0
I255
tp1778
Rp1779
aV4
p1780
ag15
(I0
I255
I0
I255
tp1781
Rp1782
aV1
p1783
ag15
(I0
I0
I0
I255
tp1784
Rp1785
aV4
p1786
aasI10
(lp1787
I11
a(lp1788
I6
ag15
(I128
I0
I255
I255
tp1789
Rp1790
aV1
p1791
ag15
(I0
I0
I0
I255
tp1792
Rp1793
aV4
p1794
ag15
(I0
I0
I255
I255
tp1795
Rp1796
aV1
p1797
ag15
(I0
I0
I0
I255
tp1798
Rp1799
aV4
p1800
ag15
(I0
I255
I0
I255
tp1801
Rp1802
aV1
p1803
ag15
(I0
I0
I0
I255
tp1804
Rp1805
aV4
p1806
aasI11
(lp1807
I11
a(lp1808
I6
ag15
(I128
I0
I255
I255
tp1809
Rp1810
aV1
p1811
ag15
(I0
I0
I0
I255
tp1812
Rp1813
aV4
p1814
ag15
(I0
I0
I255
I255
tp1815
Rp1816
aV1
p1817
ag15
(I0
I0
I0
I255
tp1818
Rp1819
aV4
p1820
ag15
(I0
I255
I0
I255
tp1821
Rp1822
aV1
p1823
ag15
(I0
I0
I0
I255
tp1824
Rp1825
aV4
p1826
aassg23
V00:01 900ms
p1827
sba(ieffectgroup
EffectGroup
p1828
(dp1829
g3
(dp1830
I0
(lp1831
I3
a(lp1832
g15
(I64
I0
I128
I255
tp1833
Rp1834
aV1
p1835
aV4
p1836
aasI1
(lp1837
I8
a(lp1838
I2
ag15
(I64
I0
I128
I255
tp1839
Rp1840
aV1
p1841
ag15
(I0
I0
I0
I255
tp1842
Rp1843
aV8
p1844
aasI2
(lp1845
I9
a(lp1846
I3
ag15
(I64
I0
I128
I255
tp1847
Rp1848
aV4
p1849
ag15
(I100
I20
I0
I255
tp1850
Rp1851
aV4
p1852
ag15
(I2
I0
I1
I255
tp1853
Rp1854
aV24
p1855
aasI3
(lp1856
I8
a(lp1857
I2
ag15
(I64
I0
I128
I255
tp1858
Rp1859
aV25
p1860
ag15
(I100
I20
I0
I255
tp1861
Rp1862
aV25
p1863
aasI4
(lp1864
I-1
a(lp1865
asI5
(lp1866
I9
a(lp1867
I3
ag15
(I100
I0
I0
I255
tp1868
Rp1869
aV3
p1870
ag15
(I255
I60
I0
I255
tp1871
Rp1872
aV3
p1873
ag15
(I0
I0
I0
I255
tp1874
Rp1875
aV35
p1876
aasI6
(lp1877
I9
a(lp1878
I3
ag15
(I100
I0
I0
I255
tp1879
Rp1880
aV3
p1881
ag15
(I255
I60
I0
I255
tp1882
Rp1883
aV3
p1884
ag15
(I0
I0
I0
I255
tp1885
Rp1886
aV35
p1887
aasI7
(lp1888
I-1
aNasI8
(lp1889
I8
a(lp1890
I2
ag15
(I64
I0
I128
I255
tp1891
Rp1892
aV25
p1893
ag15
(I100
I20
I0
I255
tp1894
Rp1895
aV25
p1896
aasI9
(lp1897
I9
a(lp1898
I3
ag15
(I64
I0
I128
I255
tp1899
Rp1900
aV4
p1901
ag15
(I100
I20
I0
I255
tp1902
Rp1903
aV4
p1904
ag15
(I2
I0
I1
I255
tp1905
Rp1906
aV24
p1907
aasI10
(lp1908
I8
a(lp1909
I2
ag15
(I64
I0
I128
I255
tp1910
Rp1911
aV1
p1912
ag15
(I0
I0
I0
I255
tp1913
Rp1914
aV8
p1915
aasI11
(lp1916
I3
a(lp1917
g15
(I64
I0
I128
I255
tp1918
Rp1919
aV1
p1920
aV4
p1921
aassg23
V00:04 000ms
p1922
sba(ieffectgroup
EffectGroup
p1923
(dp1924
g3
(dp1925
I0
(lp1926
I9
a(lp1927
I3
ag15
(I200
I20
I0
I255
tp1928
Rp1929
aV4
p1930
ag15
(I0
I1
I1
I255
tp1931
Rp1932
aV32
p1933
ag15
(I0
I0
I0
I255
tp1934
Rp1935
aV4
p1936
aasI1
(lp1937
I3
a(lp1938
g15
(I0
I255
I255
I255
tp1939
Rp1940
aV1
p1941
aV12
p1942
aasI2
(lp1943
I3
a(lp1944
g15
(I0
I255
I255
I255
tp1945
Rp1946
aV1
p1947
aV12
p1948
aasI3
(lp1949
I8
a(lp1950
I2
ag15
(I200
I40
I0
I255
tp1951
Rp1952
aV1
p1953
ag15
(I0
I1
I1
I255
tp1954
Rp1955
aV16
p1956
aasI4
(lp1957
I3
a(lp1958
g15
(I0
I255
I255
I255
tp1959
Rp1960
aV1
p1961
aV24
p1962
aasI5
(lp1963
I-1
a(lp1964
asI6
(lp1965
I-1
a(lp1966
asI7
(lp1967
I3
a(lp1968
g15
(I0
I255
I255
I255
tp1969
Rp1970
aV1
p1971
aV24
p1972
aasI8
(lp1973
I8
a(lp1974
I2
ag15
(I200
I40
I0
I255
tp1975
Rp1976
aV1
p1977
ag15
(I0
I1
I1
I255
tp1978
Rp1979
aV16
p1980
aasI9
(lp1981
I3
a(lp1982
g15
(I0
I255
I255
I255
tp1983
Rp1984
aV1
p1985
aV12
p1986
aasI10
(lp1987
I3
a(lp1988
g15
(I0
I255
I255
I255
tp1989
Rp1990
aV1
p1991
aV12
p1992
aasI11
(lp1993
I9
a(lp1994
I3
ag15
(I200
I40
I0
I255
tp1995
Rp1996
aV4
p1997
ag15
(I0
I1
I1
I255
tp1998
Rp1999
aV32
p2000
ag15
(I0
I0
I0
I255
tp2001
Rp2002
aV4
p2003
aassg23
V00:05 100ms
p2004
sba(ieffectgroup
EffectGroup
p2005
(dp2006
g3
(dp2007
I0
(lp2008
I10
a(lp2009
I4
ag15
(I0
I255
I255
I255
tp2010
Rp2011
aV1
p2012
ag15
(I0
I0
I0
I255
tp2013
Rp2014
aV4
p2015
ag15
(I0
I255
I255
I255
tp2016
Rp2017
aV1
p2018
ag15
(I0
I0
I0
I255
tp2019
Rp2020
aV16
p2021
aasI1
(lp2022
I8
a(lp2023
I2
ag15
(I0
I255
I255
I255
tp2024
Rp2025
aV4
p2026
ag15
(I0
I1
I1
I255
tp2027
Rp2028
aV32
p2029
aasI2
(lp2030
I3
a(lp2031
g15
(I0
I255
I255
I255
tp2032
Rp2033
aV1
p2034
aV16
p2035
aasI3
(lp2036
I10
a(lp2037
I4
ag15
(I0
I255
I255
I255
tp2038
Rp2039
aV1
p2040
ag15
(I0
I0
I0
I255
tp2041
Rp2042
aV4
p2043
ag15
(I0
I0
I255
I255
tp2044
Rp2045
aV1
p2046
ag15
(I0
I0
I0
I255
tp2047
Rp2048
aV16
p2049
aasI4
(lp2050
I-1
aNasI5
(lp2051
I8
a(lp2052
I2
ag15
(I0
I255
I255
I255
tp2053
Rp2054
aV32
p2055
ag15
(I0
I0
I0
I255
tp2056
Rp2057
aV32
p2058
aasI6
(lp2059
I8
a(lp2060
I2
ag15
(I0
I0
I255
I255
tp2061
Rp2062
aV32
p2063
ag15
(I0
I0
I0
I255
tp2064
Rp2065
aV32
p2066
aasI7
(lp2067
I-1
a(lp2068
asI8
(lp2069
I10
a(lp2070
I4
ag15
(I0
I255
I255
I255
tp2071
Rp2072
aV1
p2073
ag15
(I0
I0
I0
I255
tp2074
Rp2075
aV4
p2076
ag15
(I0
I0
I255
I255
tp2077
Rp2078
aV1
p2079
ag15
(I0
I0
I0
I255
tp2080
Rp2081
aV16
p2082
aasI9
(lp2083
I3
a(lp2084
g15
(I0
I0
I255
I255
tp2085
Rp2086
aV1
p2087
aV16
p2088
aasI10
(lp2089
I8
a(lp2090
I2
ag15
(I0
I0
I255
I255
tp2091
Rp2092
aV4
p2093
ag15
(I0
I0
I1
I255
tp2094
Rp2095
aV32
p2096
aasI11
(lp2097
I10
a(lp2098
I4
ag15
(I0
I0
I255
I255
tp2099
Rp2100
aV1
p2101
ag15
(I0
I0
I0
I255
tp2102
Rp2103
aV4
p2104
ag15
(I0
I0
I255
I255
tp2105
Rp2106
aV1
p2107
ag15
(I0
I0
I0
I255
tp2108
Rp2109
aV16
p2110
aassg23
V00:05 300ms
p2111
sba(ieffectgroup
EffectGroup
p2112
(dp2113
g3
(dp2114
I0
(lp2115
I10
a(lp2116
I4
ag15
(I0
I255
I255
I255
tp2117
Rp2118
aV1
p2119
ag15
(I0
I0
I0
I255
tp2120
Rp2121
aV4
p2122
ag15
(I0
I255
I255
I255
tp2123
Rp2124
aV1
p2125
ag15
(I0
I0
I0
I255
tp2126
Rp2127
aV16
p2128
aasI1
(lp2129
I8
a(lp2130
I2
ag15
(I0
I255
I255
I255
tp2131
Rp2132
aV4
p2133
ag15
(I0
I1
I1
I255
tp2134
Rp2135
aV32
p2136
aasI2
(lp2137
I3
a(lp2138
g15
(I0
I255
I255
I255
tp2139
Rp2140
aV1
p2141
aV16
p2142
aasI3
(lp2143
I10
a(lp2144
I4
ag15
(I0
I255
I255
I255
tp2145
Rp2146
aV1
p2147
ag15
(I0
I0
I0
I255
tp2148
Rp2149
aV4
p2150
ag15
(I255
I255
I0
I255
tp2151
Rp2152
aV1
p2153
ag15
(I0
I0
I0
I255
tp2154
Rp2155
aV16
p2156
aasI4
(lp2157
I-1
aNasI5
(lp2158
I8
a(lp2159
I2
ag15
(I0
I255
I255
I255
tp2160
Rp2161
aV32
p2162
ag15
(I0
I0
I0
I255
tp2163
Rp2164
aV32
p2165
aasI6
(lp2166
I8
a(lp2167
I2
ag15
(I255
I255
I0
I255
tp2168
Rp2169
aV32
p2170
ag15
(I0
I0
I0
I255
tp2171
Rp2172
aV32
p2173
aasI7
(lp2174
I-1
aNasI8
(lp2175
I10
a(lp2176
I4
ag15
(I0
I255
I255
I255
tp2177
Rp2178
aV1
p2179
ag15
(I0
I0
I0
I255
tp2180
Rp2181
aV4
p2182
ag15
(I255
I255
I0
I255
tp2183
Rp2184
aV1
p2185
ag15
(I0
I0
I0
I255
tp2186
Rp2187
aV16
p2188
aasI9
(lp2189
I3
a(lp2190
g15
(I255
I255
I0
I255
tp2191
Rp2192
aV1
p2193
aV16
p2194
aasI10
(lp2195
I8
a(lp2196
I2
ag15
(I255
I255
I0
I255
tp2197
Rp2198
aV4
p2199
ag15
(I1
I1
I0
I255
tp2200
Rp2201
aV32
p2202
aasI11
(lp2203
I10
a(lp2204
I4
ag15
(I255
I255
I0
I255
tp2205
Rp2206
aV1
p2207
ag15
(I0
I0
I0
I255
tp2208
Rp2209
aV4
p2210
ag15
(I255
I255
I0
I255
tp2211
Rp2212
aV1
p2213
ag15
(I0
I0
I0
I255
tp2214
Rp2215
aV16
p2216
aassg23
V00:05 400ms
p2217
sba(ieffectgroup
EffectGroup
p2218
(dp2219
g3
(dp2220
I0
(lp2221
I10
a(lp2222
I4
ag15
(I255
I0
I128
I255
tp2223
Rp2224
aV1
p2225
ag15
(I0
I0
I0
I255
tp2226
Rp2227
aV4
p2228
ag15
(I255
I0
I128
I255
tp2229
Rp2230
aV1
p2231
ag15
(I0
I0
I0
I255
tp2232
Rp2233
aV16
p2234
aasI1
(lp2235
I8
a(lp2236
I2
ag15
(I255
I0
I128
I255
tp2237
Rp2238
aV4
p2239
ag15
(I2
I0
I1
I255
tp2240
Rp2241
aV32
p2242
aasI2
(lp2243
I3
a(lp2244
g15
(I255
I0
I128
I255
tp2245
Rp2246
aV1
p2247
aV16
p2248
aasI3
(lp2249
I10
a(lp2250
I4
ag15
(I255
I0
I128
I255
tp2251
Rp2252
aV1
p2253
ag15
(I0
I0
I0
I255
tp2254
Rp2255
aV4
p2256
ag15
(I255
I255
I0
I255
tp2257
Rp2258
aV1
p2259
ag15
(I0
I0
I0
I255
tp2260
Rp2261
aV16
p2262
aasI4
(lp2263
I-1
a(lp2264
asI5
(lp2265
I8
a(lp2266
I2
ag15
(I255
I0
I128
I255
tp2267
Rp2268
aV32
p2269
ag15
(I0
I0
I0
I255
tp2270
Rp2271
aV32
p2272
aasI6
(lp2273
I8
a(lp2274
I2
ag15
(I255
I255
I0
I255
tp2275
Rp2276
aV32
p2277
ag15
(I0
I0
I0
I255
tp2278
Rp2279
aV32
p2280
aasI7
(lp2281
I-1
aNasI8
(lp2282
I10
a(lp2283
I4
ag15
(I255
I0
I128
I255
tp2284
Rp2285
aV1
p2286
ag15
(I0
I0
I0
I255
tp2287
Rp2288
aV4
p2289
ag15
(I255
I255
I0
I255
tp2290
Rp2291
aV1
p2292
ag15
(I0
I0
I0
I255
tp2293
Rp2294
aV16
p2295
aasI9
(lp2296
I3
a(lp2297
g15
(I255
I255
I0
I255
tp2298
Rp2299
aV1
p2300
aV16
p2301
aasI10
(lp2302
I8
a(lp2303
I2
ag15
(I255
I255
I0
I255
tp2304
Rp2305
aV4
p2306
ag15
(I1
I1
I0
I255
tp2307
Rp2308
aV32
p2309
aasI11
(lp2310
I10
a(lp2311
I4
ag15
(I255
I255
I0
I255
tp2312
Rp2313
aV1
p2314
ag15
(I0
I0
I0
I255
tp2315
Rp2316
aV4
p2317
ag15
(I255
I255
I0
I255
tp2318
Rp2319
aV1
p2320
ag15
(I0
I0
I0
I255
tp2321
Rp2322
aV16
p2323
aassg23
V00:05 500ms
p2324
sba(ieffectgroup
EffectGroup
p2325
(dp2326
g3
(dp2327
I0
(lp2328
I10
a(lp2329
I4
ag15
(I255
I0
I128
I255
tp2330
Rp2331
aV1
p2332
ag15
(I0
I0
I0
I255
tp2333
Rp2334
aV4
p2335
ag15
(I255
I0
I128
I255
tp2336
Rp2337
aV1
p2338
ag15
(I0
I0
I0
I255
tp2339
Rp2340
aV16
p2341
aasI1
(lp2342
I8
a(lp2343
I2
ag15
(I255
I0
I128
I255
tp2344
Rp2345
aV4
p2346
ag15
(I2
I0
I1
I255
tp2347
Rp2348
aV32
p2349
aasI2
(lp2350
I3
a(lp2351
g15
(I255
I0
I128
I255
tp2352
Rp2353
aV1
p2354
aV16
p2355
aasI3
(lp2356
I10
a(lp2357
I4
ag15
(I255
I0
I0
I255
tp2358
Rp2359
aV1
p2360
ag15
(I0
I0
I0
I255
tp2361
Rp2362
aV4
p2363
ag15
(I255
I0
I128
I255
tp2364
Rp2365
aV1
p2366
ag15
(I0
I0
I0
I255
tp2367
Rp2368
aV16
p2369
aasI4
(lp2370
I-1
aNasI5
(lp2371
I8
a(lp2372
I2
ag15
(I255
I0
I128
I255
tp2373
Rp2374
aV32
p2375
ag15
(I0
I0
I0
I255
tp2376
Rp2377
aV32
p2378
aasI6
(lp2379
I8
a(lp2380
I2
ag15
(I255
I0
I0
I255
tp2381
Rp2382
aV32
p2383
ag15
(I0
I0
I0
I255
tp2384
Rp2385
aV32
p2386
aasI7
(lp2387
I-1
aNasI8
(lp2388
I10
a(lp2389
I4
ag15
(I255
I0
I0
I255
tp2390
Rp2391
aV1
p2392
ag15
(I0
I0
I0
I255
tp2393
Rp2394
aV4
p2395
ag15
(I255
I0
I128
I255
tp2396
Rp2397
aV1
p2398
ag15
(I0
I0
I0
I255
tp2399
Rp2400
aV16
p2401
aasI9
(lp2402
I3
a(lp2403
g15
(I255
I0
I0
I255
tp2404
Rp2405
aV1
p2406
aV16
p2407
aasI10
(lp2408
I8
a(lp2409
I2
ag15
(I255
I0
I0
I255
tp2410
Rp2411
aV4
p2412
ag15
(I1
I0
I0
I255
tp2413
Rp2414
aV32
p2415
aasI11
(lp2416
I10
a(lp2417
I4
ag15
(I255
I0
I0
I255
tp2418
Rp2419
aV1
p2420
ag15
(I0
I0
I0
I255
tp2421
Rp2422
aV4
p2423
ag15
(I255
I0
I0
I255
tp2424
Rp2425
aV1
p2426
ag15
(I0
I0
I0
I255
tp2427
Rp2428
aV16
p2429
aassg23
V00:05 600ms
p2430
sba(ieffectgroup
EffectGroup
p2431
(dp2432
g3
(dp2433
I0
(lp2434
I8
a(lp2435
I2
ag15
(I0
I128
I128
I255
tp2436
Rp2437
aV1
p2438
ag15
(I0
I0
I0
I255
tp2439
Rp2440
aV8
p2441
aasI1
(lp2442
I8
a(lp2443
I2
ag15
(I0
I128
I128
I255
tp2444
Rp2445
aV1
p2446
ag15
(I0
I0
I0
I255
tp2447
Rp2448
aV8
p2449
aasI2
(lp2450
I8
a(lp2451
I2
ag15
(I0
I128
I128
I255
tp2452
Rp2453
aV1
p2454
ag15
(I0
I0
I0
I255
tp2455
Rp2456
aV8
p2457
aasI3
(lp2458
I10
a(lp2459
I4
ag15
(I0
I128
I30
I255
tp2460
Rp2461
aV8
p2462
ag15
(I0
I0
I255
I255
tp2463
Rp2464
aV8
p2465
ag15
(I255
I255
I255
I255
tp2466
Rp2467
aV2
p2468
ag15
(I0
I0
I0
I255
tp2469
Rp2470
aV24
p2471
aasI4
(lp2472
I-1
aNasI5
(lp2473
I-1
a(lp2474
asI6
(lp2475
I-1
aNasI7
(lp2476
I-1
a(lp2477
asI8
(lp2478
I10
a(lp2479
I4
ag15
(I0
I128
I30
I255
tp2480
Rp2481
aV8
p2482
ag15
(I0
I0
I255
I255
tp2483
Rp2484
aV8
p2485
ag15
(I255
I255
I255
I255
tp2486
Rp2487
aV2
p2488
ag15
(I0
I0
I0
I255
tp2489
Rp2490
aV24
p2491
aasI9
(lp2492
I8
a(lp2493
I2
ag15
(I0
I128
I128
I255
tp2494
Rp2495
aV1
p2496
ag15
(I0
I0
I0
I255
tp2497
Rp2498
aV8
p2499
aasI10
(lp2500
I8
a(lp2501
I2
ag15
(I0
I128
I128
I255
tp2502
Rp2503
aV1
p2504
ag15
(I0
I0
I0
I255
tp2505
Rp2506
aV8
p2507
aasI11
(lp2508
I8
a(lp2509
I2
ag15
(I0
I128
I128
I255
tp2510
Rp2511
aV1
p2512
ag15
(I0
I0
I0
I255
tp2513
Rp2514
aV8
p2515
aassg23
V00:06 000ms
p2516
sba(ieffectgroup
EffectGroup
p2517
(dp2518
g3
(dp2519
I0
(lp2520
I8
a(lp2521
I2
ag15
(I0
I128
I128
I255
tp2522
Rp2523
aV1
p2524
ag15
(I0
I0
I0
I255
tp2525
Rp2526
aV8
p2527
aasI1
(lp2528
I8
a(lp2529
I2
ag15
(I0
I128
I128
I255
tp2530
Rp2531
aV1
p2532
ag15
(I0
I0
I0
I255
tp2533
Rp2534
aV8
p2535
aasI2
(lp2536
I8
a(lp2537
I2
ag15
(I0
I128
I128
I255
tp2538
Rp2539
aV1
p2540
ag15
(I0
I0
I0
I255
tp2541
Rp2542
aV8
p2543
aasI3
(lp2544
I8
a(lp2545
I2
ag15
(I0
I128
I128
I255
tp2546
Rp2547
aV1
p2548
ag15
(I0
I0
I0
I255
tp2549
Rp2550
aV8
p2551
aasI4
(lp2552
I-1
a(lp2553
asI5
(lp2554
I10
a(lp2555
I4
ag15
(I0
I128
I30
I255
tp2556
Rp2557
aV8
p2558
ag15
(I0
I0
I0
I255
tp2559
Rp2560
aV32
p2561
ag15
(I0
I0
I255
I255
tp2562
Rp2563
aV8
p2564
ag15
(I0
I0
I0
I255
tp2565
Rp2566
aV32
p2567
aasI6
(lp2568
I10
a(lp2569
I4
ag15
(I0
I128
I30
I255
tp2570
Rp2571
aV8
p2572
ag15
(I0
I0
I0
I255
tp2573
Rp2574
aV32
p2575
ag15
(I0
I0
I255
I255
tp2576
Rp2577
aV8
p2578
ag15
(I0
I0
I0
I255
tp2579
Rp2580
aV32
p2581
aasI7
(lp2582
I-1
aNasI8
(lp2583
I8
a(lp2584
I2
ag15
(I0
I128
I128
I255
tp2585
Rp2586
aV1
p2587
ag15
(I0
I0
I0
I255
tp2588
Rp2589
aV8
p2590
aasI9
(lp2591
I8
a(lp2592
I2
ag15
(I0
I128
I128
I255
tp2593
Rp2594
aV1
p2595
ag15
(I0
I0
I0
I255
tp2596
Rp2597
aV8
p2598
aasI10
(lp2599
I8
a(lp2600
I2
ag15
(I0
I128
I128
I255
tp2601
Rp2602
aV1
p2603
ag15
(I0
I0
I0
I255
tp2604
Rp2605
aV8
p2606
aasI11
(lp2607
I8
a(lp2608
I2
ag15
(I0
I128
I128
I255
tp2609
Rp2610
aV1
p2611
ag15
(I0
I0
I0
I255
tp2612
Rp2613
aV8
p2614
aassg23
V00:07 000ms
p2615
sba(ieffectgroup
EffectGroup
p2616
(dp2617
g3
(dp2618
I0
(lp2619
I8
a(lp2620
I2
ag15
(I0
I0
I255
I255
tp2621
Rp2622
aV2
p2623
ag15
(I0
I0
I0
I255
tp2624
Rp2625
aV16
p2626
aasI1
(lp2627
I10
a(lp2628
I4
ag15
(I0
I0
I255
I255
tp2629
Rp2630
aV1
p2631
ag15
(I0
I0
I0
I255
tp2632
Rp2633
aV24
p2634
ag15
(I0
I128
I30
I255
tp2635
Rp2636
aV1
p2637
ag15
(I0
I0
I0
I255
tp2638
Rp2639
aV8
p2640
aasI2
(lp2641
I8
a(lp2642
I2
ag15
(I0
I0
I255
I255
tp2643
Rp2644
aV2
p2645
ag15
(I0
I0
I0
I255
tp2646
Rp2647
aV16
p2648
aasI3
(lp2649
I10
a(lp2650
I4
ag15
(I0
I0
I255
I255
tp2651
Rp2652
aV1
p2653
ag15
(I0
I0
I0
I255
tp2654
Rp2655
aV8
p2656
ag15
(I0
I128
I30
I255
tp2657
Rp2658
aV1
p2659
ag15
(I0
I0
I0
I255
tp2660
Rp2661
aV8
p2662
aasI4
(lp2663
I-1
aNasI5
(lp2664
I8
a(lp2665
I2
ag15
(I0
I128
I128
I255
tp2666
Rp2667
aV8
p2668
ag15
(I0
I0
I0
I255
tp2669
Rp2670
aV32
p2671
aasI6
(lp2672
I8
a(lp2673
I2
ag15
(I0
I128
I128
I255
tp2674
Rp2675
aV8
p2676
ag15
(I0
I0
I0
I255
tp2677
Rp2678
aV32
p2679
aasI7
(lp2680
I-1
aNasI8
(lp2681
I10
a(lp2682
I4
ag15
(I0
I0
I255
I255
tp2683
Rp2684
aV1
p2685
ag15
(I0
I0
I0
I255
tp2686
Rp2687
aV8
p2688
ag15
(I0
I128
I30
I255
tp2689
Rp2690
aV1
p2691
ag15
(I0
I0
I0
I255
tp2692
Rp2693
aV8
p2694
aasI9
(lp2695
I8
a(lp2696
I2
ag15
(I0
I0
I255
I255
tp2697
Rp2698
aV2
p2699
ag15
(I0
I0
I0
I255
tp2700
Rp2701
aV16
p2702
aasI10
(lp2703
I10
a(lp2704
I4
ag15
(I0
I0
I255
I255
tp2705
Rp2706
aV1
p2707
ag15
(I0
I0
I0
I255
tp2708
Rp2709
aV24
p2710
ag15
(I0
I128
I30
I255
tp2711
Rp2712
aV1
p2713
ag15
(I0
I0
I0
I255
tp2714
Rp2715
aV8
p2716
aasI11
(lp2717
I8
a(lp2718
I2
ag15
(I0
I0
I255
I255
tp2719
Rp2720
aV2
p2721
ag15
(I0
I0
I0
I255
tp2722
Rp2723
aV16
p2724
aassg23
V00:08 000ms
p2725
sba(ieffectgroup
EffectGroup
p2726
(dp2727
g3
(dp2728
I0
(lp2729
I8
a(lp2730
I2
ag15
(I0
I0
I255
I255
tp2731
Rp2732
aV1
p2733
ag15
(I0
I0
I0
I255
tp2734
Rp2735
aV8
p2736
aasI1
(lp2737
I10
a(lp2738
I4
ag15
(I0
I0
I255
I255
tp2739
Rp2740
aV1
p2741
ag15
(I0
I0
I0
I255
tp2742
Rp2743
aV8
p2744
ag15
(I0
I128
I30
I255
tp2745
Rp2746
aV1
p2747
ag15
(I0
I0
I0
I255
tp2748
Rp2749
aV8
p2750
aasI2
(lp2751
I8
a(lp2752
I2
ag15
(I0
I0
I255
I255
tp2753
Rp2754
aV1
p2755
ag15
(I0
I0
I0
I255
tp2756
Rp2757
aV8
p2758
aasI3
(lp2759
I10
a(lp2760
I4
ag15
(I0
I0
I255
I255
tp2761
Rp2762
aV1
p2763
ag15
(I0
I0
I0
I255
tp2764
Rp2765
aV8
p2766
ag15
(I0
I128
I30
I255
tp2767
Rp2768
aV1
p2769
ag15
(I0
I0
I0
I255
tp2770
Rp2771
aV8
p2772
aasI4
(lp2773
I-1
aNasI5
(lp2774
I-1
aNasI6
(lp2775
I-1
aNasI7
(lp2776
I-1
aNasI8
(lp2777
I10
a(lp2778
I4
ag15
(I0
I0
I255
I255
tp2779
Rp2780
aV1
p2781
ag15
(I0
I0
I0
I255
tp2782
Rp2783
aV8
p2784
ag15
(I0
I128
I30
I255
tp2785
Rp2786
aV1
p2787
ag15
(I0
I0
I0
I255
tp2788
Rp2789
aV8
p2790
aasI9
(lp2791
I8
a(lp2792
I2
ag15
(I0
I0
I255
I255
tp2793
Rp2794
aV1
p2795
ag15
(I0
I0
I0
I255
tp2796
Rp2797
aV8
p2798
aasI10
(lp2799
I10
a(lp2800
I4
ag15
(I0
I0
I255
I255
tp2801
Rp2802
aV1
p2803
ag15
(I0
I0
I0
I255
tp2804
Rp2805
aV8
p2806
ag15
(I0
I128
I30
I255
tp2807
Rp2808
aV1
p2809
ag15
(I0
I0
I0
I255
tp2810
Rp2811
aV8
p2812
aasI11
(lp2813
I8
a(lp2814
I2
ag15
(I0
I0
I255
I255
tp2815
Rp2816
aV1
p2817
ag15
(I0
I0
I0
I255
tp2818
Rp2819
aV8
p2820
aassg23
V00:09 000ms
p2821
sba(ieffectgroup
EffectGroup
p2822
(dp2823
g3
(dp2824
I0
(lp2825
I12
a(lp2826
I8
ag15
(I128
I30
I0
I255
tp2827
Rp2828
aV1
p2829
ag15
(I0
I0
I0
I255
tp2830
Rp2831
aV8
p2832
ag15
(I128
I30
I0
I255
tp2833
Rp2834
aV1
p2835
ag15
(I0
I0
I0
I255
tp2836
Rp2837
aV8
p2838
ag15
(I128
I30
I0
I255
tp2839
Rp2840
aV1
p2841
ag15
(I0
I0
I0
I255
tp2842
Rp2843
aV8
p2844
ag15
(I255
I0
I0
I255
tp2845
Rp2846
aV1
p2847
ag15
(I0
I0
I0
I255
tp2848
Rp2849
aV8
p2850
aasI1
(lp2851
I8
a(lp2852
I2
ag15
(I128
I30
I0
I255
tp2853
Rp2854
aV1
p2855
ag15
(I0
I0
I0
I255
tp2856
Rp2857
aV12
p2858
aasI2
(lp2859
I8
a(lp2860
I2
ag15
(I128
I30
I0
I255
tp2861
Rp2862
aV1
p2863
ag15
(I0
I0
I0
I255
tp2864
Rp2865
aV12
p2866
aasI3
(lp2867
I12
a(lp2868
I8
ag15
(I128
I30
I0
I255
tp2869
Rp2870
aV1
p2871
ag15
(I0
I0
I0
I255
tp2872
Rp2873
aV8
p2874
ag15
(I128
I30
I0
I255
tp2875
Rp2876
aV1
p2877
ag15
(I0
I0
I0
I255
tp2878
Rp2879
aV8
p2880
ag15
(I128
I30
I0
I255
tp2881
Rp2882
aV1
p2883
ag15
(I0
I0
I0
I255
tp2884
Rp2885
aV8
p2886
ag15
(I64
I0
I128
I255
tp2887
Rp2888
aV4
p2889
ag15
(I0
I0
I0
I255
tp2890
Rp2891
aV8
p2892
aasI4
(lp2893
I-1
a(lp2894
asI5
(lp2895
I8
a(lp2896
I2
ag15
(I255
I0
I0
I255
tp2897
Rp2898
aV1
p2899
ag15
(I0
I0
I0
I255
tp2900
Rp2901
aV1
p2902
aasI6
(lp2903
I10
a(lp2904
I4
ag15
(I64
I0
I128
I255
tp2905
Rp2906
aV4
p2907
ag15
(I0
I0
I0
I255
tp2908
Rp2909
aV32
p2910
ag15
(I255
I0
I0
I255
tp2911
Rp2912
aV4
p2913
ag15
(I0
I0
I0
I255
tp2914
Rp2915
aV32
p2916
aasI7
(lp2917
I-1
aNasI8
(lp2918
I12
a(lp2919
I8
ag15
(I128
I30
I0
I255
tp2920
Rp2921
aV1
p2922
ag15
(I0
I0
I0
I255
tp2923
Rp2924
aV8
p2925
ag15
(I128
I30
I0
I255
tp2926
Rp2927
aV1
p2928
ag15
(I0
I0
I0
I255
tp2929
Rp2930
aV8
p2931
ag15
(I128
I30
I0
I255
tp2932
Rp2933
aV1
p2934
ag15
(I0
I0
I0
I255
tp2935
Rp2936
aV8
p2937
ag15
(I64
I0
I128
I255
tp2938
Rp2939
aV4
p2940
ag15
(I0
I0
I0
I255
tp2941
Rp2942
aV8
p2943
aasI9
(lp2944
I8
a(lp2945
I2
ag15
(I128
I30
I0
I255
tp2946
Rp2947
aV1
p2948
ag15
(I0
I0
I0
I255
tp2949
Rp2950
aV8
p2951
aasI10
(lp2952
I8
a(lp2953
I2
ag15
(I128
I30
I0
I255
tp2954
Rp2955
aV1
p2956
ag15
(I0
I0
I0
I255
tp2957
Rp2958
aV8
p2959
aasI11
(lp2960
I12
a(lp2961
I8
ag15
(I128
I30
I0
I255
tp2962
Rp2963
aV1
p2964
ag15
(I0
I0
I0
I255
tp2965
Rp2966
aV8
p2967
ag15
(I128
I32
I0
I255
tp2968
Rp2969
aV1
p2970
ag15
(I0
I0
I0
I255
tp2971
Rp2972
aV8
p2973
ag15
(I128
I32
I0
I255
tp2974
Rp2975
aV1
p2976
ag15
(I0
I0
I0
I255
tp2977
Rp2978
aV8
p2979
ag15
(I255
I0
I0
I255
tp2980
Rp2981
aV1
p2982
ag15
(I0
I0
I0
I255
tp2983
Rp2984
aV8
p2985
aassg23
V00:10 000ms
p2986
sba(ieffectgroup
EffectGroup
p2987
(dp2988
g3
(dp2989
I0
(lp2990
I11
a(lp2991
I6
ag15
(I255
I0
I0
I255
tp2992
Rp2993
aV1
p2994
ag15
(I0
I0
I255
I255
tp2995
Rp2996
aV1
p2997
ag15
(I0
I0
I0
I255
tp2998
Rp2999
aV8
p3000
ag15
(I175
I96
I96
I255
tp3001
Rp3002
aV1
p3003
ag15
(I0
I0
I0
I255
tp3004
Rp3005
aV8
p3006
ag15
(I0
I0
I0
I255
tp3007
Rp3008
aV1
p3009
aasI1
(lp3010
I11
a(lp3011
I6
ag15
(I255
I0
I0
I255
tp3012
Rp3013
aV1
p3014
ag15
(I0
I0
I255
I255
tp3015
Rp3016
aV1
p3017
ag15
(I0
I0
I0
I255
tp3018
Rp3019
aV8
p3020
ag15
(I175
I96
I96
I255
tp3021
Rp3022
aV1
p3023
ag15
(I0
I0
I0
I255
tp3024
Rp3025
aV8
p3026
ag15
(I0
I0
I0
I255
tp3027
Rp3028
aV1
p3029
aasI2
(lp3030
I11
a(lp3031
I6
ag15
(I255
I0
I0
I255
tp3032
Rp3033
aV1
p3034
ag15
(I0
I0
I255
I255
tp3035
Rp3036
aV1
p3037
ag15
(I0
I0
I0
I255
tp3038
Rp3039
aV8
p3040
ag15
(I175
I96
I96
I255
tp3041
Rp3042
aV1
p3043
ag15
(I0
I0
I0
I255
tp3044
Rp3045
aV8
p3046
ag15
(I0
I0
I0
I255
tp3047
Rp3048
aV1
p3049
aasI3
(lp3050
I11
a(lp3051
I6
ag15
(I255
I0
I0
I255
tp3052
Rp3053
aV1
p3054
ag15
(I0
I0
I255
I255
tp3055
Rp3056
aV1
p3057
ag15
(I0
I0
I0
I255
tp3058
Rp3059
aV8
p3060
ag15
(I175
I96
I96
I255
tp3061
Rp3062
aV1
p3063
ag15
(I0
I0
I0
I255
tp3064
Rp3065
aV8
p3066
ag15
(I0
I0
I0
I255
tp3067
Rp3068
aV1
p3069
aasI4
(lp3070
I-1
a(lp3071
asI5
(lp3072
I5
a(lp3073
g15
(I255
I0
I0
I255
tp3074
Rp3075
ag15
(I0
I0
I255
I255
tp3076
Rp3077
aV10
p3078
aV20
p3079
aV75
p3080
aasI6
(lp3081
I5
a(lp3082
g15
(I255
I0
I0
I255
tp3083
Rp3084
ag15
(I0
I0
I255
I255
tp3085
Rp3086
aV10
p3087
aV20
p3088
aV75
p3089
aasI7
(lp3090
I-1
a(lp3091
asI8
(lp3092
I11
a(lp3093
I6
ag15
(I255
I0
I0
I255
tp3094
Rp3095
aV1
p3096
ag15
(I0
I0
I255
I255
tp3097
Rp3098
aV1
p3099
ag15
(I0
I0
I0
I255
tp3100
Rp3101
aV8
p3102
ag15
(I175
I96
I96
I255
tp3103
Rp3104
aV1
p3105
ag15
(I0
I0
I0
I255
tp3106
Rp3107
aV8
p3108
ag15
(I0
I0
I0
I255
tp3109
Rp3110
aV1
p3111
aasI9
(lp3112
I11
a(lp3113
I6
ag15
(I255
I0
I0
I255
tp3114
Rp3115
aV1
p3116
ag15
(I0
I0
I255
I255
tp3117
Rp3118
aV1
p3119
ag15
(I0
I0
I0
I255
tp3120
Rp3121
aV8
p3122
ag15
(I175
I96
I96
I255
tp3123
Rp3124
aV1
p3125
ag15
(I0
I0
I0
I255
tp3126
Rp3127
aV8
p3128
ag15
(I0
I0
I0
I255
tp3129
Rp3130
aV1
p3131
aasI10
(lp3132
I11
a(lp3133
I6
ag15
(I255
I0
I0
I255
tp3134
Rp3135
aV1
p3136
ag15
(I0
I0
I255
I255
tp3137
Rp3138
aV1
p3139
ag15
(I0
I0
I0
I255
tp3140
Rp3141
aV8
p3142
ag15
(I175
I96
I96
I255
tp3143
Rp3144
aV1
p3145
ag15
(I0
I0
I0
I255
tp3146
Rp3147
aV8
p3148
ag15
(I0
I0
I0
I255
tp3149
Rp3150
aV1
p3151
aasI11
(lp3152
I11
a(lp3153
I6
ag15
(I255
I0
I0
I255
tp3154
Rp3155
aV1
p3156
ag15
(I0
I0
I255
I255
tp3157
Rp3158
aV1
p3159
ag15
(I0
I0
I0
I255
tp3160
Rp3161
aV8
p3162
ag15
(I175
I96
I96
I255
tp3163
Rp3164
aV1
p3165
ag15
(I0
I0
I0
I255
tp3166
Rp3167
aV8
p3168
ag15
(I0
I0
I0
I255
tp3169
Rp3170
aV1
p3171
aassg23
V00:12 000ms
p3172
sba(ieffectgroup
EffectGroup
p3173
(dp3174
g3
(dp3175
I0
(lp3176
I-1
aNasI1
(lp3177
I-1
aNasI2
(lp3178
I-1
aNasI3
(lp3179
I-1
aNasI4
(lp3180
I-1
aNasI5
(lp3181
I11
a(lp3182
I6
ag15
(I255
I255
I255
I255
tp3183
Rp3184
aV1
p3185
ag15
(I0
I255
I0
I255
tp3186
Rp3187
aV2
p3188
ag15
(I0
I0
I255
I255
tp3189
Rp3190
aV2
p3191
ag15
(I255
I0
I0
I255
tp3192
Rp3193
aV1
p3194
ag15
(I0
I0
I0
I255
tp3195
Rp3196
aV32
p3197
ag15
(I0
I0
I0
I255
tp3198
Rp3199
aV1
p3200
aasI6
(lp3201
I11
a(lp3202
I6
ag15
(I255
I255
I255
I255
tp3203
Rp3204
aV1
p3205
ag15
(I0
I255
I0
I255
tp3206
Rp3207
aV2
p3208
ag15
(I0
I0
I255
I255
tp3209
Rp3210
aV2
p3211
ag15
(I255
I0
I0
I255
tp3212
Rp3213
aV1
p3214
ag15
(I0
I0
I0
I255
tp3215
Rp3216
aV32
p3217
ag15
(I0
I0
I0
I255
tp3218
Rp3219
aV1
p3220
aasI7
(lp3221
I-1
aNasI8
(lp3222
I-1
aNasI9
(lp3223
I-1
aNasI10
(lp3224
I-1
aNasI11
(lp3225
I-1
aNassg23
V00:12 500ms
p3226
sba(ieffectgroup
EffectGroup
p3227
(dp3228
g3
(dp3229
I0
(lp3230
I9
a(lp3231
I3
ag15
(I255
I255
I255
I255
tp3232
Rp3233
aV1
p3234
ag15
(I255
I0
I0
I255
tp3235
Rp3236
aV1
p3237
ag15
(I0
I0
I0
I255
tp3238
Rp3239
aV12
p3240
aasI1
(lp3241
I9
a(lp3242
I3
ag15
(I255
I255
I255
I255
tp3243
Rp3244
aV1
p3245
ag15
(I255
I0
I0
I255
tp3246
Rp3247
aV1
p3248
ag15
(I0
I0
I0
I255
tp3249
Rp3250
aV12
p3251
aasI2
(lp3252
I9
a(lp3253
I3
ag15
(I255
I255
I255
I255
tp3254
Rp3255
aV1
p3256
ag15
(I255
I0
I0
I255
tp3257
Rp3258
aV1
p3259
ag15
(I0
I0
I0
I255
tp3260
Rp3261
aV12
p3262
aasI3
(lp3263
I9
a(lp3264
I3
ag15
(I255
I255
I255
I255
tp3265
Rp3266
aV1
p3267
ag15
(I255
I0
I0
I255
tp3268
Rp3269
aV1
p3270
ag15
(I0
I0
I0
I255
tp3271
Rp3272
aV12
p3273
aasI4
(lp3274
I-1
aNasI5
(lp3275
I10
a(lp3276
I4
ag15
(I64
I0
I128
I255
tp3277
Rp3278
aV6
p3279
ag15
(I0
I0
I0
I255
tp3280
Rp3281
aV32
p3282
ag15
(I0
I0
I255
I255
tp3283
Rp3284
aV6
p3285
ag15
(I0
I0
I0
I255
tp3286
Rp3287
aV32
p3288
aasI6
(lp3289
I10
a(lp3290
I4
ag15
(I64
I0
I128
I255
tp3291
Rp3292
aV6
p3293
ag15
(I0
I0
I0
I255
tp3294
Rp3295
aV32
p3296
ag15
(I0
I0
I255
I255
tp3297
Rp3298
aV6
p3299
ag15
(I0
I0
I0
I255
tp3300
Rp3301
aV32
p3302
aasI7
(lp3303
I-1
aNasI8
(lp3304
I9
a(lp3305
I3
ag15
(I255
I255
I255
I255
tp3306
Rp3307
aV1
p3308
ag15
(I255
I0
I0
I255
tp3309
Rp3310
aV1
p3311
ag15
(I0
I0
I0
I255
tp3312
Rp3313
aV12
p3314
aasI9
(lp3315
I9
a(lp3316
I3
ag15
(I255
I255
I255
I255
tp3317
Rp3318
aV1
p3319
ag15
(I255
I0
I0
I255
tp3320
Rp3321
aV1
p3322
ag15
(I0
I0
I0
I255
tp3323
Rp3324
aV12
p3325
aasI10
(lp3326
I9
a(lp3327
I3
ag15
(I255
I255
I255
I255
tp3328
Rp3329
aV1
p3330
ag15
(I255
I0
I0
I255
tp3331
Rp3332
aV1
p3333
ag15
(I0
I0
I0
I255
tp3334
Rp3335
aV12
p3336
aasI11
(lp3337
I9
a(lp3338
I3
ag15
(I255
I255
I255
I255
tp3339
Rp3340
aV1
p3341
ag15
(I255
I0
I0
I255
tp3342
Rp3343
aV1
p3344
ag15
(I0
I0
I0
I255
tp3345
Rp3346
aV12
p3347
aassg23
V00:12 600ms
p3348
sba(ieffectgroup
EffectGroup
p3349
(dp3350
g3
(dp3351
I0
(lp3352
I13
a(lp3353
I10
ag15
(I64
I0
I128
I255
tp3354
Rp3355
aV1
p3356
ag15
(I0
I255
I0
I255
tp3357
Rp3358
aV1
p3359
ag15
(I0
I0
I0
I255
tp3360
Rp3361
aV12
p3362
ag15
(I0
I255
I0
I255
tp3363
Rp3364
aV1
p3365
ag15
(I0
I0
I255
I255
tp3366
Rp3367
aV1
p3368
ag15
(I0
I0
I0
I255
tp3369
Rp3370
aV12
p3371
ag15
(I0
I0
I255
I255
tp3372
Rp3373
aV1
p3374
ag15
(I64
I0
I128
I255
tp3375
Rp3376
aV1
p3377
ag15
(I0
I0
I0
I255
tp3378
Rp3379
aV20
p3380
ag15
(I0
I0
I0
I255
tp3381
Rp3382
aV1
p3383
aasI1
(lp3384
I13
a(lp3385
I10
ag15
(I64
I0
I128
I255
tp3386
Rp3387
aV2
p3388
ag15
(I0
I255
I0
I255
tp3389
Rp3390
aV1
p3391
ag15
(I0
I0
I0
I255
tp3392
Rp3393
aV12
p3394
ag15
(I0
I255
I0
I255
tp3395
Rp3396
aV1
p3397
ag15
(I0
I0
I255
I255
tp3398
Rp3399
aV1
p3400
ag15
(I0
I0
I0
I255
tp3401
Rp3402
aV12
p3403
ag15
(I0
I0
I255
I255
tp3404
Rp3405
aV1
p3406
ag15
(I128
I0
I255
I255
tp3407
Rp3408
aV2
p3409
ag15
(I0
I0
I0
I255
tp3410
Rp3411
aV20
p3412
ag15
(I0
I0
I0
I255
tp3413
Rp3414
aV1
p3415
aasI2
(lp3416
I13
a(lp3417
I10
ag15
(I64
I0
I128
I255
tp3418
Rp3419
aV1
p3420
ag15
(I0
I255
I0
I255
tp3421
Rp3422
aV1
p3423
ag15
(I0
I0
I0
I255
tp3424
Rp3425
aV12
p3426
ag15
(I0
I255
I0
I255
tp3427
Rp3428
aV1
p3429
ag15
(I0
I0
I255
I255
tp3430
Rp3431
aV1
p3432
ag15
(I0
I0
I0
I255
tp3433
Rp3434
aV12
p3435
ag15
(I0
I0
I255
I255
tp3436
Rp3437
aV1
p3438
ag15
(I64
I0
I128
I255
tp3439
Rp3440
aV2
p3441
ag15
(I0
I0
I0
I255
tp3442
Rp3443
aV20
p3444
ag15
(I0
I0
I0
I255
tp3445
Rp3446
aV1
p3447
aasI3
(lp3448
I13
a(lp3449
I10
ag15
(I64
I0
I128
I255
tp3450
Rp3451
aV1
p3452
ag15
(I0
I255
I0
I255
tp3453
Rp3454
aV1
p3455
ag15
(I0
I0
I0
I255
tp3456
Rp3457
aV12
p3458
ag15
(I0
I255
I0
I255
tp3459
Rp3460
aV1
p3461
ag15
(I0
I0
I255
I255
tp3462
Rp3463
aV1
p3464
ag15
(I0
I0
I0
I255
tp3465
Rp3466
aV12
p3467
ag15
(I0
I0
I255
I255
tp3468
Rp3469
aV1
p3470
ag15
(I64
I0
I128
I255
tp3471
Rp3472
aV2
p3473
ag15
(I0
I0
I0
I255
tp3474
Rp3475
aV20
p3476
ag15
(I0
I0
I0
I255
tp3477
Rp3478
aV1
p3479
aasI4
(lp3480
I-1
a(lp3481
asI5
(lp3482
I10
a(lp3483
I4
ag15
(I0
I255
I0
I255
tp3484
Rp3485
aV32
p3486
ag15
(I0
I0
I0
I255
tp3487
Rp3488
aV32
p3489
ag15
(I0
I0
I255
I255
tp3490
Rp3491
aV32
p3492
ag15
(I0
I0
I0
I255
tp3493
Rp3494
aV32
p3495
aasI6
(lp3496
I10
a(lp3497
I4
ag15
(I0
I255
I0
I255
tp3498
Rp3499
aV32
p3500
ag15
(I0
I0
I0
I255
tp3501
Rp3502
aV32
p3503
ag15
(I0
I0
I255
I255
tp3504
Rp3505
aV32
p3506
ag15
(I0
I0
I0
I255
tp3507
Rp3508
aV32
p3509
aasI7
(lp3510
I-1
aNasI8
(lp3511
I13
a(lp3512
I10
ag15
(I64
I0
I128
I255
tp3513
Rp3514
aV1
p3515
ag15
(I0
I255
I0
I255
tp3516
Rp3517
aV1
p3518
ag15
(I0
I0
I0
I255
tp3519
Rp3520
aV12
p3521
ag15
(I0
I255
I0
I255
tp3522
Rp3523
aV1
p3524
ag15
(I0
I0
I255
I255
tp3525
Rp3526
aV1
p3527
ag15
(I0
I0
I0
I255
tp3528
Rp3529
aV12
p3530
ag15
(I0
I0
I255
I255
tp3531
Rp3532
aV1
p3533
ag15
(I64
I0
I128
I255
tp3534
Rp3535
aV2
p3536
ag15
(I0
I0
I0
I255
tp3537
Rp3538
aV20
p3539
ag15
(I0
I0
I0
I255
tp3540
Rp3541
aV1
p3542
aasI9
(lp3543
I13
a(lp3544
I10
ag15
(I64
I0
I128
I255
tp3545
Rp3546
aV1
p3547
ag15
(I0
I255
I0
I255
tp3548
Rp3549
aV1
p3550
ag15
(I0
I0
I0
I255
tp3551
Rp3552
aV12
p3553
ag15
(I0
I255
I0
I255
tp3554
Rp3555
aV1
p3556
ag15
(I0
I0
I255
I255
tp3557
Rp3558
aV1
p3559
ag15
(I0
I0
I0
I255
tp3560
Rp3561
aV12
p3562
ag15
(I0
I0
I255
I255
tp3563
Rp3564
aV1
p3565
ag15
(I64
I0
I128
I255
tp3566
Rp3567
aV2
p3568
ag15
(I0
I0
I0
I255
tp3569
Rp3570
aV20
p3571
ag15
(I0
I0
I0
I255
tp3572
Rp3573
aV1
p3574
aasI10
(lp3575
I13
a(lp3576
I10
ag15
(I64
I0
I128
I255
tp3577
Rp3578
aV1
p3579
ag15
(I0
I255
I0
I255
tp3580
Rp3581
aV1
p3582
ag15
(I0
I0
I0
I255
tp3583
Rp3584
aV12
p3585
ag15
(I0
I255
I0
I255
tp3586
Rp3587
aV1
p3588
ag15
(I0
I0
I255
I255
tp3589
Rp3590
aV1
p3591
ag15
(I0
I0
I0
I255
tp3592
Rp3593
aV12
p3594
ag15
(I0
I0
I255
I255
tp3595
Rp3596
aV1
p3597
ag15
(I64
I0
I128
I255
tp3598
Rp3599
aV2
p3600
ag15
(I0
I0
I0
I255
tp3601
Rp3602
aV20
p3603
ag15
(I0
I0
I0
I255
tp3604
Rp3605
aV1
p3606
aasI11
(lp3607
I13
a(lp3608
I10
ag15
(I64
I0
I128
I255
tp3609
Rp3610
aV1
p3611
ag15
(I0
I255
I0
I255
tp3612
Rp3613
aV1
p3614
ag15
(I0
I0
I0
I255
tp3615
Rp3616
aV12
p3617
ag15
(I0
I255
I0
I255
tp3618
Rp3619
aV1
p3620
ag15
(I0
I0
I255
I255
tp3621
Rp3622
aV1
p3623
ag15
(I0
I0
I0
I255
tp3624
Rp3625
aV12
p3626
ag15
(I0
I0
I255
I255
tp3627
Rp3628
aV1
p3629
ag15
(I64
I0
I128
I255
tp3630
Rp3631
aV2
p3632
ag15
(I0
I0
I0
I255
tp3633
Rp3634
aV20
p3635
ag15
(I0
I0
I0
I255
tp3636
Rp3637
aV1
p3638
aassg23
V00:13 000ms
p3639
sba(ieffectgroup
EffectGroup
p3640
(dp3641
g3
(dp3642
I0
(lp3643
I9
a(lp3644
I3
ag15
(I0
I0
I255
I255
tp3645
Rp3646
aV1
p3647
ag15
(I0
I255
I0
I255
tp3648
Rp3649
aV1
p3650
ag15
(I0
I0
I0
I255
tp3651
Rp3652
aV12
p3653
aasI1
(lp3654
I10
a(lp3655
I4
ag15
(I64
I0
I128
I255
tp3656
Rp3657
aV1
p3658
ag15
(I0
I0
I0
I255
tp3659
Rp3660
aV12
p3661
ag15
(I64
I0
I128
I255
tp3662
Rp3663
aV1
p3664
ag15
(I0
I0
I0
I255
tp3665
Rp3666
aV36
p3667
aasI2
(lp3668
I10
a(lp3669
I4
ag15
(I64
I0
I128
I255
tp3670
Rp3671
aV1
p3672
ag15
(I0
I0
I0
I255
tp3673
Rp3674
aV12
p3675
ag15
(I64
I0
I128
I255
tp3676
Rp3677
aV1
p3678
ag15
(I0
I0
I0
I255
tp3679
Rp3680
aV36
p3681
aasI3
(lp3682
I9
a(lp3683
I3
ag15
(I0
I0
I255
I255
tp3684
Rp3685
aV1
p3686
ag15
(I0
I255
I0
I255
tp3687
Rp3688
aV1
p3689
ag15
(I0
I0
I0
I255
tp3690
Rp3691
aV12
p3692
aasI4
(lp3693
I-1
aNasI5
(lp3694
I10
a(lp3695
I4
ag15
(I0
I255
I0
I255
tp3696
Rp3697
aV32
p3698
ag15
(I0
I0
I0
I255
tp3699
Rp3700
aV32
p3701
ag15
(I0
I0
I255
I255
tp3702
Rp3703
aV32
p3704
ag15
(I0
I0
I0
I255
tp3705
Rp3706
aV32
p3707
aasI6
(lp3708
I10
a(lp3709
I4
ag15
(I0
I255
I0
I255
tp3710
Rp3711
aV32
p3712
ag15
(I0
I0
I0
I255
tp3713
Rp3714
aV32
p3715
ag15
(I0
I0
I255
I255
tp3716
Rp3717
aV32
p3718
ag15
(I0
I0
I0
I255
tp3719
Rp3720
aV32
p3721
aasI7
(lp3722
I-1
aNasI8
(lp3723
I9
a(lp3724
I3
ag15
(I0
I0
I255
I255
tp3725
Rp3726
aV1
p3727
ag15
(I0
I255
I0
I255
tp3728
Rp3729
aV1
p3730
ag15
(I0
I0
I0
I255
tp3731
Rp3732
aV12
p3733
aasI9
(lp3734
I10
a(lp3735
I4
ag15
(I64
I0
I128
I255
tp3736
Rp3737
aV1
p3738
ag15
(I0
I0
I0
I255
tp3739
Rp3740
aV12
p3741
ag15
(I64
I0
I128
I255
tp3742
Rp3743
aV1
p3744
ag15
(I0
I0
I0
I255
tp3745
Rp3746
aV36
p3747
aasI10
(lp3748
I10
a(lp3749
I4
ag15
(I64
I0
I128
I255
tp3750
Rp3751
aV1
p3752
ag15
(I0
I0
I0
I255
tp3753
Rp3754
aV12
p3755
ag15
(I64
I0
I128
I255
tp3756
Rp3757
aV1
p3758
ag15
(I0
I0
I0
I255
tp3759
Rp3760
aV36
p3761
aasI11
(lp3762
I9
a(lp3763
I3
ag15
(I0
I0
I255
I255
tp3764
Rp3765
aV1
p3766
ag15
(I0
I255
I0
I255
tp3767
Rp3768
aV1
p3769
ag15
(I0
I0
I0
I255
tp3770
Rp3771
aV12
p3772
aassg23
V00:13 500ms
p3773
sba(ieffectgroup
EffectGroup
p3774
(dp3775
g3
(dp3776
I0
(lp3777
I10
a(lp3778
I4
ag15
(I0
I0
I255
I255
tp3779
Rp3780
aV1
p3781
ag15
(I0
I0
I0
I255
tp3782
Rp3783
aV8
p3784
ag15
(I64
I0
I128
I255
tp3785
Rp3786
aV1
p3787
ag15
(I0
I0
I0
I255
tp3788
Rp3789
aV17
p3790
aasI1
(lp3791
I8
a(lp3792
I2
ag15
(I64
I0
I128
I255
tp3793
Rp3794
aV1
p3795
ag15
(I0
I0
I0
I255
tp3796
Rp3797
aV8
p3798
aasI2
(lp3799
I11
a(lp3800
I6
ag15
(I0
I0
I255
I255
tp3801
Rp3802
aV1
p3803
ag15
(I0
I0
I0
I255
tp3804
Rp3805
aV8
p3806
ag15
(I64
I0
I128
I255
tp3807
Rp3808
aV1
p3809
ag15
(I0
I0
I0
I255
tp3810
Rp3811
aV8
p3812
ag15
(I255
I255
I255
I255
tp3813
Rp3814
aV1
p3815
ag15
(I0
I0
I0
I255
tp3816
Rp3817
aV8
p3818
aasI3
(lp3819
I10
a(lp3820
I4
ag15
(I64
I0
I128
I255
tp3821
Rp3822
aV1
p3823
ag15
(I0
I0
I0
I255
tp3824
Rp3825
aV8
p3826
ag15
(I0
I0
I255
I255
tp3827
Rp3828
aV1
p3829
ag15
(I0
I0
I0
I255
tp3830
Rp3831
aV17
p3832
aasI4
(lp3833
I-1
aNasI5
(lp3834
I3
a(lp3835
g15
(I30
I0
I60
I255
tp3836
Rp3837
aV16
p3838
aV16
p3839
aasI6
(lp3840
I3
a(lp3841
g15
(I30
I0
I60
I255
tp3842
Rp3843
aV16
p3844
aV16
p3845
aasI7
(lp3846
I-1
aNasI8
(lp3847
I10
a(lp3848
I4
ag15
(I64
I0
I128
I255
tp3849
Rp3850
aV1
p3851
ag15
(I0
I0
I0
I255
tp3852
Rp3853
aV8
p3854
ag15
(I0
I0
I255
I255
tp3855
Rp3856
aV1
p3857
ag15
(I0
I0
I0
I255
tp3858
Rp3859
aV17
p3860
aasI9
(lp3861
I11
a(lp3862
I6
ag15
(I0
I0
I255
I255
tp3863
Rp3864
aV1
p3865
ag15
(I0
I0
I0
I255
tp3866
Rp3867
aV8
p3868
ag15
(I64
I0
I128
I255
tp3869
Rp3870
aV1
p3871
ag15
(I0
I0
I0
I255
tp3872
Rp3873
aV8
p3874
ag15
(I255
I255
I255
I255
tp3875
Rp3876
aV1
p3877
ag15
(I0
I0
I0
I255
tp3878
Rp3879
aV8
p3880
aasI10
(lp3881
I8
a(lp3882
I2
ag15
(I64
I0
I128
I255
tp3883
Rp3884
aV1
p3885
ag15
(I0
I0
I0
I255
tp3886
Rp3887
aV8
p3888
aasI11
(lp3889
I10
a(lp3890
I4
ag15
(I0
I0
I255
I255
tp3891
Rp3892
aV1
p3893
ag15
(I0
I0
I0
I255
tp3894
Rp3895
aV8
p3896
ag15
(I64
I0
I128
I255
tp3897
Rp3898
aV1
p3899
ag15
(I0
I0
I0
I255
tp3900
Rp3901
aV17
p3902
aassg23
V00:14 000ms
p3903
sba(ieffectgroup
EffectGroup
p3904
(dp3905
g3
(dp3906
I0
(lp3907
I-1
a(lp3908
asI1
(lp3909
I-1
aNasI2
(lp3910
I-1
aNasI3
(lp3911
I-1
aNasI4
(lp3912
I-1
aNasI5
(lp3913
I3
a(lp3914
g15
(I30
I0
I60
I255
tp3915
Rp3916
aV16
p3917
aV16
p3918
aasI6
(lp3919
I3
a(lp3920
g15
(I30
I0
I60
I255
tp3921
Rp3922
aV16
p3923
aV16
p3924
aasI7
(lp3925
I-1
aNasI8
(lp3926
I-1
aNasI9
(lp3927
I-1
aNasI10
(lp3928
I-1
aNasI11
(lp3929
I-1
aNassg23
V00:16 000ms
p3930
sba(ieffectgroup
EffectGroup
p3931
(dp3932
g3
(dp3933
I0
(lp3934
I-1
aNasI1
(lp3935
I-1
aNasI2
(lp3936
I-1
aNasI3
(lp3937
I10
a(lp3938
I4
ag15
(I0
I128
I128
I255
tp3939
Rp3940
aV1
p3941
ag15
(I2
I0
I1
I255
tp3942
Rp3943
aV16
p3944
ag15
(I0
I0
I200
I255
tp3945
Rp3946
aV1
p3947
ag15
(I2
I0
I1
I255
tp3948
Rp3949
aV24
p3950
aasI4
(lp3951
I-1
aNasI5
(lp3952
I3
a(lp3953
g15
(I30
I0
I60
I255
tp3954
Rp3955
aV16
p3956
aV16
p3957
aasI6
(lp3958
I3
a(lp3959
g15
(I30
I0
I60
I255
tp3960
Rp3961
aV16
p3962
aV16
p3963
aasI7
(lp3964
I-1
aNasI8
(lp3965
I10
a(lp3966
I4
ag15
(I0
I128
I128
I255
tp3967
Rp3968
aV1
p3969
ag15
(I2
I0
I1
I255
tp3970
Rp3971
aV16
p3972
ag15
(I0
I0
I200
I255
tp3973
Rp3974
aV1
p3975
ag15
(I2
I0
I1
I255
tp3976
Rp3977
aV24
p3978
aasI9
(lp3979
I-1
aNasI10
(lp3980
I-1
aNasI11
(lp3981
I-1
aNassg23
V00:17 000ms
p3982
sba(ieffectgroup
EffectGroup
p3983
(dp3984
g3
(dp3985
I0
(lp3986
I-1
aNasI1
(lp3987
I-1
aNasI2
(lp3988
I-1
a(lp3989
asI3
(lp3990
I10
a(lp3991
I4
ag15
(I0
I128
I128
I255
tp3992
Rp3993
aV1
p3994
ag15
(I2
I0
I1
I255
tp3995
Rp3996
aV16
p3997
ag15
(I0
I0
I200
I255
tp3998
Rp3999
aV1
p4000
ag15
(I2
I0
I1
I255
tp4001
Rp4002
aV24
p4003
aasI4
(lp4004
I3
a(lp4005
g15
(I64
I0
I128
I255
tp4006
Rp4007
aV1
p4008
aV4
p4009
aasI5
(lp4010
I-1
a(lp4011
asI6
(lp4012
I-1
a(lp4013
asI7
(lp4014
I3
a(lp4015
g15
(I64
I0
I128
I255
tp4016
Rp4017
aV1
p4018
aV4
p4019
aasI8
(lp4020
I10
a(lp4021
I4
ag15
(I0
I128
I128
I255
tp4022
Rp4023
aV1
p4024
ag15
(I2
I0
I1
I255
tp4025
Rp4026
aV16
p4027
ag15
(I0
I0
I200
I255
tp4028
Rp4029
aV1
p4030
ag15
(I2
I0
I1
I255
tp4031
Rp4032
aV24
p4033
aasI9
(lp4034
I-1
aNasI10
(lp4035
I-1
aNasI11
(lp4036
I-1
aNassg23
V00:18 000ms
p4037
sba(ieffectgroup
EffectGroup
p4038
(dp4039
g3
(dp4040
I0
(lp4041
I-1
aNasI1
(lp4042
I-1
aNasI2
(lp4043
I-1
aNasI3
(lp4044
I-1
aNasI4
(lp4045
I3
a(lp4046
g15
(I64
I0
I128
I255
tp4047
Rp4048
aV1
p4049
aV4
p4050
aasI5
(lp4051
I-1
aNasI6
(lp4052
I-1
aNasI7
(lp4053
I3
a(lp4054
g15
(I64
I0
I128
I255
tp4055
Rp4056
aV1
p4057
aV4
p4058
aasI8
(lp4059
I-1
aNasI9
(lp4060
I-1
aNasI10
(lp4061
I-1
aNasI11
(lp4062
I-1
aNassg23
V00:19 000ms
p4063
sba(ieffectgroup
EffectGroup
p4064
(dp4065
g3
(dp4066
I0
(lp4067
I-1
aNasI1
(lp4068
I-1
aNasI2
(lp4069
I-1
aNasI3
(lp4070
I9
a(lp4071
I3
ag15
(I150
I0
I0
I255
tp4072
Rp4073
aV2
p4074
ag15
(I0
I0
I100
I255
tp4075
Rp4076
aV2
p4077
ag15
(I2
I0
I1
I255
tp4078
Rp4079
aV30
p4080
aasI4
(lp4081
I3
a(lp4082
g15
(I64
I0
I128
I255
tp4083
Rp4084
aV1
p4085
aV4
p4086
aasI5
(lp4087
I-1
a(lp4088
asI6
(lp4089
I-1
aNasI7
(lp4090
I3
a(lp4091
g15
(I64
I0
I128
I255
tp4092
Rp4093
aV1
p4094
aV4
p4095
aasI8
(lp4096
I9
a(lp4097
I3
ag15
(I150
I0
I0
I255
tp4098
Rp4099
aV2
p4100
ag15
(I0
I0
I100
I255
tp4101
Rp4102
aV2
p4103
ag15
(I2
I0
I1
I255
tp4104
Rp4105
aV30
p4106
aasI9
(lp4107
I-1
aNasI10
(lp4108
I-1
aNasI11
(lp4109
I-1
aNassg23
V00:20 000ms
p4110
sba(ieffectgroup
EffectGroup
p4111
(dp4112
g3
(dp4113
I0
(lp4114
I-1
aNasI1
(lp4115
I-1
aNasI2
(lp4116
I-1
aNasI3
(lp4117
I9
a(lp4118
I3
ag15
(I255
I0
I0
I255
tp4119
Rp4120
aV16
p4121
ag15
(I0
I0
I255
I255
tp4122
Rp4123
aV16
p4124
ag15
(I96
I96
I96
I255
tp4125
Rp4126
aV4
p4127
aasI4
(lp4128
I-1
aNasI5
(lp4129
I-1
aNasI6
(lp4130
I-1
aNasI7
(lp4131
I-1
aNasI8
(lp4132
I9
a(lp4133
I3
ag15
(I128
I0
I255
I255
tp4134
Rp4135
aV16
p4136
ag15
(I0
I128
I128
I255
tp4137
Rp4138
aV16
p4139
ag15
(I96
I96
I96
I255
tp4140
Rp4141
aV4
p4142
aasI9
(lp4143
I-1
aNasI10
(lp4144
I-1
aNasI11
(lp4145
I-1
aNassg23
V00:21 000ms
p4146
sba(ieffectgroup
EffectGroup
p4147
(dp4148
g3
(dp4149
I0
(lp4150
I-1
aNasI1
(lp4151
I-1
aNasI2
(lp4152
I-1
aNasI3
(lp4153
I-1
a(lp4154
asI4
(lp4155
I-1
aNasI5
(lp4156
I9
a(lp4157
I3
ag15
(I255
I0
I0
I255
tp4158
Rp4159
aV4
p4160
ag15
(I0
I0
I255
I255
tp4161
Rp4162
aV4
p4163
ag15
(I0
I0
I0
I255
tp4164
Rp4165
aV24
p4166
aasI6
(lp4167
I9
a(lp4168
I3
ag15
(I128
I0
I255
I255
tp4169
Rp4170
aV4
p4171
ag15
(I0
I128
I128
I255
tp4172
Rp4173
aV4
p4174
ag15
(I0
I0
I0
I255
tp4175
Rp4176
aV24
p4177
aasI7
(lp4178
I-1
aNasI8
(lp4179
I-1
aNasI9
(lp4180
I-1
aNasI10
(lp4181
I-1
aNasI11
(lp4182
I-1
aNassg23
V00:22 000ms
p4183
sba(ieffectgroup
EffectGroup
p4184
(dp4185
g3
(dp4186
I0
(lp4187
I3
a(lp4188
g15
(I0
I0
I255
I255
tp4189
Rp4190
aV1
p4191
aV32
p4192
aasI1
(lp4193
I3
a(lp4194
g15
(I128
I0
I255
I255
tp4195
Rp4196
aV1
p4197
aV32
p4198
aasI2
(lp4199
I3
a(lp4200
g15
(I0
I0
I255
I255
tp4201
Rp4202
aV1
p4203
aV32
p4204
aasI3
(lp4205
I3
a(lp4206
g15
(I128
I0
I255
I255
tp4207
Rp4208
aV1
p4209
aV32
p4210
aasI4
(lp4211
I-1
aNasI5
(lp4212
I10
a(lp4213
I4
ag15
(I128
I0
I255
I255
tp4214
Rp4215
aV16
p4216
ag15
(I0
I0
I0
I255
tp4217
Rp4218
aV16
p4219
ag15
(I0
I0
I255
I255
tp4220
Rp4221
aV16
p4222
ag15
(I0
I0
I0
I255
tp4223
Rp4224
aV16
p4225
aasI6
(lp4226
I10
a(lp4227
I4
ag15
(I0
I0
I255
I255
tp4228
Rp4229
aV16
p4230
ag15
(I0
I0
I0
I255
tp4231
Rp4232
aV16
p4233
ag15
(I128
I0
I255
I255
tp4234
Rp4235
aV16
p4236
ag15
(I0
I0
I0
I255
tp4237
Rp4238
aV16
p4239
aasI7
(lp4240
I-1
aNasI8
(lp4241
I3
a(lp4242
g15
(I128
I0
I255
I255
tp4243
Rp4244
aV1
p4245
aV32
p4246
aasI9
(lp4247
I3
a(lp4248
g15
(I0
I0
I255
I255
tp4249
Rp4250
aV1
p4251
aV32
p4252
aasI10
(lp4253
I3
a(lp4254
g15
(I128
I0
I255
I255
tp4255
Rp4256
aV1
p4257
aV32
p4258
aasI11
(lp4259
I3
a(lp4260
g15
(I0
I0
I255
I255
tp4261
Rp4262
aV1
p4263
aV32
p4264
aassg23
V00:23 000ms
p4265
sba(ieffectgroup
EffectGroup
p4266
(dp4267
g3
(dp4268
I0
(lp4269
I11
a(lp4270
I6
ag15
(I255
I255
I255
I255
tp4271
Rp4272
aV1
p4273
ag15
(I0
I0
I0
I255
tp4274
Rp4275
aV16
p4276
ag15
(I255
I255
I255
I255
tp4277
Rp4278
aV1
p4279
ag15
(I0
I0
I0
I255
tp4280
Rp4281
aV16
p4282
ag15
(I255
I255
I0
I255
tp4283
Rp4284
aV1
p4285
ag15
(I0
I0
I0
I255
tp4286
Rp4287
aV16
p4288
aasI1
(lp4289
I11
a(lp4290
I6
ag15
(I255
I255
I255
I255
tp4291
Rp4292
aV1
p4293
ag15
(I0
I0
I0
I255
tp4294
Rp4295
aV16
p4296
ag15
(I255
I255
I255
I255
tp4297
Rp4298
aV1
p4299
ag15
(I0
I0
I0
I255
tp4300
Rp4301
aV16
p4302
ag15
(I255
I255
I0
I255
tp4303
Rp4304
aV1
p4305
ag15
(I0
I0
I0
I255
tp4306
Rp4307
aV48
p4308
aasI2
(lp4309
I11
a(lp4310
I6
ag15
(I255
I255
I255
I255
tp4311
Rp4312
aV1
p4313
ag15
(I0
I0
I0
I255
tp4314
Rp4315
aV16
p4316
ag15
(I255
I255
I255
I255
tp4317
Rp4318
aV1
p4319
ag15
(I0
I0
I0
I255
tp4320
Rp4321
aV16
p4322
ag15
(I255
I255
I0
I255
tp4323
Rp4324
aV1
p4325
ag15
(I0
I0
I0
I255
tp4326
Rp4327
aV48
p4328
aasI3
(lp4329
I11
a(lp4330
I6
ag15
(I255
I255
I255
I255
tp4331
Rp4332
aV1
p4333
ag15
(I0
I0
I0
I255
tp4334
Rp4335
aV16
p4336
ag15
(I255
I255
I255
I255
tp4337
Rp4338
aV1
p4339
ag15
(I0
I0
I0
I255
tp4340
Rp4341
aV16
p4342
ag15
(I255
I255
I0
I255
tp4343
Rp4344
aV1
p4345
ag15
(I0
I0
I0
I255
tp4346
Rp4347
aV48
p4348
aasI4
(lp4349
I-1
a(lp4350
asI5
(lp4351
I8
a(lp4352
I2
ag15
(I255
I200
I0
I255
tp4353
Rp4354
aV1
p4355
ag15
(I0
I0
I0
I255
tp4356
Rp4357
aV24
p4358
aasI6
(lp4359
I8
a(lp4360
I2
ag15
(I255
I200
I0
I255
tp4361
Rp4362
aV1
p4363
ag15
(I0
I0
I0
I255
tp4364
Rp4365
aV24
p4366
aasI7
(lp4367
I-1
aNasI8
(lp4368
I11
a(lp4369
I6
ag15
(I255
I255
I255
I255
tp4370
Rp4371
aV1
p4372
ag15
(I0
I0
I0
I255
tp4373
Rp4374
aV16
p4375
ag15
(I255
I255
I255
I255
tp4376
Rp4377
aV1
p4378
ag15
(I0
I0
I0
I255
tp4379
Rp4380
aV16
p4381
ag15
(I255
I255
I0
I255
tp4382
Rp4383
aV1
p4384
ag15
(I0
I0
I0
I255
tp4385
Rp4386
aV48
p4387
aasI9
(lp4388
I11
a(lp4389
I6
ag15
(I255
I255
I255
I255
tp4390
Rp4391
aV1
p4392
ag15
(I0
I0
I0
I255
tp4393
Rp4394
aV16
p4395
ag15
(I255
I255
I255
I255
tp4396
Rp4397
aV1
p4398
ag15
(I0
I0
I0
I255
tp4399
Rp4400
aV16
p4401
ag15
(I255
I255
I0
I255
tp4402
Rp4403
aV1
p4404
ag15
(I0
I0
I0
I255
tp4405
Rp4406
aV48
p4407
aasI10
(lp4408
I11
a(lp4409
I6
ag15
(I255
I255
I255
I255
tp4410
Rp4411
aV1
p4412
ag15
(I0
I0
I0
I255
tp4413
Rp4414
aV16
p4415
ag15
(I255
I255
I255
I255
tp4416
Rp4417
aV1
p4418
ag15
(I0
I0
I0
I255
tp4419
Rp4420
aV16
p4421
ag15
(I255
I255
I0
I255
tp4422
Rp4423
aV1
p4424
ag15
(I0
I0
I0
I255
tp4425
Rp4426
aV48
p4427
aasI11
(lp4428
I11
a(lp4429
I6
ag15
(I255
I255
I255
I255
tp4430
Rp4431
aV1
p4432
ag15
(I0
I0
I0
I255
tp4433
Rp4434
aV16
p4435
ag15
(I255
I255
I255
I255
tp4436
Rp4437
aV1
p4438
ag15
(I0
I0
I0
I255
tp4439
Rp4440
aV16
p4441
ag15
(I255
I255
I0
I255
tp4442
Rp4443
aV1
p4444
ag15
(I0
I0
I0
I255
tp4445
Rp4446
aV16
p4447
aassg23
V00:24 000ms
p4448
sba(ieffectgroup
EffectGroup
p4449
(dp4450
g3
(dp4451
I0
(lp4452
I3
a(lp4453
g15
(I20
I20
I0
I255
tp4454
Rp4455
aV1
p4456
aV32
p4457
aasI1
(lp4458
I3
a(lp4459
g15
(I20
I20
I0
I255
tp4460
Rp4461
aV1
p4462
aV32
p4463
aasI2
(lp4464
I3
a(lp4465
g15
(I20
I20
I0
I255
tp4466
Rp4467
aV1
p4468
aV32
p4469
aasI3
(lp4470
I3
a(lp4471
g15
(I20
I20
I0
I255
tp4472
Rp4473
aV1
p4474
aV32
p4475
aasI4
(lp4476
I-1
aNasI5
(lp4477
I9
a(lp4478
I3
ag15
(I255
I255
I0
I255
tp4479
Rp4480
aV16
p4481
ag15
(I255
I255
I255
I255
tp4482
Rp4483
aV2
p4484
ag15
(I0
I0
I0
I255
tp4485
Rp4486
aV32
p4487
aasI6
(lp4488
I9
a(lp4489
I3
ag15
(I255
I255
I0
I255
tp4490
Rp4491
aV16
p4492
ag15
(I255
I255
I255
I255
tp4493
Rp4494
aV2
p4495
ag15
(I0
I0
I0
I255
tp4496
Rp4497
aV32
p4498
aasI7
(lp4499
I-1
aNasI8
(lp4500
I3
a(lp4501
g15
(I20
I20
I0
I255
tp4502
Rp4503
aV1
p4504
aV32
p4505
aasI9
(lp4506
I3
a(lp4507
g15
(I20
I20
I0
I255
tp4508
Rp4509
aV1
p4510
aV32
p4511
aasI10
(lp4512
I3
a(lp4513
g15
(I20
I20
I0
I255
tp4514
Rp4515
aV1
p4516
aV32
p4517
aasI11
(lp4518
I3
a(lp4519
g15
(I20
I20
I0
I255
tp4520
Rp4521
aV1
p4522
aV32
p4523
aassg23
V00:25 000ms
p4524
sba(ieffectgroup
EffectGroup
p4525
(dp4526
g3
(dp4527
I0
(lp4528
I5
a(lp4529
g15
(I20
I20
I0
I255
tp4530
Rp4531
ag15
(I255
I128
I0
I255
tp4532
Rp4533
aV200
p4534
aV2
p4535
aV16
p4536
aasI1
(lp4537
I5
a(lp4538
g15
(I20
I20
I0
I255
tp4539
Rp4540
ag15
(I64
I0
I128
I255
tp4541
Rp4542
aV200
p4543
aV2
p4544
aV16
p4545
aasI2
(lp4546
I5
a(lp4547
g15
(I20
I20
I0
I255
tp4548
Rp4549
ag15
(I255
I128
I0
I255
tp4550
Rp4551
aV200
p4552
aV2
p4553
aV16
p4554
aasI3
(lp4555
I5
a(lp4556
g15
(I20
I20
I0
I255
tp4557
Rp4558
ag15
(I64
I0
I128
I255
tp4559
Rp4560
aV200
p4561
aV2
p4562
aV16
p4563
aasI4
(lp4564
I5
a(lp4565
g15
(I64
I0
I128
I255
tp4566
Rp4567
ag15
(I255
I128
I0
I255
tp4568
Rp4569
aV200
p4570
aV2
p4571
aV16
p4572
aasI5
(lp4573
I-1
aNasI6
(lp4574
I-1
aNasI7
(lp4575
I5
a(lp4576
g15
(I64
I0
I128
I255
tp4577
Rp4578
ag15
(I255
I128
I0
I255
tp4579
Rp4580
aV200
p4581
aV2
p4582
aV16
p4583
aasI8
(lp4584
I5
a(lp4585
g15
(I20
I20
I0
I255
tp4586
Rp4587
ag15
(I64
I0
I128
I255
tp4588
Rp4589
aV200
p4590
aV2
p4591
aV16
p4592
aasI9
(lp4593
I5
a(lp4594
g15
(I20
I20
I0
I255
tp4595
Rp4596
ag15
(I255
I128
I0
I255
tp4597
Rp4598
aV200
p4599
aV2
p4600
aV16
p4601
aasI10
(lp4602
I5
a(lp4603
g15
(I20
I20
I0
I255
tp4604
Rp4605
ag15
(I64
I0
I128
I255
tp4606
Rp4607
aV200
p4608
aV2
p4609
aV16
p4610
aasI11
(lp4611
I5
a(lp4612
g15
(I20
I20
I0
I255
tp4613
Rp4614
ag15
(I255
I128
I0
I255
tp4615
Rp4616
aV200
p4617
aV2
p4618
aV16
p4619
aassg23
V00:26 000ms
p4620
sba(ieffectgroup
EffectGroup
p4621
(dp4622
g3
(dp4623
I0
(lp4624
I10
a(lp4625
I4
ag15
(I255
I0
I0
I255
tp4626
Rp4627
aV1
p4628
ag15
(I0
I0
I0
I255
tp4629
Rp4630
aV8
p4631
ag15
(I64
I0
I128
I255
tp4632
Rp4633
aV1
p4634
ag15
(I0
I0
I0
I255
tp4635
Rp4636
aV16
p4637
aasI1
(lp4638
I10
a(lp4639
I4
ag15
(I64
I0
I128
I255
tp4640
Rp4641
aV1
p4642
ag15
(I0
I0
I0
I255
tp4643
Rp4644
aV8
p4645
ag15
(I64
I0
I128
I255
tp4646
Rp4647
aV1
p4648
ag15
(I0
I0
I0
I255
tp4649
Rp4650
aV16
p4651
aasI2
(lp4652
I10
a(lp4653
I4
ag15
(I255
I0
I0
I255
tp4654
Rp4655
aV1
p4656
ag15
(I0
I0
I0
I255
tp4657
Rp4658
aV8
p4659
ag15
(I64
I0
I128
I255
tp4660
Rp4661
aV1
p4662
ag15
(I0
I0
I0
I255
tp4663
Rp4664
aV16
p4665
aasI3
(lp4666
I10
a(lp4667
I4
ag15
(I64
I0
I128
I255
tp4668
Rp4669
aV1
p4670
ag15
(I0
I0
I0
I255
tp4671
Rp4672
aV8
p4673
ag15
(I64
I0
I128
I255
tp4674
Rp4675
aV1
p4676
ag15
(I0
I0
I0
I255
tp4677
Rp4678
aV16
p4679
aasI4
(lp4680
I-1
aNasI5
(lp4681
I7
a(lp4682
g15
(I255
I0
I0
I255
tp4683
Rp4684
ag15
(I0
I0
I255
I255
tp4685
Rp4686
ag15
(I0
I255
I0
I255
tp4687
Rp4688
aV300
p4689
aV1
p4690
aV1
p4691
aasI6
(lp4692
I7
a(lp4693
g15
(I255
I0
I0
I255
tp4694
Rp4695
ag15
(I0
I0
I255
I255
tp4696
Rp4697
ag15
(I0
I255
I0
I255
tp4698
Rp4699
aV300
p4700
aV1
p4701
aV1
p4702
aasI7
(lp4703
I-1
aNasI8
(lp4704
I10
a(lp4705
I4
ag15
(I64
I0
I128
I255
tp4706
Rp4707
aV1
p4708
ag15
(I0
I0
I0
I255
tp4709
Rp4710
aV8
p4711
ag15
(I64
I0
I128
I255
tp4712
Rp4713
aV1
p4714
ag15
(I0
I0
I0
I255
tp4715
Rp4716
aV16
p4717
aasI9
(lp4718
I10
a(lp4719
I4
ag15
(I255
I0
I0
I255
tp4720
Rp4721
aV1
p4722
ag15
(I0
I0
I0
I255
tp4723
Rp4724
aV8
p4725
ag15
(I64
I0
I128
I255
tp4726
Rp4727
aV1
p4728
ag15
(I0
I0
I0
I255
tp4729
Rp4730
aV16
p4731
aasI10
(lp4732
I10
a(lp4733
I4
ag15
(I64
I0
I128
I255
tp4734
Rp4735
aV1
p4736
ag15
(I0
I0
I0
I255
tp4737
Rp4738
aV8
p4739
ag15
(I64
I0
I128
I255
tp4740
Rp4741
aV1
p4742
ag15
(I0
I0
I0
I255
tp4743
Rp4744
aV16
p4745
aasI11
(lp4746
I10
a(lp4747
I4
ag15
(I255
I0
I0
I255
tp4748
Rp4749
aV1
p4750
ag15
(I0
I0
I0
I255
tp4751
Rp4752
aV8
p4753
ag15
(I64
I0
I128
I255
tp4754
Rp4755
aV1
p4756
ag15
(I0
I0
I0
I255
tp4757
Rp4758
aV16
p4759
aassg23
V00:27 000ms
p4760
sba(ieffectgroup
EffectGroup
p4761
(dp4762
g3
(dp4763
I0
(lp4764
I8
a(lp4765
I2
ag15
(I20
I0
I0
I255
tp4766
Rp4767
aV1
p4768
ag15
(I0
I0
I0
I255
tp4769
Rp4770
aV32
p4771
aasI1
(lp4772
I8
a(lp4773
I2
ag15
(I20
I0
I0
I255
tp4774
Rp4775
aV1
p4776
ag15
(I0
I0
I0
I255
tp4777
Rp4778
aV32
p4779
aasI2
(lp4780
I8
a(lp4781
I2
ag15
(I20
I0
I0
I255
tp4782
Rp4783
aV1
p4784
ag15
(I0
I0
I0
I255
tp4785
Rp4786
aV32
p4787
aasI3
(lp4788
I8
a(lp4789
I2
ag15
(I20
I0
I0
I255
tp4790
Rp4791
aV1
p4792
ag15
(I0
I0
I0
I255
tp4793
Rp4794
aV32
p4795
aasI4
(lp4796
I10
a(lp4797
I4
ag15
(I255
I0
I0
I255
tp4798
Rp4799
aV1
p4800
ag15
(I2
I0
I0
I255
tp4801
Rp4802
aV8
p4803
ag15
(I64
I0
I128
I255
tp4804
Rp4805
aV1
p4806
ag15
(I2
I0
I0
I255
tp4807
Rp4808
aV16
p4809
aasI5
(lp4810
I-1
a(lp4811
asI6
(lp4812
I-1
a(lp4813
asI7
(lp4814
I10
a(lp4815
I4
ag15
(I255
I0
I0
I255
tp4816
Rp4817
aV1
p4818
ag15
(I2
I0
I0
I255
tp4819
Rp4820
aV8
p4821
ag15
(I64
I0
I128
I255
tp4822
Rp4823
aV1
p4824
ag15
(I2
I0
I0
I255
tp4825
Rp4826
aV16
p4827
aasI8
(lp4828
I8
a(lp4829
I2
ag15
(I20
I0
I0
I255
tp4830
Rp4831
aV1
p4832
ag15
(I0
I0
I0
I255
tp4833
Rp4834
aV32
p4835
aasI9
(lp4836
I8
a(lp4837
I2
ag15
(I20
I0
I0
I255
tp4838
Rp4839
aV1
p4840
ag15
(I0
I0
I0
I255
tp4841
Rp4842
aV32
p4843
aasI10
(lp4844
I8
a(lp4845
I2
ag15
(I20
I0
I0
I255
tp4846
Rp4847
aV1
p4848
ag15
(I0
I0
I0
I255
tp4849
Rp4850
aV32
p4851
aasI11
(lp4852
I8
a(lp4853
I2
ag15
(I20
I0
I0
I255
tp4854
Rp4855
aV1
p4856
ag15
(I0
I0
I0
I255
tp4857
Rp4858
aV32
p4859
aassg23
V00:28 000ms
p4860
sba(ieffectgroup
EffectGroup
p4861
(dp4862
g3
(dp4863
I0
(lp4864
I8
a(lp4865
I2
ag15
(I255
I0
I0
I255
tp4866
Rp4867
aV1
p4868
ag15
(I0
I0
I0
I255
tp4869
Rp4870
aV32
p4871
aasI1
(lp4872
I8
a(lp4873
I2
ag15
(I255
I0
I0
I255
tp4874
Rp4875
aV1
p4876
ag15
(I0
I0
I0
I255
tp4877
Rp4878
aV32
p4879
aasI2
(lp4880
I8
a(lp4881
I2
ag15
(I255
I0
I0
I255
tp4882
Rp4883
aV1
p4884
ag15
(I0
I0
I0
I255
tp4885
Rp4886
aV32
p4887
aasI3
(lp4888
I8
a(lp4889
I2
ag15
(I255
I0
I0
I255
tp4890
Rp4891
aV1
p4892
ag15
(I10
I0
I10
I255
tp4893
Rp4894
aV16
p4895
aasI4
(lp4896
I-1
aNasI5
(lp4897
I9
a(lp4898
I3
ag15
(I125
I0
I250
I255
tp4899
Rp4900
aV16
p4901
ag15
(I125
I0
I0
I255
tp4902
Rp4903
aV16
p4904
ag15
(I0
I0
I0
I255
tp4905
Rp4906
aV32
p4907
aasI6
(lp4908
I9
a(lp4909
I3
ag15
(I125
I0
I250
I255
tp4910
Rp4911
aV16
p4912
ag15
(I125
I0
I0
I255
tp4913
Rp4914
aV16
p4915
ag15
(I0
I0
I0
I255
tp4916
Rp4917
aV32
p4918
aasI7
(lp4919
I-1
aNasI8
(lp4920
I8
a(lp4921
I2
ag15
(I255
I0
I0
I255
tp4922
Rp4923
aV1
p4924
ag15
(I10
I0
I10
I255
tp4925
Rp4926
aV16
p4927
aasI9
(lp4928
I8
a(lp4929
I2
ag15
(I255
I0
I0
I255
tp4930
Rp4931
aV1
p4932
ag15
(I0
I0
I0
I255
tp4933
Rp4934
aV32
p4935
aasI10
(lp4936
I8
a(lp4937
I2
ag15
(I255
I0
I0
I255
tp4938
Rp4939
aV1
p4940
ag15
(I0
I0
I0
I255
tp4941
Rp4942
aV32
p4943
aasI11
(lp4944
I8
a(lp4945
I2
ag15
(I255
I0
I0
I255
tp4946
Rp4947
aV1
p4948
ag15
(I0
I0
I0
I255
tp4949
Rp4950
aV32
p4951
aassg23
V00:29 000ms
p4952
sba(ieffectgroup
EffectGroup
p4953
(dp4954
g3
(dp4955
I0
(lp4956
I8
a(lp4957
I2
ag15
(I40
I0
I0
I255
tp4958
Rp4959
aV1
p4960
ag15
(I0
I0
I0
I255
tp4961
Rp4962
aV16
p4963
aasI1
(lp4964
I8
a(lp4965
I2
ag15
(I40
I0
I0
I255
tp4966
Rp4967
aV1
p4968
ag15
(I0
I0
I0
I255
tp4969
Rp4970
aV16
p4971
aasI2
(lp4972
I8
a(lp4973
I2
ag15
(I40
I0
I0
I255
tp4974
Rp4975
aV1
p4976
ag15
(I0
I0
I0
I255
tp4977
Rp4978
aV16
p4979
aasI3
(lp4980
I8
a(lp4981
I2
ag15
(I40
I0
I0
I255
tp4982
Rp4983
aV1
p4984
ag15
(I0
I0
I0
I255
tp4985
Rp4986
aV16
p4987
aasI4
(lp4988
I-1
aNasI5
(lp4989
I9
a(lp4990
I3
ag15
(I125
I0
I0
I255
tp4991
Rp4992
aV16
p4993
ag15
(I125
I125
I0
I255
tp4994
Rp4995
aV16
p4996
ag15
(I0
I0
I0
I255
tp4997
Rp4998
aV32
p4999
aasI6
(lp5000
I9
a(lp5001
I3
ag15
(I125
I0
I0
I255
tp5002
Rp5003
aV16
p5004
ag15
(I125
I125
I0
I255
tp5005
Rp5006
aV16
p5007
ag15
(I0
I0
I0
I255
tp5008
Rp5009
aV32
p5010
aasI7
(lp5011
I-1
aNasI8
(lp5012
I8
a(lp5013
I2
ag15
(I40
I0
I0
I255
tp5014
Rp5015
aV1
p5016
ag15
(I0
I0
I0
I255
tp5017
Rp5018
aV16
p5019
aasI9
(lp5020
I8
a(lp5021
I2
ag15
(I40
I0
I0
I255
tp5022
Rp5023
aV1
p5024
ag15
(I0
I0
I0
I255
tp5025
Rp5026
aV16
p5027
aasI10
(lp5028
I8
a(lp5029
I2
ag15
(I40
I0
I0
I255
tp5030
Rp5031
aV1
p5032
ag15
(I0
I0
I0
I255
tp5033
Rp5034
aV16
p5035
aasI11
(lp5036
I8
a(lp5037
I2
ag15
(I40
I0
I0
I255
tp5038
Rp5039
aV1
p5040
ag15
(I0
I0
I0
I255
tp5041
Rp5042
aV16
p5043
aassg23
V00:30 000ms
p5044
sba(ieffectgroup
EffectGroup
p5045
(dp5046
g3
(dp5047
I0
(lp5048
I10
a(lp5049
I4
ag15
(I40
I0
I0
I255
tp5050
Rp5051
aV1
p5052
ag15
(I0
I0
I0
I255
tp5053
Rp5054
aV16
p5055
ag15
(I255
I128
I64
I255
tp5056
Rp5057
aV1
p5058
ag15
(I0
I0
I0
I255
tp5059
Rp5060
aV16
p5061
aasI1
(lp5062
I8
a(lp5063
I2
ag15
(I0
I0
I0
I255
tp5064
Rp5065
aV1
p5066
ag15
(I0
I0
I0
I255
tp5067
Rp5068
aV16
p5069
aasI2
(lp5070
I8
a(lp5071
I2
ag15
(I0
I0
I0
I255
tp5072
Rp5073
aV1
p5074
ag15
(I0
I0
I0
I255
tp5075
Rp5076
aV16
p5077
aasI3
(lp5078
I10
a(lp5079
I4
ag15
(I40
I0
I0
I255
tp5080
Rp5081
aV1
p5082
ag15
(I0
I0
I0
I255
tp5083
Rp5084
aV16
p5085
ag15
(I255
I128
I64
I255
tp5086
Rp5087
aV1
p5088
ag15
(I0
I0
I0
I255
tp5089
Rp5090
aV16
p5091
aasI4
(lp5092
I-1
aNasI5
(lp5093
I-1
aNasI6
(lp5094
I-1
aNasI7
(lp5095
I-1
aNasI8
(lp5096
I10
a(lp5097
I4
ag15
(I40
I0
I0
I255
tp5098
Rp5099
aV1
p5100
ag15
(I0
I0
I0
I255
tp5101
Rp5102
aV16
p5103
ag15
(I255
I128
I64
I255
tp5104
Rp5105
aV1
p5106
ag15
(I0
I0
I0
I255
tp5107
Rp5108
aV16
p5109
aasI9
(lp5110
I8
a(lp5111
I2
ag15
(I40
I0
I0
I255
tp5112
Rp5113
aV1
p5114
ag15
(I0
I0
I0
I255
tp5115
Rp5116
aV16
p5117
aasI10
(lp5118
I8
a(lp5119
I2
ag15
(I40
I0
I0
I255
tp5120
Rp5121
aV1
p5122
ag15
(I0
I0
I0
I255
tp5123
Rp5124
aV16
p5125
aasI11
(lp5126
I10
a(lp5127
I4
ag15
(I40
I0
I0
I255
tp5128
Rp5129
aV1
p5130
ag15
(I0
I0
I0
I255
tp5131
Rp5132
aV16
p5133
ag15
(I255
I128
I64
I255
tp5134
Rp5135
aV1
p5136
ag15
(I0
I0
I0
I255
tp5137
Rp5138
aV16
p5139
aassg23
V00:31 000ms
p5140
sba(ieffectgroup
EffectGroup
p5141
(dp5142
g3
(dp5143
I0
(lp5144
I-1
aNasI1
(lp5145
I-1
aNasI2
(lp5146
I-1
aNasI3
(lp5147
I-1
aNasI4
(lp5148
I-1
aNasI5
(lp5149
I1
a(lp5150
g15
(I255
I255
I255
I255
tp5151
Rp5152
aasI6
(lp5153
I-1
aNasI7
(lp5154
I-1
aNasI8
(lp5155
I-1
aNasI9
(lp5156
I-1
aNasI10
(lp5157
I-1
aNasI11
(lp5158
I-1
aNassg23
V00:32 000ms
p5159
sba(ieffectgroup
EffectGroup
p5160
(dp5161
g3
(dp5162
I0
(lp5163
I3
a(lp5164
g15
(I128
I0
I255
I255
tp5165
Rp5166
aV1
p5167
aV16
p5168
aasI1
(lp5169
I3
a(lp5170
g15
(I128
I0
I255
I255
tp5171
Rp5172
aV1
p5173
aV16
p5174
aasI2
(lp5175
I3
a(lp5176
g15
(I128
I0
I255
I255
tp5177
Rp5178
aV1
p5179
aV16
p5180
aasI3
(lp5181
I3
a(lp5182
g15
(I255
I0
I0
I255
tp5183
Rp5184
aV1
p5185
aV16
p5186
aasI4
(lp5187
I3
a(lp5188
g15
(I0
I255
I128
I255
tp5189
Rp5190
aV4
p5191
aV16
p5192
aasI5
(lp5193
I-1
a(lp5194
asI6
(lp5195
I-1
aNasI7
(lp5196
I3
a(lp5197
g15
(I0
I255
I128
I255
tp5198
Rp5199
aV4
p5200
aV16
p5201
aasI8
(lp5202
I3
a(lp5203
g15
(I255
I0
I0
I255
tp5204
Rp5205
aV1
p5206
aV16
p5207
aasI9
(lp5208
I3
a(lp5209
g15
(I128
I0
I255
I255
tp5210
Rp5211
aV1
p5212
aV16
p5213
aasI10
(lp5214
I3
a(lp5215
g15
(I128
I0
I255
I255
tp5216
Rp5217
aV1
p5218
aV16
p5219
aasI11
(lp5220
I3
a(lp5221
g15
(I128
I0
I255
I255
tp5222
Rp5223
aV1
p5224
aV16
p5225
aassg23
V00:33 000ms
p5226
sba(ieffectgroup
EffectGroup
p5227
(dp5228
g3
(dp5229
I0
(lp5230
I8
a(lp5231
I2
ag15
(I128
I0
I255
I255
tp5232
Rp5233
aV1
p5234
ag15
(I0
I0
I0
I255
tp5235
Rp5236
aV9
p5237
aasI1
(lp5238
I10
a(lp5239
I4
ag15
(I128
I0
I255
I255
tp5240
Rp5241
aV1
p5242
ag15
(I0
I0
I0
I255
tp5243
Rp5244
aV4
p5245
ag15
(I255
I0
I0
I255
tp5246
Rp5247
aV1
p5248
ag15
(I0
I0
I0
I255
tp5249
Rp5250
aV4
p5251
aasI2
(lp5252
I8
a(lp5253
I2
ag15
(I128
I0
I255
I255
tp5254
Rp5255
aV1
p5256
ag15
(I0
I0
I0
I255
tp5257
Rp5258
aV4
p5259
aasI3
(lp5260
I10
a(lp5261
I4
ag15
(I128
I0
I255
I255
tp5262
Rp5263
aV1
p5264
ag15
(I0
I0
I0
I255
tp5265
Rp5266
aV4
p5267
ag15
(I255
I0
I0
I255
tp5268
Rp5269
aV1
p5270
ag15
(I0
I0
I0
I255
tp5271
Rp5272
aV4
p5273
aasI4
(lp5274
I-1
aNasI5
(lp5275
I8
a(lp5276
I2
ag15
(I0
I255
I128
I255
tp5277
Rp5278
aV4
p5279
ag15
(I0
I0
I0
I255
tp5280
Rp5281
aV8
p5282
aasI6
(lp5283
I8
a(lp5284
I2
ag15
(I0
I255
I128
I255
tp5285
Rp5286
aV4
p5287
ag15
(I0
I0
I0
I255
tp5288
Rp5289
aV8
p5290
aasI7
(lp5291
I-1
aNasI8
(lp5292
I10
a(lp5293
I4
ag15
(I128
I0
I255
I255
tp5294
Rp5295
aV1
p5296
ag15
(I0
I0
I0
I255
tp5297
Rp5298
aV4
p5299
ag15
(I255
I0
I0
I255
tp5300
Rp5301
aV1
p5302
ag15
(I0
I0
I0
I255
tp5303
Rp5304
aV4
p5305
aasI9
(lp5306
I8
a(lp5307
I2
ag15
(I128
I0
I255
I255
tp5308
Rp5309
aV1
p5310
ag15
(I0
I0
I0
I255
tp5311
Rp5312
aV4
p5313
aasI10
(lp5314
I10
a(lp5315
I4
ag15
(I128
I0
I255
I255
tp5316
Rp5317
aV1
p5318
ag15
(I0
I0
I0
I255
tp5319
Rp5320
aV4
p5321
ag15
(I255
I0
I0
I255
tp5322
Rp5323
aV1
p5324
ag15
(I0
I0
I0
I255
tp5325
Rp5326
aV4
p5327
aasI11
(lp5328
I8
a(lp5329
I2
ag15
(I128
I0
I255
I255
tp5330
Rp5331
aV1
p5332
ag15
(I0
I0
I0
I255
tp5333
Rp5334
aV9
p5335
aassg23
V00:34 000ms
p5336
sba(ieffectgroup
EffectGroup
p5337
(dp5338
g3
(dp5339
I0
(lp5340
I12
a(lp5341
I8
ag15
(I255
I0
I0
I255
tp5342
Rp5343
aV1
p5344
ag15
(I0
I0
I0
I255
tp5345
Rp5346
aV12
p5347
ag15
(I255
I30
I0
I255
tp5348
Rp5349
aV1
p5350
ag15
(I0
I0
I0
I255
tp5351
Rp5352
aV12
p5353
ag15
(I255
I60
I0
I255
tp5354
Rp5355
aV1
p5356
ag15
(I0
I0
I0
I255
tp5357
Rp5358
aV12
p5359
ag15
(I30
I0
I255
I255
tp5360
Rp5361
aV1
p5362
ag15
(I0
I0
I0
I255
tp5363
Rp5364
aV1
p5365
aasI1
(lp5366
I12
a(lp5367
I8
ag15
(I255
I0
I0
I255
tp5368
Rp5369
aV1
p5370
ag15
(I0
I0
I0
I255
tp5371
Rp5372
aV12
p5373
ag15
(I255
I30
I0
I255
tp5374
Rp5375
aV1
p5376
ag15
(I0
I0
I0
I255
tp5377
Rp5378
aV12
p5379
ag15
(I255
I60
I0
I255
tp5380
Rp5381
aV1
p5382
ag15
(I0
I0
I0
I255
tp5383
Rp5384
aV12
p5385
ag15
(I30
I0
I255
I255
tp5386
Rp5387
aV1
p5388
ag15
(I0
I0
I0
I255
tp5389
Rp5390
aV1
p5391
aasI2
(lp5392
I12
a(lp5393
I8
ag15
(I255
I0
I0
I255
tp5394
Rp5395
aV1
p5396
ag15
(I0
I0
I0
I255
tp5397
Rp5398
aV12
p5399
ag15
(I255
I30
I0
I255
tp5400
Rp5401
aV1
p5402
ag15
(I0
I0
I0
I255
tp5403
Rp5404
aV12
p5405
ag15
(I255
I60
I0
I255
tp5406
Rp5407
aV1
p5408
ag15
(I0
I0
I0
I255
tp5409
Rp5410
aV12
p5411
ag15
(I30
I0
I255
I255
tp5412
Rp5413
aV1
p5414
ag15
(I0
I0
I0
I255
tp5415
Rp5416
aV1
p5417
aasI3
(lp5418
I12
a(lp5419
I8
ag15
(I255
I0
I0
I255
tp5420
Rp5421
aV1
p5422
ag15
(I0
I0
I0
I255
tp5423
Rp5424
aV12
p5425
ag15
(I255
I30
I0
I255
tp5426
Rp5427
aV1
p5428
ag15
(I0
I0
I0
I255
tp5429
Rp5430
aV12
p5431
ag15
(I255
I60
I0
I255
tp5432
Rp5433
aV1
p5434
ag15
(I0
I0
I0
I255
tp5435
Rp5436
aV12
p5437
ag15
(I30
I0
I255
I255
tp5438
Rp5439
aV1
p5440
ag15
(I0
I0
I0
I255
tp5441
Rp5442
aV1
p5443
aasI4
(lp5444
I3
a(lp5445
g15
(I0
I0
I60
I255
tp5446
Rp5447
aV1
p5448
aV32
p5449
aasI5
(lp5450
I10
a(lp5451
I4
ag15
(I128
I64
I0
I255
tp5452
Rp5453
aV4
p5454
ag15
(I0
I0
I0
I255
tp5455
Rp5456
aV32
p5457
ag15
(I0
I0
I255
I255
tp5458
Rp5459
aV4
p5460
ag15
(I0
I0
I0
I255
tp5461
Rp5462
aV32
p5463
aasI6
(lp5464
I10
a(lp5465
I4
ag15
(I128
I64
I0
I255
tp5466
Rp5467
aV4
p5468
ag15
(I0
I0
I0
I255
tp5469
Rp5470
aV32
p5471
ag15
(I0
I255
I0
I255
tp5472
Rp5473
aV4
p5474
ag15
(I0
I0
I0
I255
tp5475
Rp5476
aV32
p5477
aasI7
(lp5478
I3
a(lp5479
g15
(I0
I60
I0
I255
tp5480
Rp5481
aV1
p5482
aV32
p5483
aasI8
(lp5484
I12
a(lp5485
I8
ag15
(I255
I0
I0
I255
tp5486
Rp5487
aV1
p5488
ag15
(I0
I0
I0
I255
tp5489
Rp5490
aV12
p5491
ag15
(I255
I30
I0
I255
tp5492
Rp5493
aV1
p5494
ag15
(I0
I0
I0
I255
tp5495
Rp5496
aV12
p5497
ag15
(I255
I60
I0
I255
tp5498
Rp5499
aV1
p5500
ag15
(I0
I0
I0
I255
tp5501
Rp5502
aV12
p5503
ag15
(I0
I255
I0
I255
tp5504
Rp5505
aV1
p5506
ag15
(I0
I0
I0
I255
tp5507
Rp5508
aV1
p5509
aasI9
(lp5510
I12
a(lp5511
I8
ag15
(I255
I0
I0
I255
tp5512
Rp5513
aV1
p5514
ag15
(I0
I0
I0
I255
tp5515
Rp5516
aV12
p5517
ag15
(I255
I30
I0
I255
tp5518
Rp5519
aV1
p5520
ag15
(I0
I0
I0
I255
tp5521
Rp5522
aV12
p5523
ag15
(I255
I60
I0
I255
tp5524
Rp5525
aV1
p5526
ag15
(I0
I0
I0
I255
tp5527
Rp5528
aV12
p5529
ag15
(I0
I255
I0
I255
tp5530
Rp5531
aV1
p5532
ag15
(I0
I0
I0
I255
tp5533
Rp5534
aV1
p5535
aasI10
(lp5536
I12
a(lp5537
I8
ag15
(I255
I0
I0
I255
tp5538
Rp5539
aV1
p5540
ag15
(I0
I0
I0
I255
tp5541
Rp5542
aV12
p5543
ag15
(I255
I30
I0
I255
tp5544
Rp5545
aV1
p5546
ag15
(I0
I0
I0
I255
tp5547
Rp5548
aV12
p5549
ag15
(I255
I60
I0
I255
tp5550
Rp5551
aV1
p5552
ag15
(I0
I0
I0
I255
tp5553
Rp5554
aV12
p5555
ag15
(I0
I255
I0
I255
tp5556
Rp5557
aV1
p5558
ag15
(I0
I0
I0
I255
tp5559
Rp5560
aV1
p5561
aasI11
(lp5562
I12
a(lp5563
I8
ag15
(I255
I0
I0
I255
tp5564
Rp5565
aV1
p5566
ag15
(I0
I0
I0
I255
tp5567
Rp5568
aV12
p5569
ag15
(I255
I30
I0
I255
tp5570
Rp5571
aV1
p5572
ag15
(I0
I0
I0
I255
tp5573
Rp5574
aV12
p5575
ag15
(I255
I60
I0
I255
tp5576
Rp5577
aV1
p5578
ag15
(I0
I0
I0
I255
tp5579
Rp5580
aV12
p5581
ag15
(I0
I255
I0
I255
tp5582
Rp5583
aV1
p5584
ag15
(I0
I0
I0
I255
tp5585
Rp5586
aV1
p5587
aassg23
V00:34 500ms
p5588
sba(ieffectgroup
EffectGroup
p5589
(dp5590
g3
(dp5591
I0
(lp5592
I10
a(lp5593
I4
ag15
(I128
I0
I255
I255
tp5594
Rp5595
aV1
p5596
ag15
(I0
I0
I0
I255
tp5597
Rp5598
aV4
p5599
ag15
(I255
I0
I0
I255
tp5600
Rp5601
aV1
p5602
ag15
(I0
I0
I0
I255
tp5603
Rp5604
aV4
p5605
aasI1
(lp5606
I8
a(lp5607
I2
ag15
(I128
I0
I255
I255
tp5608
Rp5609
aV1
p5610
ag15
(I0
I0
I0
I255
tp5611
Rp5612
aV4
p5613
aasI2
(lp5614
I8
a(lp5615
I2
ag15
(I128
I0
I255
I255
tp5616
Rp5617
aV1
p5618
ag15
(I0
I0
I0
I255
tp5619
Rp5620
aV4
p5621
aasI3
(lp5622
I8
a(lp5623
I2
ag15
(I128
I0
I255
I255
tp5624
Rp5625
aV1
p5626
ag15
(I0
I0
I0
I255
tp5627
Rp5628
aV4
p5629
aasI4
(lp5630
I-1
aNasI5
(lp5631
I9
a(lp5632
I3
ag15
(I255
I0
I0
I255
tp5633
Rp5634
aV8
p5635
ag15
(I128
I0
I255
I255
tp5636
Rp5637
aV8
p5638
ag15
(I0
I0
I0
I255
tp5639
Rp5640
aV32
p5641
aasI6
(lp5642
I9
a(lp5643
I3
ag15
(I255
I0
I0
I255
tp5644
Rp5645
aV8
p5646
ag15
(I128
I0
I255
I255
tp5647
Rp5648
aV8
p5649
ag15
(I0
I0
I0
I255
tp5650
Rp5651
aV32
p5652
aasI7
(lp5653
I-1
aNasI8
(lp5654
I8
a(lp5655
I2
ag15
(I128
I0
I255
I255
tp5656
Rp5657
aV1
p5658
ag15
(I0
I0
I0
I255
tp5659
Rp5660
aV4
p5661
aasI9
(lp5662
I8
a(lp5663
I2
ag15
(I128
I0
I255
I255
tp5664
Rp5665
aV1
p5666
ag15
(I0
I0
I0
I255
tp5667
Rp5668
aV4
p5669
aasI10
(lp5670
I8
a(lp5671
I2
ag15
(I128
I0
I255
I255
tp5672
Rp5673
aV1
p5674
ag15
(I0
I0
I0
I255
tp5675
Rp5676
aV4
p5677
aasI11
(lp5678
I10
a(lp5679
I4
ag15
(I128
I0
I255
I255
tp5680
Rp5681
aV1
p5682
ag15
(I0
I0
I0
I255
tp5683
Rp5684
aV4
p5685
ag15
(I255
I0
I0
I255
tp5686
Rp5687
aV1
p5688
ag15
(I0
I0
I0
I255
tp5689
Rp5690
aV4
p5691
aassg23
V00:34 600ms
p5692
sba(ieffectgroup
EffectGroup
p5693
(dp5694
g3
(dp5695
I0
(lp5696
I-1
aNasI1
(lp5697
I-1
aNasI2
(lp5698
I-1
aNasI3
(lp5699
I-1
aNasI4
(lp5700
I-1
aNasI5
(lp5701
I-1
aNasI6
(lp5702
I-1
aNasI7
(lp5703
I-1
aNasI8
(lp5704
I-1
aNasI9
(lp5705
I-1
aNasI10
(lp5706
I-1
aNasI11
(lp5707
I-1
aNassg23
V00:36 000ms
p5708
sba(ieffectgroup
EffectGroup
p5709
(dp5710
g3
(dp5711
I0
(lp5712
I-1
aNasI1
(lp5713
I-1
aNasI2
(lp5714
I-1
aNasI3
(lp5715
I-1
aNasI4
(lp5716
I-1
aNasI5
(lp5717
I-1
aNasI6
(lp5718
I-1
aNasI7
(lp5719
I-1
aNasI8
(lp5720
I-1
aNasI9
(lp5721
I-1
aNasI10
(lp5722
I-1
aNasI11
(lp5723
I-1
aNassg23
V00:37 000ms
p5724
sba(ieffectgroup
EffectGroup
p5725
(dp5726
g3
(dp5727
I0
(lp5728
I-1
aNasI1
(lp5729
I-1
aNasI2
(lp5730
I-1
aNasI3
(lp5731
I-1
aNasI4
(lp5732
I-1
aNasI5
(lp5733
I-1
aNasI6
(lp5734
I-1
aNasI7
(lp5735
I-1
aNasI8
(lp5736
I-1
aNasI9
(lp5737
I-1
aNasI10
(lp5738
I-1
aNasI11
(lp5739
I-1
aNassg23
V00:38 000ms
p5740
sba(ieffectgroup
EffectGroup
p5741
(dp5742
g3
(dp5743
I0
(lp5744
I-1
aNasI1
(lp5745
I-1
aNasI2
(lp5746
I-1
aNasI3
(lp5747
I-1
aNasI4
(lp5748
I-1
aNasI5
(lp5749
I-1
aNasI6
(lp5750
I-1
aNasI7
(lp5751
I-1
aNasI8
(lp5752
I-1
aNasI9
(lp5753
I-1
aNasI10
(lp5754
I-1
aNasI11
(lp5755
I-1
aNassg23
V00:39 000ms
p5756
sba(ieffectgroup
EffectGroup
p5757
(dp5758
g3
(dp5759
I0
(lp5760
I-1
aNasI1
(lp5761
I-1
aNasI2
(lp5762
I-1
aNasI3
(lp5763
I-1
aNasI4
(lp5764
I-1
aNasI5
(lp5765
I-1
aNasI6
(lp5766
I-1
aNasI7
(lp5767
I-1
aNasI8
(lp5768
I-1
aNasI9
(lp5769
I-1
aNasI10
(lp5770
I-1
aNasI11
(lp5771
I-1
aNassg23
V00:40 000ms
p5772
sba(ieffectgroup
EffectGroup
p5773
(dp5774
g3
(dp5775
I0
(lp5776
I-1
aNasI1
(lp5777
I-1
aNasI2
(lp5778
I-1
aNasI3
(lp5779
I-1
aNasI4
(lp5780
I-1
aNasI5
(lp5781
I-1
aNasI6
(lp5782
I-1
aNasI7
(lp5783
I-1
aNasI8
(lp5784
I-1
aNasI9
(lp5785
I-1
aNasI10
(lp5786
I-1
aNasI11
(lp5787
I-1
aNassg23
V00:41 000ms
p5788
sba(ieffectgroup
EffectGroup
p5789
(dp5790
g3
(dp5791
I0
(lp5792
I-1
aNasI1
(lp5793
I-1
aNasI2
(lp5794
I-1
aNasI3
(lp5795
I-1
aNasI4
(lp5796
I-1
aNasI5
(lp5797
I-1
aNasI6
(lp5798
I-1
aNasI7
(lp5799
I-1
aNasI8
(lp5800
I-1
aNasI9
(lp5801
I-1
aNasI10
(lp5802
I-1
aNasI11
(lp5803
I-1
aNassg23
V00:42 000ms
p5804
sba(ieffectgroup
EffectGroup
p5805
(dp5806
g3
(dp5807
I0
(lp5808
I-1
aNasI1
(lp5809
I-1
aNasI2
(lp5810
I-1
aNasI3
(lp5811
I-1
aNasI4
(lp5812
I-1
aNasI5
(lp5813
I-1
aNasI6
(lp5814
I-1
aNasI7
(lp5815
I-1
aNasI8
(lp5816
I-1
aNasI9
(lp5817
I-1
aNasI10
(lp5818
I-1
aNasI11
(lp5819
I-1
aNassg23
V00:43 000ms
p5820
sba(ieffectgroup
EffectGroup
p5821
(dp5822
g3
(dp5823
I0
(lp5824
I-1
aNasI1
(lp5825
I-1
aNasI2
(lp5826
I-1
aNasI3
(lp5827
I-1
aNasI4
(lp5828
I-1
aNasI5
(lp5829
I-1
aNasI6
(lp5830
I-1
aNasI7
(lp5831
I-1
aNasI8
(lp5832
I-1
aNasI9
(lp5833
I-1
aNasI10
(lp5834
I-1
aNasI11
(lp5835
I-1
aNassg23
V00:44 000ms
p5836
sba(ieffectgroup
EffectGroup
p5837
(dp5838
g3
(dp5839
I0
(lp5840
I-1
aNasI1
(lp5841
I-1
aNasI2
(lp5842
I-1
aNasI3
(lp5843
I-1
aNasI4
(lp5844
I-1
aNasI5
(lp5845
I-1
aNasI6
(lp5846
I-1
aNasI7
(lp5847
I-1
aNasI8
(lp5848
I-1
aNasI9
(lp5849
I-1
aNasI10
(lp5850
I-1
aNasI11
(lp5851
I-1
aNassg23
V00:45 000ms
p5852
sba(ieffectgroup
EffectGroup
p5853
(dp5854
g3
(dp5855
I0
(lp5856
I-1
aNasI1
(lp5857
I-1
aNasI2
(lp5858
I-1
aNasI3
(lp5859
I-1
aNasI4
(lp5860
I-1
aNasI5
(lp5861
I-1
aNasI6
(lp5862
I-1
aNasI7
(lp5863
I-1
aNasI8
(lp5864
I-1
aNasI9
(lp5865
I-1
aNasI10
(lp5866
I-1
aNasI11
(lp5867
I-1
aNassg23
V00:46 000ms
p5868
sba(ieffectgroup
EffectGroup
p5869
(dp5870
g3
(dp5871
I0
(lp5872
I-1
aNasI1
(lp5873
I-1
aNasI2
(lp5874
I-1
aNasI3
(lp5875
I-1
aNasI4
(lp5876
I-1
aNasI5
(lp5877
I-1
aNasI6
(lp5878
I-1
aNasI7
(lp5879
I-1
aNasI8
(lp5880
I-1
aNasI9
(lp5881
I-1
aNasI10
(lp5882
I-1
aNasI11
(lp5883
I-1
aNassg23
V00:47 000ms
p5884
sba(ieffectgroup
EffectGroup
p5885
(dp5886
g3
(dp5887
I0
(lp5888
I-1
aNasI1
(lp5889
I-1
aNasI2
(lp5890
I-1
aNasI3
(lp5891
I-1
aNasI4
(lp5892
I-1
aNasI5
(lp5893
I-1
aNasI6
(lp5894
I-1
aNasI7
(lp5895
I-1
aNasI8
(lp5896
I-1
aNasI9
(lp5897
I-1
aNasI10
(lp5898
I-1
aNasI11
(lp5899
I-1
aNassg23
V00:48 000ms
p5900
sba(ieffectgroup
EffectGroup
p5901
(dp5902
g3
(dp5903
I0
(lp5904
I-1
aNasI1
(lp5905
I-1
aNasI2
(lp5906
I-1
aNasI3
(lp5907
I-1
aNasI4
(lp5908
I-1
aNasI5
(lp5909
I-1
aNasI6
(lp5910
I-1
aNasI7
(lp5911
I-1
aNasI8
(lp5912
I-1
aNasI9
(lp5913
I-1
aNasI10
(lp5914
I-1
aNasI11
(lp5915
I-1
aNassg23
V00:49 000ms
p5916
sba(ieffectgroup
EffectGroup
p5917
(dp5918
g3
(dp5919
I0
(lp5920
I-1
aNasI1
(lp5921
I-1
aNasI2
(lp5922
I-1
aNasI3
(lp5923
I-1
aNasI4
(lp5924
I-1
aNasI5
(lp5925
I-1
aNasI6
(lp5926
I-1
aNasI7
(lp5927
I-1
aNasI8
(lp5928
I-1
aNasI9
(lp5929
I-1
aNasI10
(lp5930
I-1
aNasI11
(lp5931
I-1
aNassg23
V00:50 000ms
p5932
sba.