(lp0
(ieffectgroup
EffectGroup
p1
(dp2
S'm_effects'
p3
(dp4
I0
(lp5
I-1
aNasI1
(lp6
I-1
aNasI2
(lp7
I-1
aNasI3
(lp8
I-1
aNasI4
(lp9
I-1
aNasI5
(lp10
I-1
aNasI6
(lp11
I-1
aNasI7
(lp12
I-1
aNasI8
(lp13
I-1
aNasI9
(lp14
I-1
aNassS'm_time'
p15
V00:01 000ms
p16
sba(ieffectgroup
EffectGroup
p17
(dp18
g3
(dp19
I0
(lp20
I-1
aNasI1
(lp21
I-1
aNasI2
(lp22
I-1
aNasI3
(lp23
I-1
aNasI4
(lp24
I-1
aNasI5
(lp25
I-1
aNasI6
(lp26
I-1
aNasI7
(lp27
I-1
aNasI8
(lp28
I-1
aNasI9
(lp29
I-1
aNassg15
V00:02 000ms
p30
sba(ieffectgroup
EffectGroup
p31
(dp32
g3
(dp33
I0
(lp34
I-1
aNasI1
(lp35
I-1
aNasI2
(lp36
I-1
aNasI3
(lp37
I-1
aNasI4
(lp38
I-1
aNasI5
(lp39
I-1
aNasI6
(lp40
I-1
aNasI7
(lp41
I-1
aNasI8
(lp42
I-1
aNasI9
(lp43
I-1
aNassg15
V00:03 000ms
p44
sba(ieffectgroup
EffectGroup
p45
(dp46
g3
(dp47
I0
(lp48
I-1
aNasI1
(lp49
I-1
aNasI2
(lp50
I-1
aNasI3
(lp51
I-1
aNasI4
(lp52
I-1
aNasI5
(lp53
I-1
aNasI6
(lp54
I-1
aNasI7
(lp55
I-1
aNasI8
(lp56
I-1
aNasI9
(lp57
I-1
aNassg15
V00:04 000ms
p58
sba(ieffectgroup
EffectGroup
p59
(dp60
g3
(dp61
I0
(lp62
I-1
aNasI1
(lp63
I-1
aNasI2
(lp64
I-1
aNasI3
(lp65
I-1
aNasI4
(lp66
I-1
aNasI5
(lp67
I-1
aNasI6
(lp68
I-1
aNasI7
(lp69
I-1
aNasI8
(lp70
I-1
aNasI9
(lp71
I-1
aNassg15
V00:05 000ms
p72
sba(ieffectgroup
EffectGroup
p73
(dp74
g3
(dp75
I0
(lp76
I-1
aNasI1
(lp77
I-1
aNasI2
(lp78
I-1
aNasI3
(lp79
I-1
aNasI4
(lp80
I-1
aNasI5
(lp81
I-1
aNasI6
(lp82
I-1
aNasI7
(lp83
I-1
aNasI8
(lp84
I-1
aNasI9
(lp85
I-1
aNassg15
V00:06 000ms
p86
sba(ieffectgroup
EffectGroup
p87
(dp88
g3
(dp89
I0
(lp90
I-1
aNasI1
(lp91
I-1
aNasI2
(lp92
I-1
aNasI3
(lp93
I-1
aNasI4
(lp94
I-1
aNasI5
(lp95
I-1
aNasI6
(lp96
I-1
aNasI7
(lp97
I-1
aNasI8
(lp98
I-1
aNasI9
(lp99
I-1
aNassg15
V00:07 000ms
p100
sba(ieffectgroup
EffectGroup
p101
(dp102
g3
(dp103
I0
(lp104
I-1
aNasI1
(lp105
I-1
aNasI2
(lp106
I-1
aNasI3
(lp107
I-1
aNasI4
(lp108
I-1
aNasI5
(lp109
I-1
aNasI6
(lp110
I-1
aNasI7
(lp111
I-1
aNasI8
(lp112
I-1
aNasI9
(lp113
I-1
aNassg15
V00:08 000ms
p114
sba(ieffectgroup
EffectGroup
p115
(dp116
g3
(dp117
I0
(lp118
I-1
aNasI1
(lp119
I-1
aNasI2
(lp120
I-1
aNasI3
(lp121
I-1
aNasI4
(lp122
I-1
aNasI5
(lp123
I-1
aNasI6
(lp124
I-1
aNasI7
(lp125
I-1
aNasI8
(lp126
I-1
aNasI9
(lp127
I-1
aNassg15
V00:09 000ms
p128
sba(ieffectgroup
EffectGroup
p129
(dp130
g3
(dp131
I0
(lp132
I-1
aNasI1
(lp133
I-1
aNasI2
(lp134
I-1
aNasI3
(lp135
I-1
aNasI4
(lp136
I-1
aNasI5
(lp137
I-1
aNasI6
(lp138
I-1
aNasI7
(lp139
I-1
aNasI8
(lp140
I-1
aNasI9
(lp141
I-1
aNassg15
V00:10 000ms
p142
sba.