(lp0
(ieffectgroup
EffectGroup
p1
(dp2
S'm_effects'
p3
(dp4
I0
(lp5
I1
a(lp6
cwx._gdi
Colour
p7
(I200
I0
I0
I255
tp8
Rp9
aasI1
(lp10
I-1
a(lp11
asI2
(lp12
I-1
a(lp13
asI3
(lp14
I-1
a(lp15
asI4
(lp16
I-1
a(lp17
asI5
(lp18
I-1
a(lp19
asI6
(lp20
I-1
a(lp21
asI7
(lp22
I-1
a(lp23
asI8
(lp24
I-1
a(lp25
asI9
(lp26
I1
a(lp27
g7
(I200
I0
I0
I255
tp28
Rp29
aassS'm_time'
p30
V00:01 000ms
p31
sba(ieffectgroup
EffectGroup
p32
(dp33
g3
(dp34
I0
(lp35
I-1
aNasI1
(lp36
I1
a(lp37
g7
(I200
I0
I0
I255
tp38
Rp39
aasI2
(lp40
I-1
aNasI3
(lp41
I-1
aNasI4
(lp42
I-1
aNasI5
(lp43
I-1
aNasI6
(lp44
I-1
aNasI7
(lp45
I-1
aNasI8
(lp46
I1
a(lp47
g7
(I200
I0
I0
I255
tp48
Rp49
aasI9
(lp50
I-1
aNassg30
V00:02 000ms
p51
sba(ieffectgroup
EffectGroup
p52
(dp53
g3
(dp54
I0
(lp55
I-1
aNasI1
(lp56
I-1
aNasI2
(lp57
I1
a(lp58
g7
(I200
I0
I0
I255
tp59
Rp60
aasI3
(lp61
I-1
aNasI4
(lp62
I-1
aNasI5
(lp63
I-1
aNasI6
(lp64
I-1
aNasI7
(lp65
I1
a(lp66
g7
(I200
I0
I0
I255
tp67
Rp68
aasI8
(lp69
I-1
aNasI9
(lp70
I-1
aNassg30
V00:03 000ms
p71
sba(ieffectgroup
EffectGroup
p72
(dp73
g3
(dp74
I0
(lp75
I-1
aNasI1
(lp76
I-1
aNasI2
(lp77
I-1
aNasI3
(lp78
I1
a(lp79
g7
(I200
I0
I0
I255
tp80
Rp81
aasI4
(lp82
I-1
a(lp83
asI5
(lp84
I-1
aNasI6
(lp85
I1
a(lp86
g7
(I200
I0
I0
I255
tp87
Rp88
aasI7
(lp89
I-1
aNasI8
(lp90
I-1
aNasI9
(lp91
I-1
aNassg30
V00:04 000ms
p92
sba(ieffectgroup
EffectGroup
p93
(dp94
g3
(dp95
I0
(lp96
I-1
aNasI1
(lp97
I-1
aNasI2
(lp98
I-1
aNasI3
(lp99
I-1
aNasI4
(lp100
I1
a(lp101
g7
(I0
I0
I200
I255
tp102
Rp103
aasI5
(lp104
I1
a(lp105
g7
(I0
I0
I200
I255
tp106
Rp107
aasI6
(lp108
I-1
aNasI7
(lp109
I-1
aNasI8
(lp110
I-1
aNasI9
(lp111
I-1
aNassg30
V00:05 000ms
p112
sba(ieffectgroup
EffectGroup
p113
(dp114
g3
(dp115
I0
(lp116
I-1
aNasI1
(lp117
I-1
aNasI2
(lp118
I-1
aNasI3
(lp119
I-1
aNasI4
(lp120
I-1
aNasI5
(lp121
I-1
aNasI6
(lp122
I-1
aNasI7
(lp123
I-1
aNasI8
(lp124
I-1
aNasI9
(lp125
I-1
aNassg30
V00:06 000ms
p126
sba(ieffectgroup
EffectGroup
p127
(dp128
g3
(dp129
I0
(lp130
I-1
a(lp131
asI1
(lp132
I-1
a(lp133
asI2
(lp134
I-1
a(lp135
asI3
(lp136
I-1
a(lp137
asI4
(lp138
I-1
a(lp139
asI5
(lp140
I-1
a(lp141
asI6
(lp142
I-1
a(lp143
asI7
(lp144
I-1
a(lp145
asI8
(lp146
I-1
a(lp147
asI9
(lp148
I-1
a(lp149
assg30
V00:07 000ms
p150
sba.