(lp0
(ieffectgroup
EffectGroup
p1
(dp2
S'm_effects'
p3
(dp4
I0
(lp5
I-1
aNasI1
(lp6
I-1
aNasI2
(lp7
I-1
aNasI3
(lp8
I-1
aNasI4
(lp9
I-1
aNasI5
(lp10
I-1
aNasI6
(lp11
I-1
aNasI7
(lp12
I-1
aNasI8
(lp13
I-1
aNasI9
(lp14
I-1
aNasI10
(lp15
I-1
aNasI11
(lp16
I-1
aNassS'm_time'
p17
V00:00 000ms
p18
sba(ieffectgroup
EffectGroup
p19
(dp20
g3
(dp21
I0
(lp22
I-1
aNasI1
(lp23
I-1
aNasI2
(lp24
I-1
aNasI3
(lp25
I-1
aNasI4
(lp26
I-1
aNasI5
(lp27
I-1
aNasI6
(lp28
I-1
aNasI7
(lp29
I-1
aNasI8
(lp30
I-1
aNasI9
(lp31
I-1
aNasI10
(lp32
I-1
aNasI11
(lp33
I-1
aNassg17
V00:01 000ms
p34
sba(ieffectgroup
EffectGroup
p35
(dp36
g3
(dp37
I0
(lp38
I-1
aNasI1
(lp39
I-1
aNasI2
(lp40
I-1
aNasI3
(lp41
I-1
aNasI4
(lp42
I-1
aNasI5
(lp43
I-1
aNasI6
(lp44
I-1
aNasI7
(lp45
I-1
aNasI8
(lp46
I-1
aNasI9
(lp47
I-1
aNasI10
(lp48
I-1
aNasI11
(lp49
I-1
aNassg17
V00:02 000ms
p50
sba(ieffectgroup
EffectGroup
p51
(dp52
g3
(dp53
I0
(lp54
I-1
aNasI1
(lp55
I-1
aNasI2
(lp56
I-1
aNasI3
(lp57
I-1
aNasI4
(lp58
I-1
aNasI5
(lp59
I-1
aNasI6
(lp60
I-1
aNasI7
(lp61
I-1
aNasI8
(lp62
I-1
aNasI9
(lp63
I-1
aNasI10
(lp64
I-1
aNasI11
(lp65
I-1
aNassg17
V00:03 000ms
p66
sba(ieffectgroup
EffectGroup
p67
(dp68
g3
(dp69
I0
(lp70
I-1
aNasI1
(lp71
I-1
aNasI2
(lp72
I-1
aNasI3
(lp73
I-1
aNasI4
(lp74
I-1
aNasI5
(lp75
I-1
aNasI6
(lp76
I-1
aNasI7
(lp77
I-1
aNasI8
(lp78
I-1
aNasI9
(lp79
I-1
aNasI10
(lp80
I-1
aNasI11
(lp81
I-1
aNassg17
V00:04 000ms
p82
sba(ieffectgroup
EffectGroup
p83
(dp84
g3
(dp85
I0
(lp86
I-1
aNasI1
(lp87
I-1
aNasI2
(lp88
I-1
aNasI3
(lp89
I-1
aNasI4
(lp90
I-1
aNasI5
(lp91
I-1
aNasI6
(lp92
I-1
aNasI7
(lp93
I-1
aNasI8
(lp94
I-1
aNasI9
(lp95
I-1
aNasI10
(lp96
I-1
aNasI11
(lp97
I-1
aNassg17
V00:05 000ms
p98
sba(ieffectgroup
EffectGroup
p99
(dp100
g3
(dp101
I0
(lp102
I-1
aNasI1
(lp103
I-1
aNasI2
(lp104
I-1
aNasI3
(lp105
I-1
aNasI4
(lp106
I-1
aNasI5
(lp107
I-1
aNasI6
(lp108
I-1
aNasI7
(lp109
I-1
aNasI8
(lp110
I-1
aNasI9
(lp111
I-1
aNasI10
(lp112
I-1
aNasI11
(lp113
I-1
aNassg17
V00:06 000ms
p114
sba(ieffectgroup
EffectGroup
p115
(dp116
g3
(dp117
I0
(lp118
I-1
aNasI1
(lp119
I-1
aNasI2
(lp120
I-1
aNasI3
(lp121
I-1
aNasI4
(lp122
I-1
aNasI5
(lp123
I-1
aNasI6
(lp124
I-1
aNasI7
(lp125
I-1
aNasI8
(lp126
I-1
aNasI9
(lp127
I-1
aNasI10
(lp128
I-1
aNasI11
(lp129
I-1
aNassg17
V00:07 000ms
p130
sba(ieffectgroup
EffectGroup
p131
(dp132
g3
(dp133
I0
(lp134
I-1
aNasI1
(lp135
I-1
aNasI2
(lp136
I-1
aNasI3
(lp137
I-1
aNasI4
(lp138
I-1
aNasI5
(lp139
I-1
aNasI6
(lp140
I-1
aNasI7
(lp141
I-1
aNasI8
(lp142
I-1
aNasI9
(lp143
I-1
aNasI10
(lp144
I-1
aNasI11
(lp145
I-1
aNassg17
V00:08 000ms
p146
sba(ieffectgroup
EffectGroup
p147
(dp148
g3
(dp149
I0
(lp150
I-1
aNasI1
(lp151
I-1
aNasI2
(lp152
I-1
aNasI3
(lp153
I-1
aNasI4
(lp154
I-1
aNasI5
(lp155
I-1
aNasI6
(lp156
I-1
aNasI7
(lp157
I-1
aNasI8
(lp158
I-1
aNasI9
(lp159
I-1
aNasI10
(lp160
I-1
aNasI11
(lp161
I-1
aNassg17
V00:09 000ms
p162
sba(ieffectgroup
EffectGroup
p163
(dp164
g3
(dp165
I0
(lp166
I-1
aNasI1
(lp167
I-1
aNasI2
(lp168
I-1
aNasI3
(lp169
I-1
aNasI4
(lp170
I-1
aNasI5
(lp171
I-1
aNasI6
(lp172
I-1
aNasI7
(lp173
I-1
aNasI8
(lp174
I-1
aNasI9
(lp175
I-1
aNasI10
(lp176
I-1
aNasI11
(lp177
I-1
aNassg17
V00:10 000ms
p178
sba(ieffectgroup
EffectGroup
p179
(dp180
g3
(dp181
I0
(lp182
I-1
aNasI1
(lp183
I-1
aNasI2
(lp184
I-1
aNasI3
(lp185
I-1
aNasI4
(lp186
I-1
aNasI5
(lp187
I-1
aNasI6
(lp188
I-1
aNasI7
(lp189
I-1
aNasI8
(lp190
I-1
aNasI9
(lp191
I-1
aNasI10
(lp192
I-1
aNasI11
(lp193
I-1
aNassg17
V00:11 000ms
p194
sba(ieffectgroup
EffectGroup
p195
(dp196
g3
(dp197
I0
(lp198
I-1
aNasI1
(lp199
I-1
aNasI2
(lp200
I-1
aNasI3
(lp201
I-1
aNasI4
(lp202
I-1
aNasI5
(lp203
I-1
aNasI6
(lp204
I-1
aNasI7
(lp205
I-1
aNasI8
(lp206
I-1
aNasI9
(lp207
I-1
aNasI10
(lp208
I-1
aNasI11
(lp209
I-1
aNassg17
V00:12 000ms
p210
sba(ieffectgroup
EffectGroup
p211
(dp212
g3
(dp213
I0
(lp214
I-1
aNasI1
(lp215
I-1
aNasI2
(lp216
I-1
aNasI3
(lp217
I-1
aNasI4
(lp218
I-1
aNasI5
(lp219
I-1
aNasI6
(lp220
I-1
aNasI7
(lp221
I-1
aNasI8
(lp222
I-1
aNasI9
(lp223
I-1
aNasI10
(lp224
I-1
aNasI11
(lp225
I-1
aNassg17
V00:13 000ms
p226
sba(ieffectgroup
EffectGroup
p227
(dp228
g3
(dp229
I0
(lp230
I-1
aNasI1
(lp231
I-1
aNasI2
(lp232
I-1
aNasI3
(lp233
I-1
aNasI4
(lp234
I-1
aNasI5
(lp235
I-1
aNasI6
(lp236
I-1
aNasI7
(lp237
I-1
aNasI8
(lp238
I-1
aNasI9
(lp239
I-1
aNasI10
(lp240
I-1
aNasI11
(lp241
I-1
aNassg17
V00:14 000ms
p242
sba(ieffectgroup
EffectGroup
p243
(dp244
g3
(dp245
I0
(lp246
I-1
aNasI1
(lp247
I-1
aNasI2
(lp248
I-1
aNasI3
(lp249
I-1
aNasI4
(lp250
I-1
aNasI5
(lp251
I-1
aNasI6
(lp252
I-1
aNasI7
(lp253
I-1
aNasI8
(lp254
I-1
aNasI9
(lp255
I-1
aNasI10
(lp256
I-1
aNasI11
(lp257
I-1
aNassg17
V00:15 000ms
p258
sba(ieffectgroup
EffectGroup
p259
(dp260
g3
(dp261
I0
(lp262
I-1
aNasI1
(lp263
I-1
aNasI2
(lp264
I-1
aNasI3
(lp265
I-1
aNasI4
(lp266
I-1
aNasI5
(lp267
I-1
aNasI6
(lp268
I-1
aNasI7
(lp269
I-1
aNasI8
(lp270
I-1
aNasI9
(lp271
I-1
aNasI10
(lp272
I-1
aNasI11
(lp273
I-1
aNassg17
V00:16 000ms
p274
sba(ieffectgroup
EffectGroup
p275
(dp276
g3
(dp277
I0
(lp278
I-1
aNasI1
(lp279
I-1
aNasI2
(lp280
I-1
aNasI3
(lp281
I-1
aNasI4
(lp282
I-1
aNasI5
(lp283
I-1
aNasI6
(lp284
I-1
aNasI7
(lp285
I-1
aNasI8
(lp286
I-1
aNasI9
(lp287
I-1
aNasI10
(lp288
I-1
aNasI11
(lp289
I-1
aNassg17
V00:17 000ms
p290
sba(ieffectgroup
EffectGroup
p291
(dp292
g3
(dp293
I0
(lp294
I-1
aNasI1
(lp295
I-1
aNasI2
(lp296
I-1
aNasI3
(lp297
I-1
aNasI4
(lp298
I-1
aNasI5
(lp299
I-1
aNasI6
(lp300
I-1
aNasI7
(lp301
I-1
aNasI8
(lp302
I-1
aNasI9
(lp303
I-1
aNasI10
(lp304
I-1
aNasI11
(lp305
I-1
aNassg17
V00:18 000ms
p306
sba(ieffectgroup
EffectGroup
p307
(dp308
g3
(dp309
I0
(lp310
I-1
aNasI1
(lp311
I-1
aNasI2
(lp312
I-1
aNasI3
(lp313
I-1
aNasI4
(lp314
I-1
aNasI5
(lp315
I-1
aNasI6
(lp316
I-1
aNasI7
(lp317
I-1
aNasI8
(lp318
I-1
aNasI9
(lp319
I-1
aNasI10
(lp320
I-1
aNasI11
(lp321
I-1
aNassg17
V00:19 000ms
p322
sba(ieffectgroup
EffectGroup
p323
(dp324
g3
(dp325
I0
(lp326
I-1
aNasI1
(lp327
I-1
aNasI2
(lp328
I-1
aNasI3
(lp329
I-1
aNasI4
(lp330
I-1
aNasI5
(lp331
I-1
aNasI6
(lp332
I-1
aNasI7
(lp333
I-1
aNasI8
(lp334
I-1
aNasI9
(lp335
I-1
aNasI10
(lp336
I-1
aNasI11
(lp337
I-1
aNassg17
V00:20 000ms
p338
sba.