(lp0
(ieffectgroup
EffectGroup
p1
(dp2
S'm_effects'
p3
(dp4
I0
(lp5
I1
a(lp6
cwx._gdi
Colour
p7
(I0
I0
I0
I255
tp8
Rp9
aasI1
(lp10
I-1
a(lp11
asI2
(lp12
I-1
aNasI3
(lp13
I-1
aNasI4
(lp14
I-1
aNasI5
(lp15
I-1
aNasI6
(lp16
I-1
aNasI7
(lp17
I-1
aNasI8
(lp18
I-1
aNasI9
(lp19
I-1
aNassS'm_time'
p20
V00:01 000ms
p21
sba(ieffectgroup
EffectGroup
p22
(dp23
g3
(dp24
I0
(lp25
I-1
aNasI1
(lp26
I-1
aNasI2
(lp27
I-1
aNasI3
(lp28
I-1
aNasI4
(lp29
I1
a(lp30
g7
(I0
I0
I5
I255
tp31
Rp32
aasI5
(lp33
I6
a(lp34
g7
(I0
I0
I0
I255
tp35
Rp36
ag7
(I50
I50
I50
I255
tp37
Rp38
aV100
p39
aV1
p40
aV1
p41
aasI6
(lp42
I-1
aNasI7
(lp43
I-1
aNasI8
(lp44
I-1
aNasI9
(lp45
I-1
aNassg20
V00:02 000ms
p46
sba(ieffectgroup
EffectGroup
p47
(dp48
g3
(dp49
I0
(lp50
I-1
aNasI1
(lp51
I-1
aNasI2
(lp52
I-1
aNasI3
(lp53
I-1
aNasI4
(lp54
I5
a(lp55
g7
(I0
I0
I0
I255
tp56
Rp57
ag7
(I100
I100
I100
I255
tp58
Rp59
aV50
p60
aV2
p61
aV16
p62
aasI5
(lp63
I6
a(lp64
g7
(I0
I0
I0
I255
tp65
Rp66
ag7
(I50
I50
I50
I255
tp67
Rp68
aV100
p69
aV1
p70
aV5
p71
aasI6
(lp72
I-1
aNasI7
(lp73
I-1
aNasI8
(lp74
I-1
aNasI9
(lp75
I-1
aNassg20
V00:03 000ms
p76
sba(ieffectgroup
EffectGroup
p77
(dp78
g3
(dp79
I0
(lp80
I-1
aNasI1
(lp81
I-1
aNasI2
(lp82
I-1
aNasI3
(lp83
I-1
a(lp84
asI4
(lp85
I3
a(lp86
g7
(I1
I1
I0
I255
tp87
Rp88
aV1
p89
aV8
p90
aasI5
(lp91
I6
a(lp92
g7
(I0
I0
I0
I255
tp93
Rp94
ag7
(I50
I50
I50
I255
tp95
Rp96
aV100
p97
aV1
p98
aV20
p99
aasI6
(lp100
I-1
aNasI7
(lp101
I-1
aNasI8
(lp102
I-1
aNasI9
(lp103
I-1
aNassg20
V00:04 000ms
p104
sba(ieffectgroup
EffectGroup
p105
(dp106
g3
(dp107
I0
(lp108
I-1
aNasI1
(lp109
I-1
aNasI2
(lp110
I-1
aNasI3
(lp111
I-1
aNasI4
(lp112
I3
a(lp113
g7
(I15
I15
I0
I255
tp114
Rp115
aV1
p116
aV8
p117
aasI5
(lp118
I6
a(lp119
g7
(I0
I0
I0
I255
tp120
Rp121
ag7
(I50
I50
I50
I255
tp122
Rp123
aV100
p124
aV1
p125
aV50
p126
aasI6
(lp127
I-1
a(lp128
asI7
(lp129
I-1
aNasI8
(lp130
I-1
aNasI9
(lp131
I-1
aNassg20
V00:05 000ms
p132
sba(ieffectgroup
EffectGroup
p133
(dp134
g3
(dp135
I0
(lp136
I-1
aNasI1
(lp137
I-1
aNasI2
(lp138
I-1
aNasI3
(lp139
I-1
aNasI4
(lp140
I3
a(lp141
g7
(I30
I30
I0
I255
tp142
Rp143
aV1
p144
aV8
p145
aasI5
(lp146
I8
a(lp147
I2
ag7
(I0
I30
I30
I255
tp148
Rp149
aV3
p150
ag7
(I0
I1
I0
I255
tp151
Rp152
aV12
p153
aasI6
(lp154
I-1
aNasI7
(lp155
I-1
aNasI8
(lp156
I-1
aNasI9
(lp157
I-1
aNassg20
V00:06 000ms
p158
sba(ieffectgroup
EffectGroup
p159
(dp160
g3
(dp161
I0
(lp162
I-1
aNasI1
(lp163
I-1
aNasI2
(lp164
I-1
aNasI3
(lp165
I-1
aNasI4
(lp166
I3
a(lp167
g7
(I60
I60
I0
I255
tp168
Rp169
aV1
p170
aV8
p171
aasI5
(lp172
I8
a(lp173
I2
ag7
(I0
I30
I30
I255
tp174
Rp175
aV3
p176
ag7
(I0
I1
I0
I255
tp177
Rp178
aV12
p179
aasI6
(lp180
I-1
aNasI7
(lp181
I-1
aNasI8
(lp182
I-1
aNasI9
(lp183
I-1
aNassg20
V00:07 000ms
p184
sba(ieffectgroup
EffectGroup
p185
(dp186
g3
(dp187
I0
(lp188
I-1
aNasI1
(lp189
I-1
aNasI2
(lp190
I-1
aNasI3
(lp191
I-1
aNasI4
(lp192
I5
a(lp193
g7
(I60
I60
I0
I255
tp194
Rp195
ag7
(I255
I255
I255
I255
tp196
Rp197
aV100
p198
aV1
p199
aV8
p200
aasI5
(lp201
I8
a(lp202
I2
ag7
(I0
I30
I30
I255
tp203
Rp204
aV3
p205
ag7
(I0
I1
I0
I255
tp206
Rp207
aV12
p208
aasI6
(lp209
I-1
aNasI7
(lp210
I-1
aNasI8
(lp211
I-1
aNasI9
(lp212
I-1
aNassg20
V00:08 000ms
p213
sba(ieffectgroup
EffectGroup
p214
(dp215
g3
(dp216
I0
(lp217
I3
a(lp218
g7
(I0
I0
I1
I255
tp219
Rp220
aV1
p221
aV32
p222
aasI1
(lp223
I3
a(lp224
g7
(I0
I0
I1
I255
tp225
Rp226
aV1
p227
aV32
p228
aasI2
(lp229
I3
a(lp230
g7
(I0
I0
I1
I255
tp231
Rp232
aV1
p233
aV32
p234
aasI3
(lp235
I3
a(lp236
g7
(I0
I0
I1
I255
tp237
Rp238
aV1
p239
aV32
p240
aasI4
(lp241
I-1
aNasI5
(lp242
I-1
aNasI6
(lp243
I3
a(lp244
g7
(I0
I0
I1
I255
tp245
Rp246
aV1
p247
aV32
p248
aasI7
(lp249
I3
a(lp250
g7
(I0
I0
I1
I255
tp251
Rp252
aV1
p253
aV32
p254
aasI8
(lp255
I3
a(lp256
g7
(I0
I0
I1
I255
tp257
Rp258
aV1
p259
aV32
p260
aasI9
(lp261
I3
a(lp262
g7
(I0
I0
I1
I255
tp263
Rp264
aV1
p265
aV32
p266
aassg20
V00:10 000ms
p267
sba(ieffectgroup
EffectGroup
p268
(dp269
g3
(dp270
I0
(lp271
I3
a(lp272
g7
(I0
I0
I1
I255
tp273
Rp274
aV1
p275
aV32
p276
aasI1
(lp277
I3
a(lp278
g7
(I0
I0
I1
I255
tp279
Rp280
aV1
p281
aV32
p282
aasI2
(lp283
I3
a(lp284
g7
(I0
I0
I1
I255
tp285
Rp286
aV1
p287
aV32
p288
aasI3
(lp289
I3
a(lp290
g7
(I0
I0
I1
I255
tp291
Rp292
aV1
p293
aV32
p294
aasI4
(lp295
I3
a(lp296
g7
(I0
I0
I1
I255
tp297
Rp298
aV1
p299
aV32
p300
aasI5
(lp301
I-1
a(lp302
asI6
(lp303
I-1
aNasI7
(lp304
I-1
aNasI8
(lp305
I-1
aNasI9
(lp306
I-1
aNassg20
V00:11 000ms
p307
sba(ieffectgroup
EffectGroup
p308
(dp309
g3
(dp310
I0
(lp311
I-1
aNasI1
(lp312
I-1
aNasI2
(lp313
I-1
aNasI3
(lp314
I-1
aNasI4
(lp315
I3
a(lp316
g7
(I0
I0
I15
I255
tp317
Rp318
aV1
p319
aV32
p320
aasI5
(lp321
I1
a(lp322
g7
(I15
I0
I15
I255
tp323
Rp324
aasI6
(lp325
I-1
aNasI7
(lp326
I-1
aNasI8
(lp327
I-1
aNasI9
(lp328
I-1
aNassg20
V00:12 000ms
p329
sba(ieffectgroup
EffectGroup
p330
(dp331
g3
(dp332
I0
(lp333
I1
a(lp334
g7
(I0
I0
I0
I255
tp335
Rp336
aasI1
(lp337
I-1
aNasI2
(lp338
I-1
aNasI3
(lp339
I-1
aNasI4
(lp340
I-1
aNasI5
(lp341
I-1
aNasI6
(lp342
I-1
aNasI7
(lp343
I-1
aNasI8
(lp344
I-1
aNasI9
(lp345
I-1
aNassg20
V00:13 000ms
p346
sba(ieffectgroup
EffectGroup
p347
(dp348
g3
(dp349
I0
(lp350
I11
a(lp351
I6
ag7
(I0
I50
I50
I255
tp352
Rp353
aV1
p354
ag7
(I0
I0
I0
I255
tp355
Rp356
aV4
p357
ag7
(I0
I0
I70
I255
tp358
Rp359
aV1
p360
ag7
(I0
I0
I0
I255
tp361
Rp362
aV4
p363
ag7
(I0
I0
I70
I255
tp364
Rp365
aV1
p366
ag7
(I0
I0
I0
I255
tp367
Rp368
aV4
p369
aasI1
(lp370
I11
a(lp371
I6
ag7
(I0
I0
I70
I255
tp372
Rp373
aV1
p374
ag7
(I0
I0
I0
I255
tp375
Rp376
aV4
p377
ag7
(I0
I0
I70
I255
tp378
Rp379
aV1
p380
ag7
(I0
I0
I0
I255
tp381
Rp382
aV4
p383
ag7
(I50
I0
I50
I255
tp384
Rp385
aV1
p386
ag7
(I0
I0
I0
I255
tp387
Rp388
aV1
p389
aasI2
(lp390
I11
a(lp391
I6
ag7
(I0
I50
I50
I255
tp392
Rp393
aV1
p394
ag7
(I0
I0
I0
I255
tp395
Rp396
aV4
p397
ag7
(I0
I0
I70
I255
tp398
Rp399
aV1
p400
ag7
(I0
I0
I0
I255
tp401
Rp402
aV4
p403
ag7
(I0
I0
I70
I255
tp404
Rp405
aV1
p406
ag7
(I0
I0
I0
I255
tp407
Rp408
aV4
p409
aasI3
(lp410
I11
a(lp411
I6
ag7
(I0
I50
I50
I255
tp412
Rp413
aV1
p414
ag7
(I0
I0
I0
I255
tp415
Rp416
aV4
p417
ag7
(I0
I0
I70
I255
tp418
Rp419
aV1
p420
ag7
(I0
I0
I0
I255
tp421
Rp422
aV4
p423
ag7
(I0
I0
I70
I255
tp424
Rp425
aV1
p426
ag7
(I0
I0
I0
I255
tp427
Rp428
aV4
p429
aasI4
(lp430
I-1
a(lp431
asI5
(lp432
I-1
a(lp433
asI6
(lp434
I11
a(lp435
I6
ag7
(I0
I50
I50
I255
tp436
Rp437
aV1
p438
ag7
(I0
I0
I0
I255
tp439
Rp440
aV4
p441
ag7
(I0
I0
I70
I255
tp442
Rp443
aV1
p444
ag7
(I0
I0
I0
I255
tp445
Rp446
aV4
p447
ag7
(I0
I0
I70
I255
tp448
Rp449
aV1
p450
ag7
(I0
I0
I0
I255
tp451
Rp452
aV4
p453
aasI7
(lp454
I11
a(lp455
I6
ag7
(I0
I50
I50
I255
tp456
Rp457
aV1
p458
ag7
(I0
I0
I0
I255
tp459
Rp460
aV4
p461
ag7
(I0
I0
I70
I255
tp462
Rp463
aV1
p464
ag7
(I0
I0
I0
I255
tp465
Rp466
aV4
p467
ag7
(I0
I0
I70
I255
tp468
Rp469
aV1
p470
ag7
(I0
I0
I0
I255
tp471
Rp472
aV4
p473
aasI8
(lp474
I11
a(lp475
I6
ag7
(I0
I0
I70
I255
tp476
Rp477
aV1
p478
ag7
(I0
I0
I0
I255
tp479
Rp480
aV4
p481
ag7
(I0
I0
I70
I255
tp482
Rp483
aV1
p484
ag7
(I0
I0
I0
I255
tp485
Rp486
aV4
p487
ag7
(I50
I0
I50
I255
tp488
Rp489
aV1
p490
ag7
(I0
I0
I0
I255
tp491
Rp492
aV4
p493
aasI9
(lp494
I11
a(lp495
I6
ag7
(I0
I50
I50
I255
tp496
Rp497
aV1
p498
ag7
(I0
I0
I0
I255
tp499
Rp500
aV4
p501
ag7
(I0
I0
I70
I255
tp502
Rp503
aV1
p504
ag7
(I0
I0
I0
I255
tp505
Rp506
aV4
p507
ag7
(I0
I0
I70
I255
tp508
Rp509
aV1
p510
ag7
(I0
I0
I0
I255
tp511
Rp512
aV4
p513
aassg20
V00:14 000ms
p514
sba(ieffectgroup
EffectGroup
p515
(dp516
g3
(dp517
I0
(lp518
I-1
aNasI1
(lp519
I-1
aNasI2
(lp520
I-1
aNasI3
(lp521
I-1
aNasI4
(lp522
I5
a(lp523
g7
(I0
I0
I70
I255
tp524
Rp525
ag7
(I100
I0
I0
I255
tp526
Rp527
aV170
p528
aV1
p529
aV32
p530
aasI5
(lp531
I5
a(lp532
g7
(I0
I0
I70
I255
tp533
Rp534
ag7
(I100
I0
I0
I255
tp535
Rp536
aV170
p537
aV1
p538
aV32
p539
aasI6
(lp540
I-1
aNasI7
(lp541
I-1
aNasI8
(lp542
I-1
aNasI9
(lp543
I-1
aNassg20
V00:15 000ms
p544
sba(ieffectgroup
EffectGroup
p545
(dp546
g3
(dp547
I0
(lp548
I3
a(lp549
g7
(I0
I0
I3
I255
tp550
Rp551
aV2
p552
aV32
p553
aasI1
(lp554
I3
a(lp555
g7
(I0
I0
I3
I255
tp556
Rp557
aV2
p558
aV32
p559
aasI2
(lp560
I3
a(lp561
g7
(I0
I0
I3
I255
tp562
Rp563
aV2
p564
aV32
p565
aasI3
(lp566
I3
a(lp567
g7
(I0
I0
I3
I255
tp568
Rp569
aV2
p570
aV32
p571
aasI4
(lp572
I-1
a(lp573
asI5
(lp574
I-1
a(lp575
asI6
(lp576
I3
a(lp577
g7
(I0
I0
I3
I255
tp578
Rp579
aV2
p580
aV32
p581
aasI7
(lp582
I3
a(lp583
g7
(I0
I0
I3
I255
tp584
Rp585
aV2
p586
aV32
p587
aasI8
(lp588
I3
a(lp589
g7
(I0
I0
I3
I255
tp590
Rp591
aV2
p592
aV32
p593
aasI9
(lp594
I3
a(lp595
g7
(I0
I0
I3
I255
tp596
Rp597
aV2
p598
aV32
p599
aassg20
V00:16 000ms
p600
sba(ieffectgroup
EffectGroup
p601
(dp602
g3
(dp603
I0
(lp604
I5
a(lp605
g7
(I0
I0
I5
I255
tp606
Rp607
ag7
(I12
I10
I10
I255
tp608
Rp609
aV200
p610
aV4
p611
aV32
p612
aasI1
(lp613
I5
a(lp614
g7
(I0
I0
I5
I255
tp615
Rp616
ag7
(I25
I0
I0
I255
tp617
Rp618
aV200
p619
aV4
p620
aV32
p621
aasI2
(lp622
I5
a(lp623
g7
(I0
I0
I5
I255
tp624
Rp625
ag7
(I12
I10
I10
I255
tp626
Rp627
aV200
p628
aV4
p629
aV32
p630
aasI3
(lp631
I5
a(lp632
g7
(I0
I0
I5
I255
tp633
Rp634
ag7
(I25
I0
I0
I255
tp635
Rp636
aV200
p637
aV4
p638
aV32
p639
aasI4
(lp640
I-1
a(lp641
asI5
(lp642
I-1
a(lp643
asI6
(lp644
I5
a(lp645
g7
(I0
I0
I5
I255
tp646
Rp647
ag7
(I25
I0
I0
I255
tp648
Rp649
aV200
p650
aV4
p651
aV32
p652
aasI7
(lp653
I5
a(lp654
g7
(I0
I0
I5
I255
tp655
Rp656
ag7
(I12
I10
I10
I255
tp657
Rp658
aV200
p659
aV4
p660
aV32
p661
aasI8
(lp662
I5
a(lp663
g7
(I0
I0
I5
I255
tp664
Rp665
ag7
(I25
I0
I0
I255
tp666
Rp667
aV200
p668
aV4
p669
aV32
p670
aasI9
(lp671
I5
a(lp672
g7
(I0
I0
I5
I255
tp673
Rp674
ag7
(I12
I10
I10
I255
tp675
Rp676
aV200
p677
aV4
p678
aV32
p679
aassg20
V00:17 000ms
p680
sba(ieffectgroup
EffectGroup
p681
(dp682
g3
(dp683
I0
(lp684
I8
a(lp685
I2
ag7
(I12
I10
I10
I255
tp686
Rp687
aV2
p688
ag7
(I0
I0
I0
I255
tp689
Rp690
aV12
p691
aasI1
(lp692
I8
a(lp693
I2
ag7
(I25
I0
I0
I255
tp694
Rp695
aV2
p696
ag7
(I0
I0
I0
I255
tp697
Rp698
aV12
p699
aasI2
(lp700
I8
a(lp701
I2
ag7
(I12
I10
I10
I255
tp702
Rp703
aV2
p704
ag7
(I0
I0
I0
I255
tp705
Rp706
aV12
p707
aasI3
(lp708
I8
a(lp709
I2
ag7
(I25
I0
I0
I255
tp710
Rp711
aV2
p712
ag7
(I0
I0
I0
I255
tp713
Rp714
aV12
p715
aasI4
(lp716
I-1
a(lp717
asI5
(lp718
I-1
a(lp719
asI6
(lp720
I8
a(lp721
I2
ag7
(I25
I0
I0
I255
tp722
Rp723
aV2
p724
ag7
(I0
I0
I0
I255
tp725
Rp726
aV12
p727
aasI7
(lp728
I8
a(lp729
I2
ag7
(I12
I10
I10
I255
tp730
Rp731
aV2
p732
ag7
(I0
I0
I0
I255
tp733
Rp734
aV12
p735
aasI8
(lp736
I8
a(lp737
I2
ag7
(I25
I0
I0
I255
tp738
Rp739
aV2
p740
ag7
(I0
I0
I0
I255
tp741
Rp742
aV12
p743
aasI9
(lp744
I8
a(lp745
I2
ag7
(I12
I10
I10
I255
tp746
Rp747
aV2
p748
ag7
(I0
I0
I0
I255
tp749
Rp750
aV12
p751
aassg20
V00:18 000ms
p752
sba(ieffectgroup
EffectGroup
p753
(dp754
g3
(dp755
I0
(lp756
I-1
a(lp757
asI1
(lp758
I8
a(lp759
I2
ag7
(I25
I0
I0
I255
tp760
Rp761
aV2
p762
ag7
(I0
I0
I0
I255
tp763
Rp764
aV12
p765
aasI2
(lp766
I8
a(lp767
I2
ag7
(I12
I10
I10
I255
tp768
Rp769
aV2
p770
ag7
(I0
I0
I0
I255
tp771
Rp772
aV12
p773
aasI3
(lp774
I8
a(lp775
I2
ag7
(I25
I0
I0
I255
tp776
Rp777
aV2
p778
ag7
(I0
I0
I0
I255
tp779
Rp780
aV12
p781
aasI4
(lp782
I10
a(lp783
I4
ag7
(I0
I100
I0
I255
tp784
Rp785
aV1
p786
ag7
(I0
I0
I0
I255
tp787
Rp788
aV4
p789
ag7
(I75
I100
I0
I255
tp790
Rp791
aV1
p792
ag7
(I0
I0
I0
I255
tp793
Rp794
aV4
p795
aasI5
(lp796
I-1
a(lp797
asI6
(lp798
I8
a(lp799
I2
ag7
(I25
I0
I0
I255
tp800
Rp801
aV2
p802
ag7
(I0
I0
I0
I255
tp803
Rp804
aV12
p805
aasI7
(lp806
I8
a(lp807
I2
ag7
(I12
I10
I10
I255
tp808
Rp809
aV2
p810
ag7
(I0
I0
I0
I255
tp811
Rp812
aV12
p813
aasI8
(lp814
I8
a(lp815
I2
ag7
(I25
I0
I0
I255
tp816
Rp817
aV2
p818
ag7
(I0
I0
I0
I255
tp819
Rp820
aV12
p821
aasI9
(lp822
I8
a(lp823
I2
ag7
(I12
I10
I10
I255
tp824
Rp825
aV2
p826
ag7
(I0
I0
I0
I255
tp827
Rp828
aV12
p829
aassg20
V00:19 000ms
p830
sba(ieffectgroup
EffectGroup
p831
(dp832
g3
(dp833
I0
(lp834
I-1
aNasI1
(lp835
I8
a(lp836
I2
ag7
(I25
I0
I0
I255
tp837
Rp838
aV2
p839
ag7
(I0
I0
I0
I255
tp840
Rp841
aV12
p842
aasI2
(lp843
I8
a(lp844
I2
ag7
(I12
I10
I10
I255
tp845
Rp846
aV2
p847
ag7
(I0
I0
I0
I255
tp848
Rp849
aV12
p850
aasI3
(lp851
I8
a(lp852
I2
ag7
(I25
I0
I0
I255
tp853
Rp854
aV2
p855
ag7
(I0
I0
I0
I255
tp856
Rp857
aV12
p858
aasI4
(lp859
I10
a(lp860
I4
ag7
(I0
I100
I0
I255
tp861
Rp862
aV1
p863
ag7
(I0
I0
I0
I255
tp864
Rp865
aV4
p866
ag7
(I75
I100
I0
I255
tp867
Rp868
aV1
p869
ag7
(I0
I0
I0
I255
tp870
Rp871
aV4
p872
aasI5
(lp873
I10
a(lp874
I4
ag7
(I0
I100
I0
I255
tp875
Rp876
aV1
p877
ag7
(I0
I0
I0
I255
tp878
Rp879
aV4
p880
ag7
(I0
I100
I50
I255
tp881
Rp882
aV1
p883
ag7
(I0
I0
I0
I255
tp884
Rp885
aV4
p886
aasI6
(lp887
I8
a(lp888
I2
ag7
(I25
I0
I0
I255
tp889
Rp890
aV2
p891
ag7
(I0
I0
I0
I255
tp892
Rp893
aV2
p894
aasI7
(lp895
I8
a(lp896
I2
ag7
(I12
I10
I10
I255
tp897
Rp898
aV2
p899
ag7
(I0
I0
I0
I255
tp900
Rp901
aV12
p902
aasI8
(lp903
I8
a(lp904
I2
ag7
(I25
I0
I0
I255
tp905
Rp906
aV2
p907
ag7
(I0
I0
I0
I255
tp908
Rp909
aV12
p910
aasI9
(lp911
I-1
aNassg20
V00:20 000ms
p912
sba(ieffectgroup
EffectGroup
p913
(dp914
g3
(dp915
I0
(lp916
I-1
aNasI1
(lp917
I-1
aNasI2
(lp918
I-1
aNasI3
(lp919
I-1
aNasI4
(lp920
I-1
aNasI5
(lp921
I-1
aNasI6
(lp922
I-1
aNasI7
(lp923
I-1
aNasI8
(lp924
I-1
aNasI9
(lp925
I-1
aNassg20
V00:21 000ms
p926
sba(ieffectgroup
EffectGroup
p927
(dp928
g3
(dp929
I0
(lp930
I-1
aNasI1
(lp931
I-1
aNasI2
(lp932
I-1
aNasI3
(lp933
I-1
aNasI4
(lp934
I-1
aNasI5
(lp935
I-1
aNasI6
(lp936
I-1
aNasI7
(lp937
I-1
aNasI8
(lp938
I-1
aNasI9
(lp939
I-1
aNassg20
V00:22 000ms
p940
sba(ieffectgroup
EffectGroup
p941
(dp942
g3
(dp943
I0
(lp944
I-1
aNasI1
(lp945
I-1
aNasI2
(lp946
I-1
aNasI3
(lp947
I-1
aNasI4
(lp948
I-1
aNasI5
(lp949
I-1
aNasI6
(lp950
I-1
aNasI7
(lp951
I-1
aNasI8
(lp952
I-1
aNasI9
(lp953
I-1
aNassg20
V00:23 000ms
p954
sba(ieffectgroup
EffectGroup
p955
(dp956
g3
(dp957
I0
(lp958
I-1
aNasI1
(lp959
I-1
aNasI2
(lp960
I-1
aNasI3
(lp961
I-1
aNasI4
(lp962
I-1
aNasI5
(lp963
I-1
aNasI6
(lp964
I-1
aNasI7
(lp965
I-1
aNasI8
(lp966
I-1
aNasI9
(lp967
I-1
aNassg20
V00:24 000ms
p968
sba(ieffectgroup
EffectGroup
p969
(dp970
g3
(dp971
I0
(lp972
I-1
aNasI1
(lp973
I-1
aNasI2
(lp974
I-1
aNasI3
(lp975
I-1
aNasI4
(lp976
I-1
aNasI5
(lp977
I-1
aNasI6
(lp978
I-1
aNasI7
(lp979
I-1
aNasI8
(lp980
I-1
aNasI9
(lp981
I-1
aNassg20
V00:25 000ms
p982
sba(ieffectgroup
EffectGroup
p983
(dp984
g3
(dp985
I0
(lp986
I-1
aNasI1
(lp987
I-1
aNasI2
(lp988
I-1
aNasI3
(lp989
I-1
aNasI4
(lp990
I-1
aNasI5
(lp991
I-1
aNasI6
(lp992
I-1
aNasI7
(lp993
I-1
aNasI8
(lp994
I-1
aNasI9
(lp995
I-1
aNassg20
V00:26 000ms
p996
sba(ieffectgroup
EffectGroup
p997
(dp998
g3
(dp999
I0
(lp1000
I-1
aNasI1
(lp1001
I-1
aNasI2
(lp1002
I-1
aNasI3
(lp1003
I-1
aNasI4
(lp1004
I-1
aNasI5
(lp1005
I-1
aNasI6
(lp1006
I-1
aNasI7
(lp1007
I-1
aNasI8
(lp1008
I-1
aNasI9
(lp1009
I-1
aNassg20
V00:27 000ms
p1010
sba(ieffectgroup
EffectGroup
p1011
(dp1012
g3
(dp1013
I0
(lp1014
I-1
aNasI1
(lp1015
I-1
aNasI2
(lp1016
I-1
aNasI3
(lp1017
I-1
aNasI4
(lp1018
I-1
aNasI5
(lp1019
I-1
aNasI6
(lp1020
I-1
aNasI7
(lp1021
I-1
aNasI8
(lp1022
I-1
aNasI9
(lp1023
I-1
aNassg20
V00:28 000ms
p1024
sba(ieffectgroup
EffectGroup
p1025
(dp1026
g3
(dp1027
I0
(lp1028
I-1
aNasI1
(lp1029
I-1
aNasI2
(lp1030
I-1
aNasI3
(lp1031
I-1
aNasI4
(lp1032
I-1
aNasI5
(lp1033
I-1
aNasI6
(lp1034
I-1
aNasI7
(lp1035
I-1
aNasI8
(lp1036
I-1
aNasI9
(lp1037
I-1
aNassg20
V00:29 000ms
p1038
sba(ieffectgroup
EffectGroup
p1039
(dp1040
g3
(dp1041
I0
(lp1042
I-1
aNasI1
(lp1043
I-1
aNasI2
(lp1044
I-1
aNasI3
(lp1045
I-1
aNasI4
(lp1046
I-1
aNasI5
(lp1047
I-1
aNasI6
(lp1048
I-1
aNasI7
(lp1049
I-1
aNasI8
(lp1050
I-1
aNasI9
(lp1051
I-1
aNassg20
V00:30 000ms
p1052
sba.