(lp0
(ieffectgroup
EffectGroup
p1
(dp2
S'm_effects'
p3
(dp4
I0
(lp5
I11
a(lp6
I6
acwx._gdi
Colour
p7
(I0
I0
I100
I255
tp8
Rp9
aV1
p10
ag7
(I0
I0
I0
I255
tp11
Rp12
aV12
p13
ag7
(I0
I0
I100
I255
tp14
Rp15
aV1
p16
ag7
(I0
I0
I0
I255
tp17
Rp18
aV12
p19
ag7
(I100
I50
I0
I255
tp20
Rp21
aV1
p22
ag7
(I0
I0
I0
I255
tp23
Rp24
aV12
p25
aasI1
(lp26
I11
a(lp27
I6
ag7
(I0
I0
I100
I255
tp28
Rp29
aV8
p30
ag7
(I0
I0
I0
I255
tp31
Rp32
aV16
p33
ag7
(I0
I0
I100
I255
tp34
Rp35
aV2
p36
ag7
(I0
I0
I0
I255
tp37
Rp38
aV16
p39
ag7
(I0
I0
I100
I255
tp40
Rp41
aV2
p42
ag7
(I0
I0
I0
I255
tp43
Rp44
aV32
p45
aasI2
(lp46
I11
a(lp47
I6
ag7
(I0
I0
I100
I255
tp48
Rp49
aV8
p50
ag7
(I0
I0
I0
I255
tp51
Rp52
aV16
p53
ag7
(I0
I0
I100
I255
tp54
Rp55
aV2
p56
ag7
(I0
I0
I0
I255
tp57
Rp58
aV16
p59
ag7
(I0
I0
I100
I255
tp60
Rp61
aV2
p62
ag7
(I0
I0
I0
I255
tp63
Rp64
aV32
p65
aasI3
(lp66
I11
a(lp67
I6
ag7
(I0
I0
I100
I255
tp68
Rp69
aV2
p70
ag7
(I2
I1
I0
I255
tp71
Rp72
aV16
p73
ag7
(I0
I0
I100
I255
tp74
Rp75
aV2
p76
ag7
(I2
I1
I0
I255
tp77
Rp78
aV16
p79
ag7
(I0
I0
I100
I255
tp80
Rp81
aV2
p82
ag7
(I2
I1
I0
I255
tp83
Rp84
aV32
p85
aasI4
(lp86
I-1
a(lp87
asI5
(lp88
I-1
aNasI6
(lp89
I11
a(lp90
I6
ag7
(I0
I0
I100
I255
tp91
Rp92
aV2
p93
ag7
(I2
I1
I0
I255
tp94
Rp95
aV16
p96
ag7
(I0
I0
I100
I255
tp97
Rp98
aV2
p99
ag7
(I2
I1
I0
I255
tp100
Rp101
aV16
p102
ag7
(I0
I0
I100
I255
tp103
Rp104
aV2
p105
ag7
(I2
I1
I0
I255
tp106
Rp107
aV32
p108
aasI7
(lp109
I11
a(lp110
I6
ag7
(I0
I0
I100
I255
tp111
Rp112
aV8
p113
ag7
(I0
I0
I0
I255
tp114
Rp115
aV16
p116
ag7
(I0
I0
I100
I255
tp117
Rp118
aV2
p119
ag7
(I0
I0
I0
I255
tp120
Rp121
aV16
p122
ag7
(I0
I0
I100
I255
tp123
Rp124
aV2
p125
ag7
(I0
I0
I0
I255
tp126
Rp127
aV32
p128
aasI8
(lp129
I11
a(lp130
I6
ag7
(I0
I0
I100
I255
tp131
Rp132
aV8
p133
ag7
(I0
I0
I0
I255
tp134
Rp135
aV16
p136
ag7
(I0
I0
I100
I255
tp137
Rp138
aV2
p139
ag7
(I0
I0
I0
I255
tp140
Rp141
aV16
p142
ag7
(I0
I0
I100
I255
tp143
Rp144
aV2
p145
ag7
(I0
I0
I0
I255
tp146
Rp147
aV32
p148
aasI9
(lp149
I11
a(lp150
I6
ag7
(I0
I0
I100
I255
tp151
Rp152
aV1
p153
ag7
(I0
I0
I0
I255
tp154
Rp155
aV12
p156
ag7
(I0
I0
I100
I255
tp157
Rp158
aV1
p159
ag7
(I0
I0
I0
I255
tp160
Rp161
aV12
p162
ag7
(I100
I50
I0
I255
tp163
Rp164
aV1
p165
ag7
(I0
I0
I0
I255
tp166
Rp167
aV12
p168
aassS'm_time'
p169
V00:01 000ms
p170
sba(ieffectgroup
EffectGroup
p171
(dp172
g3
(dp173
I0
(lp174
I-1
aNasI1
(lp175
I-1
aNasI2
(lp176
I-1
aNasI3
(lp177
I-1
aNasI4
(lp178
I-1
aNasI5
(lp179
I-1
aNasI6
(lp180
I-1
aNasI7
(lp181
I-1
aNasI8
(lp182
I-1
aNasI9
(lp183
I-1
aNassg169
V00:02 000ms
p184
sba(ieffectgroup
EffectGroup
p185
(dp186
g3
(dp187
I0
(lp188
I-1
aNasI1
(lp189
I-1
aNasI2
(lp190
I-1
aNasI3
(lp191
I-1
aNasI4
(lp192
I-1
aNasI5
(lp193
I-1
aNasI6
(lp194
I-1
aNasI7
(lp195
I-1
aNasI8
(lp196
I-1
aNasI9
(lp197
I-1
aNassg169
V00:03 000ms
p198
sba(ieffectgroup
EffectGroup
p199
(dp200
g3
(dp201
I0
(lp202
I-1
aNasI1
(lp203
I-1
aNasI2
(lp204
I-1
aNasI3
(lp205
I-1
aNasI4
(lp206
I-1
aNasI5
(lp207
I-1
aNasI6
(lp208
I-1
aNasI7
(lp209
I-1
aNasI8
(lp210
I-1
aNasI9
(lp211
I-1
aNassg169
V00:04 000ms
p212
sba(ieffectgroup
EffectGroup
p213
(dp214
g3
(dp215
I0
(lp216
I-1
aNasI1
(lp217
I-1
aNasI2
(lp218
I-1
aNasI3
(lp219
I-1
aNasI4
(lp220
I-1
aNasI5
(lp221
I-1
aNasI6
(lp222
I-1
aNasI7
(lp223
I-1
aNasI8
(lp224
I-1
aNasI9
(lp225
I-1
aNassg169
V00:05 000ms
p226
sba(ieffectgroup
EffectGroup
p227
(dp228
g3
(dp229
I0
(lp230
I-1
aNasI1
(lp231
I-1
aNasI2
(lp232
I-1
aNasI3
(lp233
I-1
aNasI4
(lp234
I-1
aNasI5
(lp235
I-1
aNasI6
(lp236
I-1
aNasI7
(lp237
I-1
aNasI8
(lp238
I-1
aNasI9
(lp239
I-1
aNassg169
V00:06 000ms
p240
sba(ieffectgroup
EffectGroup
p241
(dp242
g3
(dp243
I0
(lp244
I-1
aNasI1
(lp245
I-1
aNasI2
(lp246
I-1
aNasI3
(lp247
I-1
aNasI4
(lp248
I-1
aNasI5
(lp249
I-1
aNasI6
(lp250
I-1
aNasI7
(lp251
I-1
aNasI8
(lp252
I-1
aNasI9
(lp253
I-1
aNassg169
V00:07 000ms
p254
sba(ieffectgroup
EffectGroup
p255
(dp256
g3
(dp257
I0
(lp258
I-1
aNasI1
(lp259
I-1
aNasI2
(lp260
I-1
aNasI3
(lp261
I-1
aNasI4
(lp262
I-1
aNasI5
(lp263
I-1
aNasI6
(lp264
I-1
aNasI7
(lp265
I-1
aNasI8
(lp266
I-1
aNasI9
(lp267
I-1
aNassg169
V00:08 000ms
p268
sba(ieffectgroup
EffectGroup
p269
(dp270
g3
(dp271
I0
(lp272
I-1
aNasI1
(lp273
I-1
aNasI2
(lp274
I-1
aNasI3
(lp275
I-1
aNasI4
(lp276
I-1
aNasI5
(lp277
I-1
aNasI6
(lp278
I-1
aNasI7
(lp279
I-1
aNasI8
(lp280
I-1
aNasI9
(lp281
I-1
aNassg169
V00:09 000ms
p282
sba(ieffectgroup
EffectGroup
p283
(dp284
g3
(dp285
I0
(lp286
I-1
aNasI1
(lp287
I-1
aNasI2
(lp288
I-1
aNasI3
(lp289
I-1
aNasI4
(lp290
I-1
aNasI5
(lp291
I-1
aNasI6
(lp292
I-1
aNasI7
(lp293
I-1
aNasI8
(lp294
I-1
aNasI9
(lp295
I-1
aNassg169
V00:10 000ms
p296
sba(ieffectgroup
EffectGroup
p297
(dp298
g3
(dp299
I0
(lp300
I-1
aNasI1
(lp301
I-1
aNasI2
(lp302
I-1
aNasI3
(lp303
I-1
aNasI4
(lp304
I-1
aNasI5
(lp305
I-1
aNasI6
(lp306
I-1
aNasI7
(lp307
I-1
aNasI8
(lp308
I-1
aNasI9
(lp309
I-1
aNassg169
V00:11 000ms
p310
sba(ieffectgroup
EffectGroup
p311
(dp312
g3
(dp313
I0
(lp314
I-1
aNasI1
(lp315
I-1
aNasI2
(lp316
I-1
aNasI3
(lp317
I-1
aNasI4
(lp318
I-1
aNasI5
(lp319
I-1
aNasI6
(lp320
I-1
aNasI7
(lp321
I-1
aNasI8
(lp322
I-1
aNasI9
(lp323
I-1
aNassg169
V00:12 000ms
p324
sba(ieffectgroup
EffectGroup
p325
(dp326
g3
(dp327
I0
(lp328
I-1
aNasI1
(lp329
I-1
aNasI2
(lp330
I-1
aNasI3
(lp331
I-1
aNasI4
(lp332
I-1
aNasI5
(lp333
I-1
aNasI6
(lp334
I-1
aNasI7
(lp335
I-1
aNasI8
(lp336
I-1
aNasI9
(lp337
I-1
aNassg169
V00:13 000ms
p338
sba(ieffectgroup
EffectGroup
p339
(dp340
g3
(dp341
I0
(lp342
I-1
aNasI1
(lp343
I-1
aNasI2
(lp344
I-1
aNasI3
(lp345
I-1
aNasI4
(lp346
I-1
aNasI5
(lp347
I-1
aNasI6
(lp348
I-1
aNasI7
(lp349
I-1
aNasI8
(lp350
I-1
aNasI9
(lp351
I-1
aNassg169
V00:14 000ms
p352
sba(ieffectgroup
EffectGroup
p353
(dp354
g3
(dp355
I0
(lp356
I-1
aNasI1
(lp357
I-1
aNasI2
(lp358
I-1
aNasI3
(lp359
I-1
aNasI4
(lp360
I-1
aNasI5
(lp361
I-1
aNasI6
(lp362
I-1
aNasI7
(lp363
I-1
aNasI8
(lp364
I-1
aNasI9
(lp365
I-1
aNassg169
V00:15 000ms
p366
sba(ieffectgroup
EffectGroup
p367
(dp368
g3
(dp369
I0
(lp370
I-1
aNasI1
(lp371
I-1
aNasI2
(lp372
I-1
aNasI3
(lp373
I-1
aNasI4
(lp374
I-1
aNasI5
(lp375
I-1
aNasI6
(lp376
I-1
aNasI7
(lp377
I-1
aNasI8
(lp378
I-1
aNasI9
(lp379
I-1
aNassg169
V00:16 000ms
p380
sba(ieffectgroup
EffectGroup
p381
(dp382
g3
(dp383
I0
(lp384
I-1
aNasI1
(lp385
I-1
aNasI2
(lp386
I-1
aNasI3
(lp387
I-1
aNasI4
(lp388
I-1
aNasI5
(lp389
I-1
aNasI6
(lp390
I-1
aNasI7
(lp391
I-1
aNasI8
(lp392
I-1
aNasI9
(lp393
I-1
aNassg169
V00:17 000ms
p394
sba(ieffectgroup
EffectGroup
p395
(dp396
g3
(dp397
I0
(lp398
I-1
aNasI1
(lp399
I-1
aNasI2
(lp400
I-1
aNasI3
(lp401
I-1
aNasI4
(lp402
I-1
aNasI5
(lp403
I-1
aNasI6
(lp404
I-1
aNasI7
(lp405
I-1
aNasI8
(lp406
I-1
aNasI9
(lp407
I-1
aNassg169
V00:18 000ms
p408
sba(ieffectgroup
EffectGroup
p409
(dp410
g3
(dp411
I0
(lp412
I-1
aNasI1
(lp413
I-1
aNasI2
(lp414
I-1
aNasI3
(lp415
I-1
aNasI4
(lp416
I-1
aNasI5
(lp417
I-1
aNasI6
(lp418
I-1
aNasI7
(lp419
I-1
aNasI8
(lp420
I-1
aNasI9
(lp421
I-1
aNassg169
V00:19 000ms
p422
sba(ieffectgroup
EffectGroup
p423
(dp424
g3
(dp425
I0
(lp426
I-1
aNasI1
(lp427
I-1
aNasI2
(lp428
I-1
aNasI3
(lp429
I-1
aNasI4
(lp430
I-1
aNasI5
(lp431
I-1
aNasI6
(lp432
I-1
aNasI7
(lp433
I-1
aNasI8
(lp434
I-1
aNasI9
(lp435
I-1
aNassg169
V00:20 000ms
p436
sba(ieffectgroup
EffectGroup
p437
(dp438
g3
(dp439
I0
(lp440
I-1
aNasI1
(lp441
I-1
aNasI2
(lp442
I-1
aNasI3
(lp443
I-1
aNasI4
(lp444
I-1
aNasI5
(lp445
I-1
aNasI6
(lp446
I-1
aNasI7
(lp447
I-1
aNasI8
(lp448
I-1
aNasI9
(lp449
I-1
aNassg169
V00:21 000ms
p450
sba(ieffectgroup
EffectGroup
p451
(dp452
g3
(dp453
I0
(lp454
I-1
aNasI1
(lp455
I-1
aNasI2
(lp456
I-1
aNasI3
(lp457
I-1
aNasI4
(lp458
I-1
aNasI5
(lp459
I-1
aNasI6
(lp460
I-1
aNasI7
(lp461
I-1
aNasI8
(lp462
I-1
aNasI9
(lp463
I-1
aNassg169
V00:22 000ms
p464
sba(ieffectgroup
EffectGroup
p465
(dp466
g3
(dp467
I0
(lp468
I-1
aNasI1
(lp469
I-1
aNasI2
(lp470
I-1
aNasI3
(lp471
I-1
aNasI4
(lp472
I-1
aNasI5
(lp473
I-1
aNasI6
(lp474
I-1
aNasI7
(lp475
I-1
aNasI8
(lp476
I-1
aNasI9
(lp477
I-1
aNassg169
V00:23 000ms
p478
sba(ieffectgroup
EffectGroup
p479
(dp480
g3
(dp481
I0
(lp482
I-1
aNasI1
(lp483
I-1
aNasI2
(lp484
I-1
aNasI3
(lp485
I-1
aNasI4
(lp486
I-1
aNasI5
(lp487
I-1
aNasI6
(lp488
I-1
aNasI7
(lp489
I-1
aNasI8
(lp490
I-1
aNasI9
(lp491
I-1
aNassg169
V00:24 000ms
p492
sba(ieffectgroup
EffectGroup
p493
(dp494
g3
(dp495
I0
(lp496
I-1
aNasI1
(lp497
I-1
aNasI2
(lp498
I-1
aNasI3
(lp499
I-1
aNasI4
(lp500
I-1
aNasI5
(lp501
I-1
aNasI6
(lp502
I-1
aNasI7
(lp503
I-1
aNasI8
(lp504
I-1
aNasI9
(lp505
I-1
aNassg169
V00:25 000ms
p506
sba.