(lp0
(ieffectgroup
EffectGroup
p1
(dp2
S'm_effects'
p3
(dp4
I0
(lp5
I15
a(lp6
I14
acwx._gdi
Colour
p7
(I255
I0
I0
I255
tp8
Rp9
aV1
p10
ag7
(I0
I0
I0
I255
tp11
Rp12
aV1
p13
ag7
(I0
I120
I0
I255
tp14
Rp15
aV1
p16
ag7
(I0
I0
I0
I255
tp17
Rp18
aV1
p19
ag7
(I0
I0
I120
I255
tp20
Rp21
aV1
p22
ag7
(I0
I0
I0
I255
tp23
Rp24
aV1
p25
ag7
(I120
I90
I90
I255
tp26
Rp27
aV1
p28
ag7
(I0
I0
I0
I255
tp29
Rp30
aV1
p31
ag7
(I255
I120
I0
I255
tp32
Rp33
aV1
p34
ag7
(I0
I0
I0
I255
tp35
Rp36
aV1
p37
ag7
(I0
I120
I120
I255
tp38
Rp39
aV1
p40
ag7
(I0
I0
I0
I255
tp41
Rp42
aV1
p43
ag7
(I255
I0
I120
I255
tp44
Rp45
aV1
p46
ag7
(I0
I0
I0
I255
tp47
Rp48
aV1
p49
aasI1
(lp50
I15
a(lp51
I14
ag7
(I255
I0
I0
I255
tp52
Rp53
aV1
p54
ag7
(I0
I0
I0
I255
tp55
Rp56
aV1
p57
ag7
(I0
I120
I0
I255
tp58
Rp59
aV1
p60
ag7
(I0
I0
I0
I255
tp61
Rp62
aV1
p63
ag7
(I0
I0
I120
I255
tp64
Rp65
aV1
p66
ag7
(I0
I0
I0
I255
tp67
Rp68
aV1
p69
ag7
(I120
I90
I90
I255
tp70
Rp71
aV1
p72
ag7
(I0
I0
I0
I255
tp73
Rp74
aV1
p75
ag7
(I255
I120
I0
I255
tp76
Rp77
aV1
p78
ag7
(I0
I0
I0
I255
tp79
Rp80
aV1
p81
ag7
(I0
I120
I120
I255
tp82
Rp83
aV1
p84
ag7
(I0
I0
I0
I255
tp85
Rp86
aV1
p87
ag7
(I255
I0
I120
I255
tp88
Rp89
aV1
p90
ag7
(I0
I0
I0
I255
tp91
Rp92
aV1
p93
aasI2
(lp94
I15
a(lp95
I14
ag7
(I255
I0
I0
I255
tp96
Rp97
aV1
p98
ag7
(I0
I0
I0
I255
tp99
Rp100
aV1
p101
ag7
(I0
I120
I0
I255
tp102
Rp103
aV1
p104
ag7
(I0
I0
I0
I255
tp105
Rp106
aV1
p107
ag7
(I0
I0
I120
I255
tp108
Rp109
aV1
p110
ag7
(I0
I0
I0
I255
tp111
Rp112
aV1
p113
ag7
(I120
I90
I90
I255
tp114
Rp115
aV1
p116
ag7
(I0
I0
I0
I255
tp117
Rp118
aV1
p119
ag7
(I255
I120
I0
I255
tp120
Rp121
aV1
p122
ag7
(I0
I0
I0
I255
tp123
Rp124
aV1
p125
ag7
(I0
I120
I120
I255
tp126
Rp127
aV1
p128
ag7
(I0
I0
I0
I255
tp129
Rp130
aV1
p131
ag7
(I255
I0
I120
I255
tp132
Rp133
aV1
p134
ag7
(I0
I0
I0
I255
tp135
Rp136
aV1
p137
aasI3
(lp138
I15
a(lp139
I14
ag7
(I255
I0
I0
I255
tp140
Rp141
aV1
p142
ag7
(I0
I0
I0
I255
tp143
Rp144
aV1
p145
ag7
(I0
I120
I0
I255
tp146
Rp147
aV1
p148
ag7
(I0
I0
I0
I255
tp149
Rp150
aV1
p151
ag7
(I0
I0
I120
I255
tp152
Rp153
aV1
p154
ag7
(I0
I0
I0
I255
tp155
Rp156
aV1
p157
ag7
(I120
I90
I90
I255
tp158
Rp159
aV1
p160
ag7
(I0
I0
I0
I255
tp161
Rp162
aV1
p163
ag7
(I255
I120
I0
I255
tp164
Rp165
aV1
p166
ag7
(I0
I0
I0
I255
tp167
Rp168
aV1
p169
ag7
(I0
I120
I120
I255
tp170
Rp171
aV1
p172
ag7
(I0
I0
I0
I255
tp173
Rp174
aV1
p175
ag7
(I255
I0
I120
I255
tp176
Rp177
aV1
p178
ag7
(I0
I0
I0
I255
tp179
Rp180
aV1
p181
aasI4
(lp182
I11
a(lp183
I6
ag7
(I255
I0
I0
I255
tp184
Rp185
aV1
p186
ag7
(I0
I0
I0
I255
tp187
Rp188
aV1
p189
ag7
(I0
I120
I0
I255
tp190
Rp191
aV1
p192
ag7
(I0
I0
I0
I255
tp193
Rp194
aV1
p195
ag7
(I0
I0
I120
I255
tp196
Rp197
aV1
p198
ag7
(I0
I0
I0
I255
tp199
Rp200
aV1
p201
aasI5
(lp202
I11
a(lp203
I6
ag7
(I255
I0
I0
I255
tp204
Rp205
aV1
p206
ag7
(I0
I0
I0
I255
tp207
Rp208
aV1
p209
ag7
(I0
I120
I0
I255
tp210
Rp211
aV1
p212
ag7
(I0
I0
I0
I255
tp213
Rp214
aV1
p215
ag7
(I0
I0
I120
I255
tp216
Rp217
aV1
p218
ag7
(I0
I0
I0
I255
tp219
Rp220
aV1
p221
aasI6
(lp222
I15
a(lp223
I14
ag7
(I255
I0
I0
I255
tp224
Rp225
aV1
p226
ag7
(I0
I0
I0
I255
tp227
Rp228
aV1
p229
ag7
(I0
I120
I0
I255
tp230
Rp231
aV1
p232
ag7
(I0
I0
I0
I255
tp233
Rp234
aV1
p235
ag7
(I0
I0
I120
I255
tp236
Rp237
aV1
p238
ag7
(I0
I0
I0
I255
tp239
Rp240
aV1
p241
ag7
(I120
I90
I90
I255
tp242
Rp243
aV1
p244
ag7
(I0
I0
I0
I255
tp245
Rp246
aV1
p247
ag7
(I255
I120
I0
I255
tp248
Rp249
aV1
p250
ag7
(I0
I0
I0
I255
tp251
Rp252
aV1
p253
ag7
(I0
I120
I120
I255
tp254
Rp255
aV1
p256
ag7
(I0
I0
I0
I255
tp257
Rp258
aV1
p259
ag7
(I255
I0
I120
I255
tp260
Rp261
aV1
p262
ag7
(I0
I0
I0
I255
tp263
Rp264
aV1
p265
aasI7
(lp266
I15
a(lp267
I14
ag7
(I255
I0
I0
I255
tp268
Rp269
aV1
p270
ag7
(I0
I0
I0
I255
tp271
Rp272
aV1
p273
ag7
(I0
I120
I0
I255
tp274
Rp275
aV1
p276
ag7
(I0
I0
I0
I255
tp277
Rp278
aV1
p279
ag7
(I0
I0
I120
I255
tp280
Rp281
aV1
p282
ag7
(I0
I0
I0
I255
tp283
Rp284
aV1
p285
ag7
(I120
I90
I90
I255
tp286
Rp287
aV1
p288
ag7
(I0
I0
I0
I255
tp289
Rp290
aV1
p291
ag7
(I255
I120
I0
I255
tp292
Rp293
aV1
p294
ag7
(I0
I0
I0
I255
tp295
Rp296
aV1
p297
ag7
(I0
I120
I120
I255
tp298
Rp299
aV1
p300
ag7
(I0
I0
I0
I255
tp301
Rp302
aV1
p303
ag7
(I255
I0
I120
I255
tp304
Rp305
aV1
p306
ag7
(I0
I0
I0
I255
tp307
Rp308
aV1
p309
aasI8
(lp310
I15
a(lp311
I14
ag7
(I255
I0
I0
I255
tp312
Rp313
aV1
p314
ag7
(I0
I0
I0
I255
tp315
Rp316
aV1
p317
ag7
(I0
I120
I0
I255
tp318
Rp319
aV1
p320
ag7
(I0
I0
I0
I255
tp321
Rp322
aV1
p323
ag7
(I0
I0
I120
I255
tp324
Rp325
aV1
p326
ag7
(I0
I0
I0
I255
tp327
Rp328
aV1
p329
ag7
(I120
I90
I90
I255
tp330
Rp331
aV1
p332
ag7
(I0
I0
I0
I255
tp333
Rp334
aV1
p335
ag7
(I255
I120
I0
I255
tp336
Rp337
aV1
p338
ag7
(I0
I0
I0
I255
tp339
Rp340
aV1
p341
ag7
(I0
I120
I120
I255
tp342
Rp343
aV1
p344
ag7
(I0
I0
I0
I255
tp345
Rp346
aV1
p347
ag7
(I255
I0
I120
I255
tp348
Rp349
aV1
p350
ag7
(I0
I0
I0
I255
tp351
Rp352
aV1
p353
aasI9
(lp354
I15
a(lp355
I14
ag7
(I255
I0
I0
I255
tp356
Rp357
aV1
p358
ag7
(I0
I0
I0
I255
tp359
Rp360
aV1
p361
ag7
(I0
I120
I0
I255
tp362
Rp363
aV1
p364
ag7
(I0
I0
I0
I255
tp365
Rp366
aV1
p367
ag7
(I0
I0
I120
I255
tp368
Rp369
aV1
p370
ag7
(I0
I0
I0
I255
tp371
Rp372
aV1
p373
ag7
(I120
I90
I90
I255
tp374
Rp375
aV1
p376
ag7
(I0
I0
I0
I255
tp377
Rp378
aV1
p379
ag7
(I255
I120
I0
I255
tp380
Rp381
aV1
p382
ag7
(I0
I0
I0
I255
tp383
Rp384
aV1
p385
ag7
(I0
I120
I120
I255
tp386
Rp387
aV1
p388
ag7
(I0
I0
I0
I255
tp389
Rp390
aV1
p391
ag7
(I255
I0
I120
I255
tp392
Rp393
aV1
p394
ag7
(I0
I0
I0
I255
tp395
Rp396
aV1
p397
aassS'm_time'
p398
V00:00 000ms
p399
sba.