(lp0
(ieffectgroup
EffectGroup
p1
(dp2
S'm_effects'
p3
(dp4
I0
(lp5
I2
a(lp6
cwx._gdi
Colour
p7
(I255
I0
I0
I255
tp8
Rp9
aasI1
(lp10
I8
a(lp11
I2
ag7
(I0
I0
I0
I255
tp12
Rp13
ag7
(I0
I0
I0
I255
tp14
Rp15
aV1
p16
aassS'm_time'
p17
V00:00 100ms
p18
sba(ieffectgroup
EffectGroup
p19
(dp20
S'm_effects'
p21
(dp22
I0
(lp23
I-1
aNasI1
(lp24
I2
a(lp25
g7
(I0
I0
I0
I255
tp26
Rp27
aassS'm_time'
p28
V00:00 200ms
p29
sba.