(lp0
(ieffectgroup
EffectGroup
p1
(dp2
S'm_effects'
p3
(dp4
I0
(lp5
I4
a(lp6
cwx._gdi
Colour
p7
(I255
I245
I0
I255
tp8
Rp9
ag7
(I255
I0
I199
I255
tp10
Rp11
aV2000
p12
aasI1
(lp13
I-1
aNassS'm_time'
p14
V00:00 000ms
p15
sba.