(lp0
(ieffectgroup
EffectGroup
p1
(dp2
S'm_effects'
p3
(dp4
I0
(lp5
I14
a(lp6
I12
acwx._gdi
Colour
p7
(I0
I90
I120
I255
tp8
Rp9
aV15
p10
ag7
(I0
I0
I0
I255
tp11
Rp12
aV1
p13
ag7
(I255
I0
I90
I255
tp14
Rp15
aV1
p16
ag7
(I0
I0
I0
I255
tp17
Rp18
aV1
p19
ag7
(I0
I0
I120
I255
tp20
Rp21
aV1
p22
ag7
(I0
I0
I0
I255
tp23
Rp24
aV10
p25
ag7
(I0
I0
I120
I255
tp26
Rp27
aV1
p28
ag7
(I0
I0
I0
I255
tp29
Rp30
aV1
p31
ag7
(I255
I0
I90
I255
tp32
Rp33
aV1
p34
ag7
(I0
I0
I0
I255
tp35
Rp36
aV1
p37
ag7
(I0
I90
I120
I255
tp38
Rp39
aV1
p40
ag7
(I0
I0
I0
I255
tp41
Rp42
aV10
p43
aasI1
(lp44
I11
a(lp45
I6
ag7
(I0
I0
I120
I255
tp46
Rp47
aV1
p48
ag7
(I0
I0
I0
I255
tp49
Rp50
aV1
p51
ag7
(I255
I0
I90
I255
tp52
Rp53
aV1
p54
ag7
(I0
I0
I0
I255
tp55
Rp56
aV1
p57
ag7
(I0
I0
I120
I255
tp58
Rp59
aV1
p60
ag7
(I0
I0
I0
I255
tp61
Rp62
aV10
p63
aasI2
(lp64
I11
a(lp65
I6
ag7
(I0
I0
I120
I255
tp66
Rp67
aV1
p68
ag7
(I0
I0
I0
I255
tp69
Rp70
aV1
p71
ag7
(I255
I0
I90
I255
tp72
Rp73
aV1
p74
ag7
(I0
I0
I0
I255
tp75
Rp76
aV1
p77
ag7
(I0
I0
I120
I255
tp78
Rp79
aV1
p80
ag7
(I0
I0
I0
I255
tp81
Rp82
aV10
p83
aasI3
(lp84
I11
a(lp85
I6
ag7
(I255
I0
I90
I255
tp86
Rp87
aV1
p88
ag7
(I0
I0
I0
I255
tp89
Rp90
aV1
p91
ag7
(I0
I90
I120
I255
tp92
Rp93
aV1
p94
ag7
(I0
I0
I0
I255
tp95
Rp96
aV1
p97
ag7
(I255
I0
I90
I255
tp98
Rp99
aV1
p100
ag7
(I0
I0
I0
I255
tp101
Rp102
aV10
p103
aasI4
(lp104
I-1
a(lp105
asI5
(lp106
I-1
aNasI6
(lp107
I11
a(lp108
I6
ag7
(I255
I0
I90
I255
tp109
Rp110
aV1
p111
ag7
(I0
I0
I0
I255
tp112
Rp113
aV1
p114
ag7
(I0
I90
I120
I255
tp115
Rp116
aV1
p117
ag7
(I0
I0
I0
I255
tp118
Rp119
aV1
p120
ag7
(I255
I0
I90
I255
tp121
Rp122
aV1
p123
ag7
(I0
I0
I0
I255
tp124
Rp125
aV10
p126
aasI7
(lp127
I11
a(lp128
I6
ag7
(I0
I0
I120
I255
tp129
Rp130
aV1
p131
ag7
(I0
I0
I0
I255
tp132
Rp133
aV1
p134
ag7
(I255
I0
I90
I255
tp135
Rp136
aV1
p137
ag7
(I0
I0
I0
I255
tp138
Rp139
aV1
p140
ag7
(I0
I0
I120
I255
tp141
Rp142
aV1
p143
ag7
(I0
I0
I0
I255
tp144
Rp145
aV10
p146
aasI8
(lp147
I11
a(lp148
I6
ag7
(I0
I0
I120
I255
tp149
Rp150
aV1
p151
ag7
(I0
I0
I0
I255
tp152
Rp153
aV1
p154
ag7
(I255
I0
I90
I255
tp155
Rp156
aV1
p157
ag7
(I0
I0
I0
I255
tp158
Rp159
aV1
p160
ag7
(I0
I0
I120
I255
tp161
Rp162
aV1
p163
ag7
(I0
I0
I0
I255
tp164
Rp165
aV10
p166
aasI9
(lp167
I14
a(lp168
I12
ag7
(I0
I90
I120
I255
tp169
Rp170
aV1
p171
ag7
(I0
I0
I0
I255
tp172
Rp173
aV1
p174
ag7
(I255
I0
I90
I255
tp175
Rp176
aV1
p177
ag7
(I0
I0
I0
I255
tp178
Rp179
aV1
p180
ag7
(I0
I0
I120
I255
tp181
Rp182
aV1
p183
ag7
(I0
I0
I0
I255
tp184
Rp185
aV10
p186
ag7
(I0
I0
I120
I255
tp187
Rp188
aV1
p189
ag7
(I0
I0
I0
I255
tp190
Rp191
aV1
p192
ag7
(I255
I0
I90
I255
tp193
Rp194
aV1
p195
ag7
(I0
I0
I0
I255
tp196
Rp197
aV1
p198
ag7
(I0
I90
I120
I255
tp199
Rp200
aV1
p201
ag7
(I0
I0
I0
I255
tp202
Rp203
aV10
p204
aassS'm_time'
p205
V00:00 000ms
p206
sba(ieffectgroup
EffectGroup
p207
(dp208
g3
(dp209
I0
(lp210
I1
a(lp211
g7
(I0
I0
I0
I255
tp212
Rp213
aasI1
(lp214
I1
a(lp215
g7
(I0
I0
I0
I255
tp216
Rp217
aasI2
(lp218
I1
a(lp219
g7
(I0
I0
I0
I255
tp220
Rp221
aasI3
(lp222
I1
a(lp223
g7
(I0
I0
I0
I255
tp224
Rp225
aasI4
(lp226
I10
a(lp227
I4
ag7
(I0
I0
I200
I255
tp228
Rp229
aV1
p230
ag7
(I0
I0
I0
I255
tp231
Rp232
aV8
p233
ag7
(I60
I0
I200
I255
tp234
Rp235
aV1
p236
ag7
(I0
I0
I0
I255
tp237
Rp238
aV8
p239
aasI5
(lp240
I10
a(lp241
I4
ag7
(I0
I0
I0
I255
tp242
Rp243
aV8
p244
ag7
(I0
I0
I200
I255
tp245
Rp246
aV1
p247
ag7
(I0
I0
I0
I255
tp248
Rp249
aV8
p250
ag7
(I60
I0
I200
I255
tp251
Rp252
aV1
p253
aasI6
(lp254
I1
a(lp255
g7
(I0
I0
I0
I255
tp256
Rp257
aasI7
(lp258
I1
a(lp259
g7
(I0
I0
I0
I255
tp260
Rp261
aasI8
(lp262
I1
a(lp263
g7
(I0
I0
I0
I255
tp264
Rp265
aasI9
(lp266
I1
a(lp267
g7
(I0
I0
I0
I255
tp268
Rp269
aassg205
V00:02 000ms
p270
sba(ieffectgroup
EffectGroup
p271
(dp272
g3
(dp273
I0
(lp274
I-1
aNasI1
(lp275
I-1
aNasI2
(lp276
I-1
aNasI3
(lp277
I-1
aNasI4
(lp278
I10
a(lp279
I4
ag7
(I0
I0
I200
I255
tp280
Rp281
aV1
p282
ag7
(I0
I0
I0
I255
tp283
Rp284
aV8
p285
ag7
(I0
I50
I200
I255
tp286
Rp287
aV1
p288
ag7
(I0
I0
I0
I255
tp289
Rp290
aV8
p291
aasI5
(lp292
I10
a(lp293
I4
ag7
(I0
I0
I0
I255
tp294
Rp295
aV8
p296
ag7
(I0
I0
I200
I255
tp297
Rp298
aV1
p299
ag7
(I0
I0
I0
I255
tp300
Rp301
aV8
p302
ag7
(I0
I50
I200
I255
tp303
Rp304
aV1
p305
aasI6
(lp306
I-1
aNasI7
(lp307
I-1
aNasI8
(lp308
I-1
aNasI9
(lp309
I-1
aNassg205
V00:03 000ms
p310
sba(ieffectgroup
EffectGroup
p311
(dp312
g3
(dp313
I0
(lp314
I-1
aNasI1
(lp315
I-1
aNasI2
(lp316
I-1
aNasI3
(lp317
I-1
aNasI4
(lp318
I8
a(lp319
I2
ag7
(I0
I0
I200
I255
tp320
Rp321
aV1
p322
ag7
(I0
I0
I0
I255
tp323
Rp324
aV8
p325
aasI5
(lp326
I8
a(lp327
I2
ag7
(I0
I0
I200
I255
tp328
Rp329
aV1
p330
ag7
(I0
I0
I0
I255
tp331
Rp332
aV8
p333
aasI6
(lp334
I-1
a(lp335
asI7
(lp336
I-1
aNasI8
(lp337
I-1
aNasI9
(lp338
I-1
aNassg205
V00:04 000ms
p339
sba(ieffectgroup
EffectGroup
p340
(dp341
g3
(dp342
I0
(lp343
I-1
aNasI1
(lp344
I-1
aNasI2
(lp345
I-1
aNasI3
(lp346
I-1
aNasI4
(lp347
I8
a(lp348
I2
ag7
(I60
I0
I200
I255
tp349
Rp350
aV1
p351
ag7
(I0
I0
I0
I255
tp352
Rp353
aV16
p354
aasI5
(lp355
I8
a(lp356
I2
ag7
(I0
I50
I200
I255
tp357
Rp358
aV1
p359
ag7
(I0
I0
I0
I255
tp360
Rp361
aV16
p362
aasI6
(lp363
I-1
aNasI7
(lp364
I-1
aNasI8
(lp365
I-1
aNasI9
(lp366
I-1
aNassg205
V00:05 000ms
p367
sba.