(lp0
(ieffectgroup
EffectGroup
p1
(dp2
S'm_effects'
p3
(dp4
I0
(lp5
I-1
aNasI1
(lp6
I-1
aNasI2
(lp7
I-1
aNasI3
(lp8
I-1
aNasI4
(lp9
I10
a(lp10
I4
acwx._gdi
Colour
p11
(I0
I0
I60
I255
tp12
Rp13
aV1
p14
ag11
(I0
I0
I0
I255
tp15
Rp16
aV10
p17
ag11
(I0
I19
I60
I255
tp18
Rp19
aV1
p20
ag11
(I0
I0
I0
I255
tp21
Rp22
aV10
p23
aasI5
(lp24
I-1
a(lp25
asI6
(lp26
I-1
aNasI7
(lp27
I-1
aNasI8
(lp28
I-1
aNasI9
(lp29
I-1
aNassS'm_time'
p30
V00:01 000ms
p31
sba(ieffectgroup
EffectGroup
p32
(dp33
g3
(dp34
I0
(lp35
I-1
a(lp36
asI1
(lp37
I-1
aNasI2
(lp38
I-1
aNasI3
(lp39
I-1
aNasI4
(lp40
I-1
a(lp41
asI5
(lp42
I3
a(lp43
g11
(I20
I0
I60
I255
tp44
Rp45
aV1
p46
aV8
p47
aasI6
(lp48
I-1
aNasI7
(lp49
I-1
aNasI8
(lp50
I-1
aNasI9
(lp51
I-1
aNassg30
V00:02 000ms
p52
sba(ieffectgroup
EffectGroup
p53
(dp54
g3
(dp55
I0
(lp56
I-1
aNasI1
(lp57
I-1
aNasI2
(lp58
I-1
aNasI3
(lp59
I-1
aNasI4
(lp60
I-1
aNasI5
(lp61
I-1
aNasI6
(lp62
I-1
aNasI7
(lp63
I-1
aNasI8
(lp64
I-1
aNasI9
(lp65
I-1
aNassg30
V00:03 000ms
p66
sba(ieffectgroup
EffectGroup
p67
(dp68
g3
(dp69
I0
(lp70
I-1
aNasI1
(lp71
I-1
aNasI2
(lp72
I-1
aNasI3
(lp73
I-1
aNasI4
(lp74
I-1
aNasI5
(lp75
I-1
aNasI6
(lp76
I-1
aNasI7
(lp77
I-1
aNasI8
(lp78
I-1
aNasI9
(lp79
I-1
aNassg30
V00:04 000ms
p80
sba(ieffectgroup
EffectGroup
p81
(dp82
g3
(dp83
I0
(lp84
I-1
aNasI1
(lp85
I-1
aNasI2
(lp86
I-1
aNasI3
(lp87
I-1
aNasI4
(lp88
I-1
aNasI5
(lp89
I-1
aNasI6
(lp90
I-1
aNasI7
(lp91
I-1
aNasI8
(lp92
I-1
aNasI9
(lp93
I-1
aNassg30
V00:05 000ms
p94
sba(ieffectgroup
EffectGroup
p95
(dp96
g3
(dp97
I0
(lp98
I-1
aNasI1
(lp99
I-1
aNasI2
(lp100
I-1
aNasI3
(lp101
I-1
aNasI4
(lp102
I-1
aNasI5
(lp103
I-1
aNasI6
(lp104
I-1
aNasI7
(lp105
I-1
aNasI8
(lp106
I-1
aNasI9
(lp107
I-1
aNassg30
V00:06 000ms
p108
sba(ieffectgroup
EffectGroup
p109
(dp110
g3
(dp111
I0
(lp112
I-1
aNasI1
(lp113
I-1
aNasI2
(lp114
I-1
aNasI3
(lp115
I-1
aNasI4
(lp116
I-1
aNasI5
(lp117
I-1
aNasI6
(lp118
I-1
aNasI7
(lp119
I-1
aNasI8
(lp120
I-1
aNasI9
(lp121
I-1
aNassg30
V00:07 000ms
p122
sba(ieffectgroup
EffectGroup
p123
(dp124
g3
(dp125
I0
(lp126
I-1
aNasI1
(lp127
I-1
aNasI2
(lp128
I-1
aNasI3
(lp129
I-1
aNasI4
(lp130
I-1
aNasI5
(lp131
I-1
aNasI6
(lp132
I-1
aNasI7
(lp133
I-1
aNasI8
(lp134
I-1
aNasI9
(lp135
I-1
aNassg30
V00:08 000ms
p136
sba(ieffectgroup
EffectGroup
p137
(dp138
g3
(dp139
I0
(lp140
I-1
aNasI1
(lp141
I-1
aNasI2
(lp142
I-1
aNasI3
(lp143
I-1
aNasI4
(lp144
I-1
aNasI5
(lp145
I-1
aNasI6
(lp146
I-1
aNasI7
(lp147
I-1
aNasI8
(lp148
I-1
aNasI9
(lp149
I-1
aNassg30
V00:09 000ms
p150
sba(ieffectgroup
EffectGroup
p151
(dp152
g3
(dp153
I0
(lp154
I-1
aNasI1
(lp155
I-1
aNasI2
(lp156
I-1
aNasI3
(lp157
I-1
aNasI4
(lp158
I-1
aNasI5
(lp159
I-1
aNasI6
(lp160
I-1
aNasI7
(lp161
I-1
aNasI8
(lp162
I-1
aNasI9
(lp163
I-1
aNassg30
V00:10 000ms
p164
sba.