(lp0
(ieffectgroup
EffectGroup
p1
(dp2
S'm_effects'
p3
(dp4
I0
(lp5
I1
a(lp6
cwx._gdi
Colour
p7
(I77
I0
I255
I255
tp8
Rp9
aasI1
(lp10
I-1
aNasI2
(lp11
I1
a(lp12
g7
(I52
I0
I255
I255
tp13
Rp14
aasI3
(lp15
I-1
aNasI4
(lp16
I1
a(lp17
g7
(I255
I86
I0
I255
tp18
Rp19
aasI5
(lp20
I-1
a(lp21
asI6
(lp22
I1
a(lp23
g7
(I152
I40
I181
I255
tp24
Rp25
aasI7
(lp26
I-1
aNasI8
(lp27
I1
a(lp28
g7
(I255
I37
I0
I255
tp29
Rp30
aasI9
(lp31
I-1
a(lp32
assS'm_time'
p33
V00:15 000ms
p34
sba(ieffectgroup
EffectGroup
p35
(dp36
g3
(dp37
I0
(lp38
I1
a(lp39
g7
(I0
I0
I0
I255
tp40
Rp41
aasI1
(lp42
I1
a(lp43
g7
(I11
I0
I255
I255
tp44
Rp45
aasI2
(lp46
I1
a(lp47
g7
(I0
I0
I0
I255
tp48
Rp49
aasI3
(lp50
I1
a(lp51
g7
(I92
I255
I0
I255
tp52
Rp53
aasI4
(lp54
I1
a(lp55
g7
(I0
I0
I0
I255
tp56
Rp57
aasI5
(lp58
I1
a(lp59
g7
(I119
I206
I198
I255
tp60
Rp61
aasI6
(lp62
I1
a(lp63
g7
(I0
I0
I0
I255
tp64
Rp65
aasI7
(lp66
I1
a(lp67
g7
(I22
I165
I61
I255
tp68
Rp69
aasI8
(lp70
I1
a(lp71
g7
(I0
I0
I0
I255
tp72
Rp73
aasI9
(lp74
I1
a(lp75
g7
(I101
I224
I36
I255
tp76
Rp77
aassg33
V00:17 000ms
p78
sba(ieffectgroup
EffectGroup
p79
(dp80
S'm_effects'
p81
(dp82
I0
(lp83
I3
a(lp84
g7
(I255
I0
I0
I255
tp85
Rp86
aV5
p87
aV5
p88
aasI1
(lp89
I-1
aNasI2
(lp90
I-1
aNasI3
(lp91
I-1
aNasI4
(lp92
I-1
aNasI5
(lp93
I-1
aNasI6
(lp94
I-1
aNasI7
(lp95
I-1
aNasI8
(lp96
I-1
aNasI9
(lp97
I-1
aNassS'm_time'
p98
V00:19 000ms
p99
sba.