(lp0
(ieffectgroup
EffectGroup
p1
(dp2
S'm_effects'
p3
(dp4
I0
(lp5
I1
a(lp6
cwx._gdi
Colour
p7
(I0
I0
I0
I255
tp8
Rp9
aasI1
(lp10
I-1
a(lp11
asI2
(lp12
I-1
aNasI3
(lp13
I-1
aNasI4
(lp14
I-1
aNasI5
(lp15
I-1
aNasI6
(lp16
I-1
aNasI7
(lp17
I-1
aNasI8
(lp18
I-1
aNasI9
(lp19
I-1
aNassS'm_time'
p20
V00:01 000ms
p21
sba(ieffectgroup
EffectGroup
p22
(dp23
g3
(dp24
I0
(lp25
I-1
aNasI1
(lp26
I-1
aNasI2
(lp27
I-1
aNasI3
(lp28
I-1
aNasI4
(lp29
I-1
a(lp30
asI5
(lp31
I3
a(lp32
g7
(I0
I0
I1
I255
tp33
Rp34
aV1
p35
aV32
p36
aasI6
(lp37
I-1
aNasI7
(lp38
I-1
aNasI8
(lp39
I-1
aNasI9
(lp40
I-1
aNassg20
V00:02 000ms
p41
sba(ieffectgroup
EffectGroup
p42
(dp43
g3
(dp44
I0
(lp45
I-1
aNasI1
(lp46
I-1
aNasI2
(lp47
I-1
aNasI3
(lp48
I-1
a(lp49
asI4
(lp50
I-1
a(lp51
asI5
(lp52
I5
a(lp53
g7
(I0
I0
I1
I255
tp54
Rp55
ag7
(I0
I0
I30
I255
tp56
Rp57
aV100
p58
aV1
p59
aV32
p60
aasI6
(lp61
I-1
aNasI7
(lp62
I-1
aNasI8
(lp63
I-1
aNasI9
(lp64
I-1
aNassg20
V00:03 000ms
p65
sba(ieffectgroup
EffectGroup
p66
(dp67
g3
(dp68
I0
(lp69
I-1
aNasI1
(lp70
I-1
aNasI2
(lp71
I-1
aNasI3
(lp72
I-1
a(lp73
asI4
(lp74
I-1
a(lp75
asI5
(lp76
I5
a(lp77
g7
(I0
I0
I30
I255
tp78
Rp79
ag7
(I30
I30
I30
I255
tp80
Rp81
aV100
p82
aV1
p83
aV32
p84
aasI6
(lp85
I-1
aNasI7
(lp86
I-1
aNasI8
(lp87
I-1
aNasI9
(lp88
I-1
aNassg20
V00:04 000ms
p89
sba(ieffectgroup
EffectGroup
p90
(dp91
g3
(dp92
I0
(lp93
I-1
aNasI1
(lp94
I-1
aNasI2
(lp95
I-1
aNasI3
(lp96
I-1
aNasI4
(lp97
I10
a(lp98
I4
ag7
(I0
I0
I50
I255
tp99
Rp100
aV16
p101
ag7
(I0
I0
I0
I255
tp102
Rp103
aV32
p104
ag7
(I50
I0
I25
I255
tp105
Rp106
aV16
p107
ag7
(I0
I0
I0
I255
tp108
Rp109
aV32
p110
aasI5
(lp111
I10
a(lp112
I4
ag7
(I0
I0
I50
I255
tp113
Rp114
aV16
p115
ag7
(I0
I0
I0
I255
tp116
Rp117
aV32
p118
ag7
(I50
I0
I25
I255
tp119
Rp120
aV16
p121
ag7
(I0
I0
I0
I255
tp122
Rp123
aV32
p124
aasI6
(lp125
I-1
a(lp126
asI7
(lp127
I-1
aNasI8
(lp128
I-1
aNasI9
(lp129
I-1
aNassg20
V00:05 000ms
p130
sba(ieffectgroup
EffectGroup
p131
(dp132
g3
(dp133
I0
(lp134
I-1
aNasI1
(lp135
I-1
aNasI2
(lp136
I-1
aNasI3
(lp137
I-1
aNasI4
(lp138
I-1
a(lp139
asI5
(lp140
I3
a(lp141
g7
(I0
I0
I30
I255
tp142
Rp143
aV2
p144
aV64
p145
aasI6
(lp146
I-1
aNasI7
(lp147
I-1
aNasI8
(lp148
I-1
aNasI9
(lp149
I-1
aNassg20
V00:06 000ms
p150
sba(ieffectgroup
EffectGroup
p151
(dp152
g3
(dp153
I0
(lp154
I8
a(lp155
I2
ag7
(I50
I0
I25
I255
tp156
Rp157
aV1
p158
ag7
(I0
I0
I0
I255
tp159
Rp160
aV8
p161
aasI1
(lp162
I8
a(lp163
I2
ag7
(I20
I0
I50
I255
tp164
Rp165
aV1
p166
ag7
(I0
I0
I0
I255
tp167
Rp168
aV8
p169
aasI2
(lp170
I8
a(lp171
I2
ag7
(I50
I0
I25
I255
tp172
Rp173
aV1
p174
ag7
(I0
I0
I0
I255
tp175
Rp176
aV8
p177
aasI3
(lp178
I8
a(lp179
I2
ag7
(I20
I0
I50
I255
tp180
Rp181
aV1
p182
ag7
(I0
I0
I0
I255
tp183
Rp184
aV8
p185
aasI4
(lp186
I1
a(lp187
g7
(I5
I2
I2
I255
tp188
Rp189
aasI5
(lp190
I8
a(lp191
I2
ag7
(I0
I30
I30
I255
tp192
Rp193
aV3
p194
ag7
(I0
I1
I0
I255
tp195
Rp196
aV12
p197
aasI6
(lp198
I-1
aNasI7
(lp199
I-1
aNasI8
(lp200
I-1
aNasI9
(lp201
I-1
aNassg20
V00:07 000ms
p202
sba(ieffectgroup
EffectGroup
p203
(dp204
g3
(dp205
I0
(lp206
I-1
aNasI1
(lp207
I-1
aNasI2
(lp208
I-1
aNasI3
(lp209
I-1
aNasI4
(lp210
I5
a(lp211
g7
(I60
I60
I0
I255
tp212
Rp213
ag7
(I255
I255
I255
I255
tp214
Rp215
aV100
p216
aV1
p217
aV8
p218
aasI5
(lp219
I8
a(lp220
I2
ag7
(I0
I30
I30
I255
tp221
Rp222
aV3
p223
ag7
(I0
I1
I0
I255
tp224
Rp225
aV12
p226
aasI6
(lp227
I-1
aNasI7
(lp228
I-1
aNasI8
(lp229
I-1
aNasI9
(lp230
I-1
aNassg20
V00:08 000ms
p231
sba(ieffectgroup
EffectGroup
p232
(dp233
g3
(dp234
I0
(lp235
I3
a(lp236
g7
(I0
I0
I1
I255
tp237
Rp238
aV1
p239
aV32
p240
aasI1
(lp241
I3
a(lp242
g7
(I0
I0
I1
I255
tp243
Rp244
aV1
p245
aV32
p246
aasI2
(lp247
I3
a(lp248
g7
(I0
I0
I1
I255
tp249
Rp250
aV1
p251
aV32
p252
aasI3
(lp253
I3
a(lp254
g7
(I0
I0
I1
I255
tp255
Rp256
aV1
p257
aV32
p258
aasI4
(lp259
I-1
aNasI5
(lp260
I-1
aNasI6
(lp261
I3
a(lp262
g7
(I0
I0
I1
I255
tp263
Rp264
aV1
p265
aV32
p266
aasI7
(lp267
I3
a(lp268
g7
(I0
I0
I1
I255
tp269
Rp270
aV1
p271
aV32
p272
aasI8
(lp273
I3
a(lp274
g7
(I0
I0
I1
I255
tp275
Rp276
aV1
p277
aV32
p278
aasI9
(lp279
I3
a(lp280
g7
(I0
I0
I1
I255
tp281
Rp282
aV1
p283
aV32
p284
aassg20
V00:10 000ms
p285
sba(ieffectgroup
EffectGroup
p286
(dp287
g3
(dp288
I0
(lp289
I3
a(lp290
g7
(I0
I0
I1
I255
tp291
Rp292
aV1
p293
aV32
p294
aasI1
(lp295
I3
a(lp296
g7
(I0
I0
I1
I255
tp297
Rp298
aV1
p299
aV32
p300
aasI2
(lp301
I3
a(lp302
g7
(I0
I0
I1
I255
tp303
Rp304
aV1
p305
aV32
p306
aasI3
(lp307
I3
a(lp308
g7
(I0
I0
I1
I255
tp309
Rp310
aV1
p311
aV32
p312
aasI4
(lp313
I3
a(lp314
g7
(I0
I0
I1
I255
tp315
Rp316
aV1
p317
aV32
p318
aasI5
(lp319
I-1
a(lp320
asI6
(lp321
I-1
aNasI7
(lp322
I-1
aNasI8
(lp323
I-1
aNasI9
(lp324
I-1
aNassg20
V00:11 000ms
p325
sba(ieffectgroup
EffectGroup
p326
(dp327
g3
(dp328
I0
(lp329
I-1
aNasI1
(lp330
I-1
aNasI2
(lp331
I-1
aNasI3
(lp332
I-1
aNasI4
(lp333
I3
a(lp334
g7
(I0
I0
I15
I255
tp335
Rp336
aV1
p337
aV32
p338
aasI5
(lp339
I1
a(lp340
g7
(I15
I0
I15
I255
tp341
Rp342
aasI6
(lp343
I-1
aNasI7
(lp344
I-1
aNasI8
(lp345
I-1
aNasI9
(lp346
I-1
aNassg20
V00:12 000ms
p347
sba(ieffectgroup
EffectGroup
p348
(dp349
g3
(dp350
I0
(lp351
I1
a(lp352
g7
(I0
I0
I0
I255
tp353
Rp354
aasI1
(lp355
I-1
aNasI2
(lp356
I-1
aNasI3
(lp357
I-1
aNasI4
(lp358
I-1
aNasI5
(lp359
I-1
aNasI6
(lp360
I-1
aNasI7
(lp361
I-1
aNasI8
(lp362
I-1
aNasI9
(lp363
I-1
aNassg20
V00:13 000ms
p364
sba(ieffectgroup
EffectGroup
p365
(dp366
g3
(dp367
I0
(lp368
I11
a(lp369
I6
ag7
(I0
I50
I50
I255
tp370
Rp371
aV1
p372
ag7
(I0
I0
I0
I255
tp373
Rp374
aV4
p375
ag7
(I0
I0
I70
I255
tp376
Rp377
aV1
p378
ag7
(I0
I0
I0
I255
tp379
Rp380
aV4
p381
ag7
(I0
I0
I70
I255
tp382
Rp383
aV1
p384
ag7
(I0
I0
I0
I255
tp385
Rp386
aV4
p387
aasI1
(lp388
I11
a(lp389
I6
ag7
(I0
I0
I70
I255
tp390
Rp391
aV1
p392
ag7
(I0
I0
I0
I255
tp393
Rp394
aV4
p395
ag7
(I0
I0
I70
I255
tp396
Rp397
aV1
p398
ag7
(I0
I0
I0
I255
tp399
Rp400
aV4
p401
ag7
(I50
I0
I50
I255
tp402
Rp403
aV1
p404
ag7
(I0
I0
I0
I255
tp405
Rp406
aV1
p407
aasI2
(lp408
I11
a(lp409
I6
ag7
(I0
I50
I50
I255
tp410
Rp411
aV1
p412
ag7
(I0
I0
I0
I255
tp413
Rp414
aV4
p415
ag7
(I0
I0
I70
I255
tp416
Rp417
aV1
p418
ag7
(I0
I0
I0
I255
tp419
Rp420
aV4
p421
ag7
(I0
I0
I70
I255
tp422
Rp423
aV1
p424
ag7
(I0
I0
I0
I255
tp425
Rp426
aV4
p427
aasI3
(lp428
I11
a(lp429
I6
ag7
(I0
I50
I50
I255
tp430
Rp431
aV1
p432
ag7
(I0
I0
I0
I255
tp433
Rp434
aV4
p435
ag7
(I0
I0
I70
I255
tp436
Rp437
aV1
p438
ag7
(I0
I0
I0
I255
tp439
Rp440
aV4
p441
ag7
(I0
I0
I70
I255
tp442
Rp443
aV1
p444
ag7
(I0
I0
I0
I255
tp445
Rp446
aV4
p447
aasI4
(lp448
I-1
a(lp449
asI5
(lp450
I-1
a(lp451
asI6
(lp452
I11
a(lp453
I6
ag7
(I0
I50
I50
I255
tp454
Rp455
aV1
p456
ag7
(I0
I0
I0
I255
tp457
Rp458
aV4
p459
ag7
(I0
I0
I70
I255
tp460
Rp461
aV1
p462
ag7
(I0
I0
I0
I255
tp463
Rp464
aV4
p465
ag7
(I0
I0
I70
I255
tp466
Rp467
aV1
p468
ag7
(I0
I0
I0
I255
tp469
Rp470
aV4
p471
aasI7
(lp472
I11
a(lp473
I6
ag7
(I0
I50
I50
I255
tp474
Rp475
aV1
p476
ag7
(I0
I0
I0
I255
tp477
Rp478
aV4
p479
ag7
(I0
I0
I70
I255
tp480
Rp481
aV1
p482
ag7
(I0
I0
I0
I255
tp483
Rp484
aV4
p485
ag7
(I0
I0
I70
I255
tp486
Rp487
aV1
p488
ag7
(I0
I0
I0
I255
tp489
Rp490
aV4
p491
aasI8
(lp492
I11
a(lp493
I6
ag7
(I0
I0
I70
I255
tp494
Rp495
aV1
p496
ag7
(I0
I0
I0
I255
tp497
Rp498
aV4
p499
ag7
(I0
I0
I70
I255
tp500
Rp501
aV1
p502
ag7
(I0
I0
I0
I255
tp503
Rp504
aV4
p505
ag7
(I50
I0
I50
I255
tp506
Rp507
aV1
p508
ag7
(I0
I0
I0
I255
tp509
Rp510
aV4
p511
aasI9
(lp512
I11
a(lp513
I6
ag7
(I0
I50
I50
I255
tp514
Rp515
aV1
p516
ag7
(I0
I0
I0
I255
tp517
Rp518
aV4
p519
ag7
(I0
I0
I70
I255
tp520
Rp521
aV1
p522
ag7
(I0
I0
I0
I255
tp523
Rp524
aV4
p525
ag7
(I0
I0
I70
I255
tp526
Rp527
aV1
p528
ag7
(I0
I0
I0
I255
tp529
Rp530
aV4
p531
aassg20
V00:14 000ms
p532
sba(ieffectgroup
EffectGroup
p533
(dp534
g3
(dp535
I0
(lp536
I-1
aNasI1
(lp537
I-1
aNasI2
(lp538
I-1
aNasI3
(lp539
I-1
aNasI4
(lp540
I5
a(lp541
g7
(I0
I0
I70
I255
tp542
Rp543
ag7
(I100
I0
I0
I255
tp544
Rp545
aV170
p546
aV1
p547
aV32
p548
aasI5
(lp549
I5
a(lp550
g7
(I0
I0
I70
I255
tp551
Rp552
ag7
(I100
I0
I0
I255
tp553
Rp554
aV170
p555
aV1
p556
aV32
p557
aasI6
(lp558
I-1
aNasI7
(lp559
I-1
aNasI8
(lp560
I-1
aNasI9
(lp561
I-1
aNassg20
V00:15 000ms
p562
sba(ieffectgroup
EffectGroup
p563
(dp564
g3
(dp565
I0
(lp566
I3
a(lp567
g7
(I0
I0
I3
I255
tp568
Rp569
aV2
p570
aV32
p571
aasI1
(lp572
I3
a(lp573
g7
(I0
I0
I3
I255
tp574
Rp575
aV2
p576
aV32
p577
aasI2
(lp578
I3
a(lp579
g7
(I0
I0
I3
I255
tp580
Rp581
aV2
p582
aV32
p583
aasI3
(lp584
I3
a(lp585
g7
(I0
I0
I3
I255
tp586
Rp587
aV2
p588
aV32
p589
aasI4
(lp590
I-1
a(lp591
asI5
(lp592
I-1
a(lp593
asI6
(lp594
I3
a(lp595
g7
(I0
I0
I3
I255
tp596
Rp597
aV2
p598
aV32
p599
aasI7
(lp600
I3
a(lp601
g7
(I0
I0
I3
I255
tp602
Rp603
aV2
p604
aV32
p605
aasI8
(lp606
I3
a(lp607
g7
(I0
I0
I3
I255
tp608
Rp609
aV2
p610
aV32
p611
aasI9
(lp612
I3
a(lp613
g7
(I0
I0
I3
I255
tp614
Rp615
aV2
p616
aV32
p617
aassg20
V00:16 000ms
p618
sba(ieffectgroup
EffectGroup
p619
(dp620
g3
(dp621
I0
(lp622
I5
a(lp623
g7
(I0
I0
I5
I255
tp624
Rp625
ag7
(I12
I10
I10
I255
tp626
Rp627
aV200
p628
aV4
p629
aV32
p630
aasI1
(lp631
I5
a(lp632
g7
(I0
I0
I5
I255
tp633
Rp634
ag7
(I25
I0
I0
I255
tp635
Rp636
aV200
p637
aV4
p638
aV32
p639
aasI2
(lp640
I5
a(lp641
g7
(I0
I0
I5
I255
tp642
Rp643
ag7
(I12
I10
I10
I255
tp644
Rp645
aV200
p646
aV4
p647
aV32
p648
aasI3
(lp649
I5
a(lp650
g7
(I0
I0
I5
I255
tp651
Rp652
ag7
(I25
I0
I0
I255
tp653
Rp654
aV200
p655
aV4
p656
aV32
p657
aasI4
(lp658
I-1
a(lp659
asI5
(lp660
I-1
a(lp661
asI6
(lp662
I5
a(lp663
g7
(I0
I0
I5
I255
tp664
Rp665
ag7
(I25
I0
I0
I255
tp666
Rp667
aV200
p668
aV4
p669
aV32
p670
aasI7
(lp671
I5
a(lp672
g7
(I0
I0
I5
I255
tp673
Rp674
ag7
(I12
I10
I10
I255
tp675
Rp676
aV200
p677
aV4
p678
aV32
p679
aasI8
(lp680
I5
a(lp681
g7
(I0
I0
I5
I255
tp682
Rp683
ag7
(I25
I0
I0
I255
tp684
Rp685
aV200
p686
aV4
p687
aV32
p688
aasI9
(lp689
I5
a(lp690
g7
(I0
I0
I5
I255
tp691
Rp692
ag7
(I12
I10
I10
I255
tp693
Rp694
aV200
p695
aV4
p696
aV32
p697
aassg20
V00:17 000ms
p698
sba(ieffectgroup
EffectGroup
p699
(dp700
g3
(dp701
I0
(lp702
I8
a(lp703
I2
ag7
(I12
I10
I10
I255
tp704
Rp705
aV2
p706
ag7
(I0
I0
I0
I255
tp707
Rp708
aV12
p709
aasI1
(lp710
I8
a(lp711
I2
ag7
(I25
I0
I0
I255
tp712
Rp713
aV2
p714
ag7
(I0
I0
I0
I255
tp715
Rp716
aV12
p717
aasI2
(lp718
I8
a(lp719
I2
ag7
(I12
I10
I10
I255
tp720
Rp721
aV2
p722
ag7
(I0
I0
I0
I255
tp723
Rp724
aV12
p725
aasI3
(lp726
I8
a(lp727
I2
ag7
(I25
I0
I0
I255
tp728
Rp729
aV2
p730
ag7
(I0
I0
I0
I255
tp731
Rp732
aV12
p733
aasI4
(lp734
I-1
a(lp735
asI5
(lp736
I-1
a(lp737
asI6
(lp738
I8
a(lp739
I2
ag7
(I25
I0
I0
I255
tp740
Rp741
aV2
p742
ag7
(I0
I0
I0
I255
tp743
Rp744
aV12
p745
aasI7
(lp746
I8
a(lp747
I2
ag7
(I12
I10
I10
I255
tp748
Rp749
aV2
p750
ag7
(I0
I0
I0
I255
tp751
Rp752
aV12
p753
aasI8
(lp754
I8
a(lp755
I2
ag7
(I25
I0
I0
I255
tp756
Rp757
aV2
p758
ag7
(I0
I0
I0
I255
tp759
Rp760
aV12
p761
aasI9
(lp762
I8
a(lp763
I2
ag7
(I12
I10
I10
I255
tp764
Rp765
aV2
p766
ag7
(I0
I0
I0
I255
tp767
Rp768
aV12
p769
aassg20
V00:18 000ms
p770
sba(ieffectgroup
EffectGroup
p771
(dp772
g3
(dp773
I0
(lp774
I-1
a(lp775
asI1
(lp776
I8
a(lp777
I2
ag7
(I25
I0
I0
I255
tp778
Rp779
aV2
p780
ag7
(I0
I0
I0
I255
tp781
Rp782
aV12
p783
aasI2
(lp784
I8
a(lp785
I2
ag7
(I12
I10
I10
I255
tp786
Rp787
aV2
p788
ag7
(I0
I0
I0
I255
tp789
Rp790
aV12
p791
aasI3
(lp792
I8
a(lp793
I2
ag7
(I25
I0
I0
I255
tp794
Rp795
aV2
p796
ag7
(I0
I0
I0
I255
tp797
Rp798
aV12
p799
aasI4
(lp800
I10
a(lp801
I4
ag7
(I0
I100
I0
I255
tp802
Rp803
aV1
p804
ag7
(I0
I0
I0
I255
tp805
Rp806
aV4
p807
ag7
(I75
I100
I0
I255
tp808
Rp809
aV1
p810
ag7
(I0
I0
I0
I255
tp811
Rp812
aV4
p813
aasI5
(lp814
I-1
a(lp815
asI6
(lp816
I8
a(lp817
I2
ag7
(I25
I0
I0
I255
tp818
Rp819
aV2
p820
ag7
(I0
I0
I0
I255
tp821
Rp822
aV12
p823
aasI7
(lp824
I8
a(lp825
I2
ag7
(I12
I10
I10
I255
tp826
Rp827
aV2
p828
ag7
(I0
I0
I0
I255
tp829
Rp830
aV12
p831
aasI8
(lp832
I8
a(lp833
I2
ag7
(I25
I0
I0
I255
tp834
Rp835
aV2
p836
ag7
(I0
I0
I0
I255
tp837
Rp838
aV12
p839
aasI9
(lp840
I8
a(lp841
I2
ag7
(I12
I10
I10
I255
tp842
Rp843
aV2
p844
ag7
(I0
I0
I0
I255
tp845
Rp846
aV12
p847
aassg20
V00:19 000ms
p848
sba(ieffectgroup
EffectGroup
p849
(dp850
g3
(dp851
I0
(lp852
I-1
aNasI1
(lp853
I8
a(lp854
I2
ag7
(I25
I0
I0
I255
tp855
Rp856
aV2
p857
ag7
(I0
I0
I0
I255
tp858
Rp859
aV12
p860
aasI2
(lp861
I8
a(lp862
I2
ag7
(I12
I10
I10
I255
tp863
Rp864
aV2
p865
ag7
(I0
I0
I0
I255
tp866
Rp867
aV12
p868
aasI3
(lp869
I8
a(lp870
I2
ag7
(I25
I0
I0
I255
tp871
Rp872
aV2
p873
ag7
(I0
I0
I0
I255
tp874
Rp875
aV12
p876
aasI4
(lp877
I10
a(lp878
I4
ag7
(I0
I100
I0
I255
tp879
Rp880
aV1
p881
ag7
(I0
I0
I0
I255
tp882
Rp883
aV4
p884
ag7
(I75
I100
I0
I255
tp885
Rp886
aV1
p887
ag7
(I0
I0
I0
I255
tp888
Rp889
aV4
p890
aasI5
(lp891
I10
a(lp892
I4
ag7
(I0
I100
I0
I255
tp893
Rp894
aV1
p895
ag7
(I0
I0
I0
I255
tp896
Rp897
aV4
p898
ag7
(I0
I100
I50
I255
tp899
Rp900
aV1
p901
ag7
(I0
I0
I0
I255
tp902
Rp903
aV4
p904
aasI6
(lp905
I8
a(lp906
I2
ag7
(I25
I0
I0
I255
tp907
Rp908
aV2
p909
ag7
(I0
I0
I0
I255
tp910
Rp911
aV2
p912
aasI7
(lp913
I8
a(lp914
I2
ag7
(I12
I10
I10
I255
tp915
Rp916
aV2
p917
ag7
(I0
I0
I0
I255
tp918
Rp919
aV12
p920
aasI8
(lp921
I8
a(lp922
I2
ag7
(I25
I0
I0
I255
tp923
Rp924
aV2
p925
ag7
(I0
I0
I0
I255
tp926
Rp927
aV12
p928
aasI9
(lp929
I-1
aNassg20
V00:20 000ms
p930
sba(ieffectgroup
EffectGroup
p931
(dp932
g3
(dp933
I0
(lp934
I-1
aNasI1
(lp935
I-1
aNasI2
(lp936
I-1
aNasI3
(lp937
I-1
aNasI4
(lp938
I-1
aNasI5
(lp939
I-1
aNasI6
(lp940
I-1
aNasI7
(lp941
I-1
aNasI8
(lp942
I-1
aNasI9
(lp943
I-1
aNassg20
V00:21 000ms
p944
sba(ieffectgroup
EffectGroup
p945
(dp946
g3
(dp947
I0
(lp948
I-1
aNasI1
(lp949
I-1
aNasI2
(lp950
I-1
aNasI3
(lp951
I-1
aNasI4
(lp952
I-1
aNasI5
(lp953
I-1
aNasI6
(lp954
I-1
aNasI7
(lp955
I-1
aNasI8
(lp956
I-1
aNasI9
(lp957
I-1
aNassg20
V00:22 000ms
p958
sba(ieffectgroup
EffectGroup
p959
(dp960
g3
(dp961
I0
(lp962
I-1
aNasI1
(lp963
I-1
aNasI2
(lp964
I-1
aNasI3
(lp965
I-1
aNasI4
(lp966
I-1
aNasI5
(lp967
I-1
aNasI6
(lp968
I-1
aNasI7
(lp969
I-1
aNasI8
(lp970
I-1
aNasI9
(lp971
I-1
aNassg20
V00:23 000ms
p972
sba(ieffectgroup
EffectGroup
p973
(dp974
g3
(dp975
I0
(lp976
I-1
aNasI1
(lp977
I-1
aNasI2
(lp978
I-1
aNasI3
(lp979
I-1
aNasI4
(lp980
I-1
aNasI5
(lp981
I-1
aNasI6
(lp982
I-1
aNasI7
(lp983
I-1
aNasI8
(lp984
I-1
aNasI9
(lp985
I-1
aNassg20
V00:24 000ms
p986
sba(ieffectgroup
EffectGroup
p987
(dp988
g3
(dp989
I0
(lp990
I-1
aNasI1
(lp991
I-1
aNasI2
(lp992
I-1
aNasI3
(lp993
I-1
aNasI4
(lp994
I-1
aNasI5
(lp995
I-1
aNasI6
(lp996
I-1
aNasI7
(lp997
I-1
aNasI8
(lp998
I-1
aNasI9
(lp999
I-1
aNassg20
V00:25 000ms
p1000
sba(ieffectgroup
EffectGroup
p1001
(dp1002
g3
(dp1003
I0
(lp1004
I-1
aNasI1
(lp1005
I-1
aNasI2
(lp1006
I-1
aNasI3
(lp1007
I-1
aNasI4
(lp1008
I-1
aNasI5
(lp1009
I-1
aNasI6
(lp1010
I-1
aNasI7
(lp1011
I-1
aNasI8
(lp1012
I-1
aNasI9
(lp1013
I-1
aNassg20
V00:26 000ms
p1014
sba(ieffectgroup
EffectGroup
p1015
(dp1016
g3
(dp1017
I0
(lp1018
I-1
aNasI1
(lp1019
I-1
aNasI2
(lp1020
I-1
aNasI3
(lp1021
I-1
aNasI4
(lp1022
I-1
aNasI5
(lp1023
I-1
aNasI6
(lp1024
I-1
aNasI7
(lp1025
I-1
aNasI8
(lp1026
I-1
aNasI9
(lp1027
I-1
aNassg20
V00:27 000ms
p1028
sba(ieffectgroup
EffectGroup
p1029
(dp1030
g3
(dp1031
I0
(lp1032
I-1
aNasI1
(lp1033
I-1
aNasI2
(lp1034
I-1
aNasI3
(lp1035
I-1
aNasI4
(lp1036
I-1
aNasI5
(lp1037
I-1
aNasI6
(lp1038
I-1
aNasI7
(lp1039
I-1
aNasI8
(lp1040
I-1
aNasI9
(lp1041
I-1
aNassg20
V00:28 000ms
p1042
sba(ieffectgroup
EffectGroup
p1043
(dp1044
g3
(dp1045
I0
(lp1046
I-1
aNasI1
(lp1047
I-1
aNasI2
(lp1048
I-1
aNasI3
(lp1049
I-1
aNasI4
(lp1050
I-1
aNasI5
(lp1051
I-1
aNasI6
(lp1052
I-1
aNasI7
(lp1053
I-1
aNasI8
(lp1054
I-1
aNasI9
(lp1055
I-1
aNassg20
V00:29 000ms
p1056
sba(ieffectgroup
EffectGroup
p1057
(dp1058
g3
(dp1059
I0
(lp1060
I-1
aNasI1
(lp1061
I-1
aNasI2
(lp1062
I-1
aNasI3
(lp1063
I-1
aNasI4
(lp1064
I-1
aNasI5
(lp1065
I-1
aNasI6
(lp1066
I-1
aNasI7
(lp1067
I-1
aNasI8
(lp1068
I-1
aNasI9
(lp1069
I-1
aNassg20
V00:30 000ms
p1070
sba.