(lp0
(ieffectgroup
EffectGroup
p1
(dp2
S'm_effects'
p3
(dp4
I0
(lp5
I1
a(lp6
cwx._gdi
Colour
p7
(I255
I0
I0
I255
tp8
Rp9
aasI1
(lp10
I-1
a(lp11
asI2
(lp12
I-1
a(lp13
asI3
(lp14
I-1
a(lp15
asI4
(lp16
I-1
a(lp17
asI5
(lp18
I-1
aNasI6
(lp19
I-1
aNasI7
(lp20
I-1
aNasI8
(lp21
I-1
aNasI9
(lp22
I-1
a(lp23
asI10
(lp24
I-1
aNasI11
(lp25
I-1
aNassS'm_time'
p26
V00:01 000ms
p27
sba.