(lp0
(ieffectgroup
EffectGroup
p1
(dp2
S'm_effects'
p3
(dp4
I0
(lp5
I-1
aNasI1
(lp6
I-1
aNasI2
(lp7
I-1
aNasI3
(lp8
I-1
aNasI4
(lp9
I3
a(lp10
cwx._gdi
Colour
p11
(I0
I0
I20
I255
tp12
Rp13
aV1
p14
aV6
p15
aasI5
(lp16
I1
a(lp17
g11
(I0
I0
I0
I255
tp18
Rp19
aasI6
(lp20
I-1
aNasI7
(lp21
I-1
aNasI8
(lp22
I-1
aNasI9
(lp23
I-1
aNassS'm_time'
p24
V00:01 000ms
p25
sba(ieffectgroup
EffectGroup
p26
(dp27
g3
(dp28
I0
(lp29
I-1
aNasI1
(lp30
I-1
aNasI2
(lp31
I-1
aNasI3
(lp32
I-1
aNasI4
(lp33
I1
a(lp34
g11
(I0
I0
I0
I255
tp35
Rp36
aasI5
(lp37
I-1
a(lp38
asI6
(lp39
I-1
aNasI7
(lp40
I-1
aNasI8
(lp41
I-1
aNasI9
(lp42
I-1
aNassg24
V00:02 000ms
p43
sba(ieffectgroup
EffectGroup
p44
(dp45
g3
(dp46
I0
(lp47
I-1
aNasI1
(lp48
I-1
aNasI2
(lp49
I-1
aNasI3
(lp50
I-1
aNasI4
(lp51
I-1
aNasI5
(lp52
I3
a(lp53
g11
(I40
I0
I0
I255
tp54
Rp55
aV1
p56
aV6
p57
aasI6
(lp58
I-1
aNasI7
(lp59
I-1
aNasI8
(lp60
I-1
aNasI9
(lp61
I-1
aNassg24
V00:03 000ms
p62
sba(ieffectgroup
EffectGroup
p63
(dp64
g3
(dp65
I0
(lp66
I-1
aNasI1
(lp67
I-1
aNasI2
(lp68
I-1
aNasI3
(lp69
I-1
aNasI4
(lp70
I-1
aNasI5
(lp71
I1
a(lp72
g11
(I0
I0
I0
I255
tp73
Rp74
aasI6
(lp75
I-1
aNasI7
(lp76
I-1
aNasI8
(lp77
I-1
aNasI9
(lp78
I-1
aNassg24
V00:04 000ms
p79
sba(ieffectgroup
EffectGroup
p80
(dp81
g3
(dp82
I0
(lp83
I-1
aNasI1
(lp84
I-1
aNasI2
(lp85
I-1
aNasI3
(lp86
I-1
aNasI4
(lp87
I3
a(lp88
g11
(I40
I0
I0
I255
tp89
Rp90
aV1
p91
aV6
p92
aasI5
(lp93
I3
a(lp94
g11
(I0
I0
I20
I255
tp95
Rp96
aV1
p97
aV6
p98
aasI6
(lp99
I-1
aNasI7
(lp100
I-1
aNasI8
(lp101
I-1
aNasI9
(lp102
I-1
aNassg24
V00:05 000ms
p103
sba(ieffectgroup
EffectGroup
p104
(dp105
g3
(dp106
I0
(lp107
I-1
aNasI1
(lp108
I-1
aNasI2
(lp109
I-1
aNasI3
(lp110
I-1
aNasI4
(lp111
I5
a(lp112
g11
(I0
I0
I30
I255
tp113
Rp114
ag11
(I151
I151
I255
I255
tp115
Rp116
aV80
p117
aV1
p118
aV6
p119
aasI5
(lp120
I5
a(lp121
g11
(I60
I0
I0
I255
tp122
Rp123
ag11
(I255
I157
I157
I255
tp124
Rp125
aV80
p126
aV1
p127
aV6
p128
aasI6
(lp129
I-1
aNasI7
(lp130
I-1
aNasI8
(lp131
I-1
aNasI9
(lp132
I-1
aNassg24
V00:06 000ms
p133
sba(ieffectgroup
EffectGroup
p134
(dp135
g3
(dp136
I0
(lp137
I-1
aNasI1
(lp138
I-1
aNasI2
(lp139
I-1
aNasI3
(lp140
I-1
aNasI4
(lp141
I8
a(lp142
I2
ag11
(I81
I81
I81
I255
tp143
Rp144
aV1
p145
ag11
(I0
I0
I3
I255
tp146
Rp147
aV30
p148
aasI5
(lp149
I8
a(lp150
I2
ag11
(I81
I81
I81
I255
tp151
Rp152
aV1
p153
ag11
(I5
I0
I0
I255
tp154
Rp155
aV30
p156
aasI6
(lp157
I-1
a(lp158
asI7
(lp159
I-1
aNasI8
(lp160
I-1
aNasI9
(lp161
I-1
aNassg24
V00:07 000ms
p162
sba(ieffectgroup
EffectGroup
p163
(dp164
g3
(dp165
I0
(lp166
I-1
aNasI1
(lp167
I-1
aNasI2
(lp168
I-1
aNasI3
(lp169
I-1
aNasI4
(lp170
I8
a(lp171
I2
ag11
(I255
I0
I0
I255
tp172
Rp173
aV1
p174
ag11
(I0
I0
I3
I255
tp175
Rp176
aV30
p177
aasI5
(lp178
I8
a(lp179
I2
ag11
(I0
I0
I255
I255
tp180
Rp181
aV1
p182
ag11
(I5
I0
I0
I255
tp183
Rp184
aV30
p185
aasI6
(lp186
I-1
aNasI7
(lp187
I-1
aNasI8
(lp188
I-1
aNasI9
(lp189
I-1
aNassg24
V00:08 000ms
p190
sba(ieffectgroup
EffectGroup
p191
(dp192
g3
(dp193
I0
(lp194
I-1
aNasI1
(lp195
I-1
aNasI2
(lp196
I-1
aNasI3
(lp197
I-1
aNasI4
(lp198
I1
a(lp199
g11
(I0
I0
I3
I255
tp200
Rp201
aasI5
(lp202
I1
a(lp203
g11
(I5
I0
I0
I255
tp204
Rp205
aasI6
(lp206
I-1
aNasI7
(lp207
I-1
aNasI8
(lp208
I-1
aNasI9
(lp209
I-1
aNassg24
V00:09 000ms
p210
sba(ieffectgroup
EffectGroup
p211
(dp212
g3
(dp213
I0
(lp214
I-1
aNasI1
(lp215
I-1
aNasI2
(lp216
I-1
aNasI3
(lp217
I-1
aNasI4
(lp218
I1
a(lp219
g11
(I0
I0
I0
I255
tp220
Rp221
aasI5
(lp222
I1
a(lp223
g11
(I0
I0
I0
I255
tp224
Rp225
aasI6
(lp226
I-1
aNasI7
(lp227
I-1
aNasI8
(lp228
I-1
aNasI9
(lp229
I-1
aNassg24
V00:10 000ms
p230
sba(ieffectgroup
EffectGroup
p231
(dp232
g3
(dp233
I0
(lp234
I-1
aNasI1
(lp235
I-1
aNasI2
(lp236
I-1
aNasI3
(lp237
I-1
a(lp238
asI4
(lp239
I8
a(lp240
I2
ag11
(I230
I0
I115
I255
tp241
Rp242
aV1
p243
ag11
(I0
I0
I0
I255
tp244
Rp245
aV4
p246
aasI5
(lp247
I8
a(lp248
I2
ag11
(I113
I0
I225
I255
tp249
Rp250
aV1
p251
ag11
(I0
I0
I0
I255
tp252
Rp253
aV4
p254
aasI6
(lp255
I-1
aNasI7
(lp256
I-1
aNasI8
(lp257
I-1
aNasI9
(lp258
I-1
aNassg24
V00:11 000ms
p259
sba(ieffectgroup
EffectGroup
p260
(dp261
g3
(dp262
I0
(lp263
I-1
aNasI1
(lp264
I-1
aNasI2
(lp265
I-1
aNasI3
(lp266
I-1
aNasI4
(lp267
I8
a(lp268
I2
ag11
(I150
I0
I0
I255
tp269
Rp270
aV15
p271
ag11
(I0
I0
I0
I255
tp272
Rp273
aV30
p274
aasI5
(lp275
I8
a(lp276
I2
ag11
(I0
I0
I120
I255
tp277
Rp278
aV15
p279
ag11
(I0
I0
I0
I255
tp280
Rp281
aV30
p282
aasI6
(lp283
I-1
aNasI7
(lp284
I-1
aNasI8
(lp285
I-1
aNasI9
(lp286
I-1
aNassg24
V00:12 000ms
p287
sba(ieffectgroup
EffectGroup
p288
(dp289
g3
(dp290
I0
(lp291
I-1
aNasI1
(lp292
I-1
aNasI2
(lp293
I-1
aNasI3
(lp294
I-1
aNasI4
(lp295
I8
a(lp296
I2
ag11
(I230
I0
I115
I255
tp297
Rp298
aV1
p299
ag11
(I0
I0
I0
I255
tp300
Rp301
aV4
p302
aasI5
(lp303
I8
a(lp304
I2
ag11
(I115
I0
I230
I255
tp305
Rp306
aV1
p307
ag11
(I0
I0
I0
I255
tp308
Rp309
aV4
p310
aasI6
(lp311
I-1
aNasI7
(lp312
I-1
aNasI8
(lp313
I-1
aNasI9
(lp314
I-1
aNassg24
V00:13 000ms
p315
sba(ieffectgroup
EffectGroup
p316
(dp317
g3
(dp318
I0
(lp319
I-1
aNasI1
(lp320
I-1
aNasI2
(lp321
I-1
aNasI3
(lp322
I-1
aNasI4
(lp323
I8
a(lp324
I2
ag11
(I150
I0
I0
I255
tp325
Rp326
aV15
p327
ag11
(I0
I0
I0
I255
tp328
Rp329
aV30
p330
aasI5
(lp331
I8
a(lp332
I2
ag11
(I0
I0
I120
I255
tp333
Rp334
aV15
p335
ag11
(I0
I0
I0
I255
tp336
Rp337
aV30
p338
aasI6
(lp339
I-1
aNasI7
(lp340
I-1
aNasI8
(lp341
I-1
aNasI9
(lp342
I-1
aNassg24
V00:14 000ms
p343
sba(ieffectgroup
EffectGroup
p344
(dp345
g3
(dp346
I0
(lp347
I-1
aNasI1
(lp348
I-1
aNasI2
(lp349
I-1
aNasI3
(lp350
I-1
aNasI4
(lp351
I8
a(lp352
I2
ag11
(I230
I0
I115
I255
tp353
Rp354
aV1
p355
ag11
(I0
I0
I0
I255
tp356
Rp357
aV4
p358
aasI5
(lp359
I8
a(lp360
I2
ag11
(I115
I0
I230
I255
tp361
Rp362
aV1
p363
ag11
(I0
I0
I0
I255
tp364
Rp365
aV4
p366
aasI6
(lp367
I-1
aNasI7
(lp368
I-1
aNasI8
(lp369
I-1
aNasI9
(lp370
I-1
aNassg24
V00:15 000ms
p371
sba(ieffectgroup
EffectGroup
p372
(dp373
g3
(dp374
I0
(lp375
I-1
aNasI1
(lp376
I-1
aNasI2
(lp377
I-1
aNasI3
(lp378
I-1
aNasI4
(lp379
I8
a(lp380
I2
ag11
(I150
I0
I0
I255
tp381
Rp382
aV15
p383
ag11
(I0
I0
I0
I255
tp384
Rp385
aV30
p386
aasI5
(lp387
I8
a(lp388
I2
ag11
(I0
I0
I120
I255
tp389
Rp390
aV15
p391
ag11
(I0
I0
I0
I255
tp392
Rp393
aV30
p394
aasI6
(lp395
I-1
aNasI7
(lp396
I-1
aNasI8
(lp397
I-1
aNasI9
(lp398
I-1
aNassg24
V00:16 000ms
p399
sba(ieffectgroup
EffectGroup
p400
(dp401
g3
(dp402
I0
(lp403
I-1
aNasI1
(lp404
I-1
aNasI2
(lp405
I-1
aNasI3
(lp406
I-1
aNasI4
(lp407
I8
a(lp408
I2
ag11
(I230
I0
I115
I255
tp409
Rp410
aV1
p411
ag11
(I0
I0
I0
I255
tp412
Rp413
aV4
p414
aasI5
(lp415
I8
a(lp416
I2
ag11
(I115
I0
I230
I255
tp417
Rp418
aV1
p419
ag11
(I0
I0
I0
I255
tp420
Rp421
aV4
p422
aasI6
(lp423
I-1
aNasI7
(lp424
I-1
aNasI8
(lp425
I-1
aNasI9
(lp426
I-1
aNassg24
V00:17 000ms
p427
sba(ieffectgroup
EffectGroup
p428
(dp429
g3
(dp430
I0
(lp431
I-1
aNasI1
(lp432
I-1
aNasI2
(lp433
I-1
aNasI3
(lp434
I-1
aNasI4
(lp435
I-1
aNasI5
(lp436
I-1
aNasI6
(lp437
I-1
aNasI7
(lp438
I-1
aNasI8
(lp439
I-1
aNasI9
(lp440
I-1
aNassg24
V00:18 000ms
p441
sba(ieffectgroup
EffectGroup
p442
(dp443
g3
(dp444
I0
(lp445
I-1
aNasI1
(lp446
I-1
aNasI2
(lp447
I-1
aNasI3
(lp448
I-1
aNasI4
(lp449
I-1
aNasI5
(lp450
I-1
aNasI6
(lp451
I-1
aNasI7
(lp452
I-1
aNasI8
(lp453
I-1
aNasI9
(lp454
I-1
aNassg24
V00:19 000ms
p455
sba(ieffectgroup
EffectGroup
p456
(dp457
g3
(dp458
I0
(lp459
I-1
aNasI1
(lp460
I-1
aNasI2
(lp461
I-1
aNasI3
(lp462
I-1
aNasI4
(lp463
I-1
aNasI5
(lp464
I-1
aNasI6
(lp465
I-1
aNasI7
(lp466
I-1
aNasI8
(lp467
I-1
aNasI9
(lp468
I-1
aNassg24
V00:20 000ms
p469
sba.