(lp0
(ieffectgroup
EffectGroup
p1
(dp2
S'm_effects'
p3
(dp4
I0
(lp5
I5
a(lp6
cwx._gdi
Colour
p7
(I0
I0
I10
I255
tp8
Rp9
ag7
(I3
I2
I2
I255
tp10
Rp11
aV200
p12
aV1
p13
aV30
p14
aasI1
(lp15
I5
a(lp16
g7
(I0
I0
I10
I255
tp17
Rp18
ag7
(I3
I2
I2
I255
tp19
Rp20
aV200
p21
aV1
p22
aV30
p23
aasI2
(lp24
I5
a(lp25
g7
(I0
I0
I10
I255
tp26
Rp27
ag7
(I3
I2
I2
I255
tp28
Rp29
aV200
p30
aV1
p31
aV30
p32
aasI3
(lp33
I5
a(lp34
g7
(I0
I0
I10
I255
tp35
Rp36
ag7
(I3
I2
I2
I255
tp37
Rp38
aV200
p39
aV1
p40
aV30
p41
aasI4
(lp42
I-1
aNasI5
(lp43
I-1
aNasI6
(lp44
I5
a(lp45
g7
(I0
I0
I10
I255
tp46
Rp47
ag7
(I3
I2
I2
I255
tp48
Rp49
aV200
p50
aV1
p51
aV30
p52
aasI7
(lp53
I5
a(lp54
g7
(I0
I0
I10
I255
tp55
Rp56
ag7
(I3
I2
I2
I255
tp57
Rp58
aV200
p59
aV1
p60
aV30
p61
aasI8
(lp62
I5
a(lp63
g7
(I0
I0
I10
I255
tp64
Rp65
ag7
(I3
I2
I2
I255
tp66
Rp67
aV200
p68
aV1
p69
aV30
p70
aasI9
(lp71
I5
a(lp72
g7
(I0
I0
I10
I255
tp73
Rp74
ag7
(I3
I2
I2
I255
tp75
Rp76
aV200
p77
aV1
p78
aV30
p79
aassS'm_time'
p80
V00:01 000ms
p81
sba(ieffectgroup
EffectGroup
p82
(dp83
g3
(dp84
I0
(lp85
I5
a(lp86
g7
(I0
I0
I10
I255
tp87
Rp88
ag7
(I3
I2
I2
I255
tp89
Rp90
aV200
p91
aV1
p92
aV30
p93
aasI1
(lp94
I5
a(lp95
g7
(I0
I0
I10
I255
tp96
Rp97
ag7
(I3
I2
I2
I255
tp98
Rp99
aV200
p100
aV1
p101
aV30
p102
aasI2
(lp103
I5
a(lp104
g7
(I0
I0
I10
I255
tp105
Rp106
ag7
(I3
I2
I2
I255
tp107
Rp108
aV200
p109
aV1
p110
aV30
p111
aasI3
(lp112
I5
a(lp113
g7
(I0
I0
I10
I255
tp114
Rp115
ag7
(I3
I2
I2
I255
tp116
Rp117
aV200
p118
aV1
p119
aV30
p120
aasI4
(lp121
I8
a(lp122
I2
ag7
(I6
I6
I6
I255
tp123
Rp124
aV8
p125
ag7
(I0
I0
I0
I255
tp126
Rp127
aV32
p128
aasI5
(lp129
I8
a(lp130
I2
ag7
(I6
I6
I6
I255
tp131
Rp132
aV8
p133
ag7
(I0
I0
I0
I255
tp134
Rp135
aV32
p136
aasI6
(lp137
I5
a(lp138
g7
(I0
I0
I10
I255
tp139
Rp140
ag7
(I3
I2
I2
I255
tp141
Rp142
aV200
p143
aV1
p144
aV30
p145
aasI7
(lp146
I5
a(lp147
g7
(I0
I0
I10
I255
tp148
Rp149
ag7
(I3
I2
I2
I255
tp150
Rp151
aV200
p152
aV1
p153
aV30
p154
aasI8
(lp155
I5
a(lp156
g7
(I0
I0
I10
I255
tp157
Rp158
ag7
(I3
I2
I2
I255
tp159
Rp160
aV200
p161
aV1
p162
aV30
p163
aasI9
(lp164
I5
a(lp165
g7
(I0
I0
I10
I255
tp166
Rp167
ag7
(I3
I2
I2
I255
tp168
Rp169
aV200
p170
aV1
p171
aV30
p172
aassg80
V00:02 000ms
p173
sba(ieffectgroup
EffectGroup
p174
(dp175
g3
(dp176
I0
(lp177
I-1
aNasI1
(lp178
I-1
aNasI2
(lp179
I-1
aNasI3
(lp180
I-1
aNasI4
(lp181
I8
a(lp182
I2
ag7
(I6
I6
I6
I255
tp183
Rp184
aV8
p185
ag7
(I0
I0
I0
I255
tp186
Rp187
aV32
p188
aasI5
(lp189
I8
a(lp190
I2
ag7
(I6
I6
I6
I255
tp191
Rp192
aV8
p193
ag7
(I0
I0
I0
I255
tp194
Rp195
aV32
p196
aasI6
(lp197
I-1
aNasI7
(lp198
I-1
aNasI8
(lp199
I-1
aNasI9
(lp200
I-1
aNassg80
V00:03 000ms
p201
sba(ieffectgroup
EffectGroup
p202
(dp203
g3
(dp204
I0
(lp205
I1
a(lp206
g7
(I0
I0
I0
I255
tp207
Rp208
aasI1
(lp209
I-1
a(lp210
asI2
(lp211
I-1
aNasI3
(lp212
I-1
a(lp213
asI4
(lp214
I-1
a(lp215
asI5
(lp216
I-1
aNasI6
(lp217
I-1
aNasI7
(lp218
I-1
aNasI8
(lp219
I-1
aNasI9
(lp220
I-1
aNassg80
V00:04 000ms
p221
sba(ieffectgroup
EffectGroup
p222
(dp223
g3
(dp224
I0
(lp225
I5
a(lp226
g7
(I200
I0
I0
I255
tp227
Rp228
ag7
(I0
I60
I60
I255
tp229
Rp230
aV200
p231
aV5
p232
aV20
p233
aasI1
(lp234
I5
a(lp235
g7
(I200
I0
I0
I255
tp236
Rp237
ag7
(I0
I100
I0
I255
tp238
Rp239
aV200
p240
aV5
p241
aV20
p242
aasI2
(lp243
I5
a(lp244
g7
(I200
I0
I0
I255
tp245
Rp246
ag7
(I0
I60
I60
I255
tp247
Rp248
aV200
p249
aV5
p250
aV20
p251
aasI3
(lp252
I5
a(lp253
g7
(I200
I0
I0
I255
tp254
Rp255
ag7
(I0
I100
I0
I255
tp256
Rp257
aV200
p258
aV5
p259
aV20
p260
aasI4
(lp261
I-1
a(lp262
asI5
(lp263
I1
a(lp264
g7
(I0
I0
I0
I255
tp265
Rp266
aasI6
(lp267
I5
a(lp268
g7
(I200
I0
I0
I255
tp269
Rp270
ag7
(I0
I100
I0
I255
tp271
Rp272
aV200
p273
aV5
p274
aV20
p275
aasI7
(lp276
I5
a(lp277
g7
(I200
I0
I0
I255
tp278
Rp279
ag7
(I0
I60
I60
I255
tp280
Rp281
aV200
p282
aV5
p283
aV20
p284
aasI8
(lp285
I5
a(lp286
g7
(I200
I0
I0
I255
tp287
Rp288
ag7
(I0
I100
I0
I255
tp289
Rp290
aV200
p291
aV5
p292
aV20
p293
aasI9
(lp294
I5
a(lp295
g7
(I200
I0
I0
I255
tp296
Rp297
ag7
(I0
I60
I60
I255
tp298
Rp299
aV200
p300
aV5
p301
aV20
p302
aassg80
V00:05 000ms
p303
sba(ieffectgroup
EffectGroup
p304
(dp305
g3
(dp306
I0
(lp307
I5
a(lp308
g7
(I15
I0
I0
I255
tp309
Rp310
ag7
(I0
I3
I3
I255
tp311
Rp312
aV200
p313
aV1
p314
aV20
p315
aasI1
(lp316
I5
a(lp317
g7
(I15
I0
I0
I255
tp318
Rp319
ag7
(I0
I0
I4
I255
tp320
Rp321
aV200
p322
aV1
p323
aV20
p324
aasI2
(lp325
I5
a(lp326
g7
(I15
I0
I0
I255
tp327
Rp328
ag7
(I0
I3
I3
I255
tp329
Rp330
aV200
p331
aV1
p332
aV20
p333
aasI3
(lp334
I5
a(lp335
g7
(I15
I0
I0
I255
tp336
Rp337
ag7
(I0
I0
I4
I255
tp338
Rp339
aV200
p340
aV1
p341
aV20
p342
aasI4
(lp343
I-1
aNasI5
(lp344
I-1
aNasI6
(lp345
I5
a(lp346
g7
(I15
I0
I0
I255
tp347
Rp348
ag7
(I0
I0
I4
I255
tp349
Rp350
aV200
p351
aV1
p352
aV20
p353
aasI7
(lp354
I5
a(lp355
g7
(I15
I0
I0
I255
tp356
Rp357
ag7
(I0
I3
I3
I255
tp358
Rp359
aV200
p360
aV1
p361
aV20
p362
aasI8
(lp363
I5
a(lp364
g7
(I15
I0
I0
I255
tp365
Rp366
ag7
(I0
I0
I4
I255
tp367
Rp368
aV200
p369
aV1
p370
aV20
p371
aasI9
(lp372
I5
a(lp373
g7
(I15
I0
I0
I255
tp374
Rp375
ag7
(I0
I3
I3
I255
tp376
Rp377
aV200
p378
aV1
p379
aV20
p380
aassg80
V00:05 500ms
p381
sba(ieffectgroup
EffectGroup
p382
(dp383
g3
(dp384
I0
(lp385
I5
a(lp386
g7
(I0
I0
I10
I255
tp387
Rp388
ag7
(I7
I4
I0
I255
tp389
Rp390
aV200
p391
aV1
p392
aV20
p393
aasI1
(lp394
I5
a(lp395
g7
(I0
I0
I10
I255
tp396
Rp397
ag7
(I0
I4
I0
I255
tp398
Rp399
aV200
p400
aV1
p401
aV20
p402
aasI2
(lp403
I5
a(lp404
g7
(I0
I0
I10
I255
tp405
Rp406
ag7
(I7
I4
I0
I255
tp407
Rp408
aV200
p409
aV1
p410
aV20
p411
aasI3
(lp412
I5
a(lp413
g7
(I0
I0
I10
I255
tp414
Rp415
ag7
(I0
I4
I0
I255
tp416
Rp417
aV200
p418
aV1
p419
aV20
p420
aasI4
(lp421
I-1
a(lp422
asI5
(lp423
I-1
a(lp424
asI6
(lp425
I5
a(lp426
g7
(I0
I0
I10
I255
tp427
Rp428
ag7
(I0
I4
I0
I255
tp429
Rp430
aV200
p431
aV1
p432
aV20
p433
aasI7
(lp434
I5
a(lp435
g7
(I0
I0
I10
I255
tp436
Rp437
ag7
(I7
I4
I0
I255
tp438
Rp439
aV200
p440
aV1
p441
aV20
p442
aasI8
(lp443
I5
a(lp444
g7
(I0
I0
I10
I255
tp445
Rp446
ag7
(I0
I4
I0
I255
tp447
Rp448
aV200
p449
aV1
p450
aV20
p451
aasI9
(lp452
I5
a(lp453
g7
(I0
I0
I10
I255
tp454
Rp455
ag7
(I7
I4
I0
I255
tp456
Rp457
aV200
p458
aV1
p459
aV20
p460
aassg80
V00:06 000ms
p461
sba(ieffectgroup
EffectGroup
p462
(dp463
g3
(dp464
I0
(lp465
I5
a(lp466
g7
(I0
I0
I10
I255
tp467
Rp468
ag7
(I7
I4
I0
I255
tp469
Rp470
aV200
p471
aV1
p472
aV20
p473
aasI1
(lp474
I5
a(lp475
g7
(I0
I0
I10
I255
tp476
Rp477
ag7
(I8
I0
I0
I255
tp478
Rp479
aV200
p480
aV1
p481
aV20
p482
aasI2
(lp483
I5
a(lp484
g7
(I0
I0
I10
I255
tp485
Rp486
ag7
(I7
I4
I0
I255
tp487
Rp488
aV200
p489
aV1
p490
aV20
p491
aasI3
(lp492
I5
a(lp493
g7
(I0
I0
I10
I255
tp494
Rp495
ag7
(I8
I0
I0
I255
tp496
Rp497
aV200
p498
aV1
p499
aV20
p500
aasI4
(lp501
I-1
a(lp502
asI5
(lp503
I-1
a(lp504
asI6
(lp505
I5
a(lp506
g7
(I0
I0
I10
I255
tp507
Rp508
ag7
(I8
I0
I0
I255
tp509
Rp510
aV200
p511
aV1
p512
aV20
p513
aasI7
(lp514
I5
a(lp515
g7
(I0
I0
I10
I255
tp516
Rp517
ag7
(I7
I4
I0
I255
tp518
Rp519
aV200
p520
aV1
p521
aV20
p522
aasI8
(lp523
I5
a(lp524
g7
(I0
I0
I10
I255
tp525
Rp526
ag7
(I8
I0
I0
I255
tp527
Rp528
aV200
p529
aV1
p530
aV20
p531
aasI9
(lp532
I5
a(lp533
g7
(I0
I0
I10
I255
tp534
Rp535
ag7
(I7
I4
I0
I255
tp536
Rp537
aV200
p538
aV1
p539
aV20
p540
aassg80
V00:07 000ms
p541
sba(ieffectgroup
EffectGroup
p542
(dp543
g3
(dp544
I0
(lp545
I5
a(lp546
g7
(I0
I8
I0
I255
tp547
Rp548
ag7
(I7
I0
I4
I255
tp549
Rp550
aV200
p551
aV1
p552
aV20
p553
aasI1
(lp554
I5
a(lp555
g7
(I0
I8
I0
I255
tp556
Rp557
ag7
(I8
I0
I0
I255
tp558
Rp559
aV200
p560
aV1
p561
aV20
p562
aasI2
(lp563
I5
a(lp564
g7
(I0
I8
I0
I255
tp565
Rp566
ag7
(I7
I0
I4
I255
tp567
Rp568
aV200
p569
aV1
p570
aV20
p571
aasI3
(lp572
I5
a(lp573
g7
(I0
I8
I0
I255
tp574
Rp575
ag7
(I8
I0
I0
I255
tp576
Rp577
aV200
p578
aV1
p579
aV20
p580
aasI4
(lp581
I-1
a(lp582
asI5
(lp583
I-1
a(lp584
asI6
(lp585
I5
a(lp586
g7
(I0
I8
I0
I255
tp587
Rp588
ag7
(I8
I0
I0
I255
tp589
Rp590
aV200
p591
aV1
p592
aV20
p593
aasI7
(lp594
I5
a(lp595
g7
(I0
I8
I0
I255
tp596
Rp597
ag7
(I7
I0
I4
I255
tp598
Rp599
aV200
p600
aV1
p601
aV20
p602
aasI8
(lp603
I5
a(lp604
g7
(I0
I8
I0
I255
tp605
Rp606
ag7
(I8
I0
I0
I255
tp607
Rp608
aV200
p609
aV1
p610
aV20
p611
aasI9
(lp612
I5
a(lp613
g7
(I0
I8
I0
I255
tp614
Rp615
ag7
(I7
I0
I4
I255
tp616
Rp617
aV200
p618
aV1
p619
aV20
p620
aassg80
V00:08 000ms
p621
sba(ieffectgroup
EffectGroup
p622
(dp623
g3
(dp624
I0
(lp625
I-1
aNasI1
(lp626
I-1
aNasI2
(lp627
I-1
aNasI3
(lp628
I-1
aNasI4
(lp629
I3
a(lp630
g7
(I50
I1
I0
I255
tp631
Rp632
aV1
p633
aV5
p634
aasI5
(lp635
I-1
a(lp636
asI6
(lp637
I-1
aNasI7
(lp638
I-1
aNasI8
(lp639
I-1
aNasI9
(lp640
I-1
aNassg80
V00:09 000ms
p641
sba(ieffectgroup
EffectGroup
p642
(dp643
g3
(dp644
I0
(lp645
I-1
aNasI1
(lp646
I-1
aNasI2
(lp647
I-1
aNasI3
(lp648
I-1
aNasI4
(lp649
I-1
aNasI5
(lp650
I10
a(lp651
I4
ag7
(I50
I5
I0
I255
tp652
Rp653
aV12
p654
ag7
(I0
I0
I0
I255
tp655
Rp656
aV28
p657
ag7
(I80
I20
I0
I255
tp658
Rp659
aV12
p660
ag7
(I0
I0
I0
I255
tp661
Rp662
aV28
p663
aasI6
(lp664
I-1
aNasI7
(lp665
I-1
aNasI8
(lp666
I-1
aNasI9
(lp667
I-1
aNassg80
V00:10 000ms
p668
sba(ieffectgroup
EffectGroup
p669
(dp670
g3
(dp671
I0
(lp672
I-1
aNasI1
(lp673
I-1
aNasI2
(lp674
I-1
aNasI3
(lp675
I-1
aNasI4
(lp676
I-1
aNasI5
(lp677
I-1
aNasI6
(lp678
I-1
aNasI7
(lp679
I-1
aNasI8
(lp680
I-1
aNasI9
(lp681
I-1
aNassg80
V00:11 000ms
p682
sba(ieffectgroup
EffectGroup
p683
(dp684
g3
(dp685
I0
(lp686
I-1
aNasI1
(lp687
I-1
aNasI2
(lp688
I-1
aNasI3
(lp689
I-1
aNasI4
(lp690
I-1
aNasI5
(lp691
I-1
aNasI6
(lp692
I-1
aNasI7
(lp693
I-1
aNasI8
(lp694
I-1
aNasI9
(lp695
I-1
aNassg80
V00:12 000ms
p696
sba(ieffectgroup
EffectGroup
p697
(dp698
g3
(dp699
I0
(lp700
I-1
aNasI1
(lp701
I-1
aNasI2
(lp702
I-1
aNasI3
(lp703
I-1
aNasI4
(lp704
I-1
aNasI5
(lp705
I-1
aNasI6
(lp706
I-1
aNasI7
(lp707
I-1
aNasI8
(lp708
I-1
aNasI9
(lp709
I-1
aNassg80
V00:13 000ms
p710
sba(ieffectgroup
EffectGroup
p711
(dp712
g3
(dp713
I0
(lp714
I-1
aNasI1
(lp715
I-1
aNasI2
(lp716
I-1
aNasI3
(lp717
I-1
aNasI4
(lp718
I-1
aNasI5
(lp719
I-1
aNasI6
(lp720
I-1
aNasI7
(lp721
I-1
aNasI8
(lp722
I-1
aNasI9
(lp723
I-1
aNassg80
V00:14 000ms
p724
sba(ieffectgroup
EffectGroup
p725
(dp726
g3
(dp727
I0
(lp728
I-1
aNasI1
(lp729
I-1
aNasI2
(lp730
I-1
aNasI3
(lp731
I-1
aNasI4
(lp732
I-1
aNasI5
(lp733
I-1
aNasI6
(lp734
I-1
aNasI7
(lp735
I-1
aNasI8
(lp736
I-1
aNasI9
(lp737
I-1
aNassg80
V00:15 000ms
p738
sba(ieffectgroup
EffectGroup
p739
(dp740
g3
(dp741
I0
(lp742
I-1
aNasI1
(lp743
I-1
aNasI2
(lp744
I-1
aNasI3
(lp745
I-1
aNasI4
(lp746
I-1
aNasI5
(lp747
I-1
aNasI6
(lp748
I-1
aNasI7
(lp749
I-1
aNasI8
(lp750
I-1
aNasI9
(lp751
I-1
aNassg80
V00:16 000ms
p752
sba(ieffectgroup
EffectGroup
p753
(dp754
g3
(dp755
I0
(lp756
I-1
aNasI1
(lp757
I-1
aNasI2
(lp758
I-1
aNasI3
(lp759
I-1
aNasI4
(lp760
I-1
aNasI5
(lp761
I-1
aNasI6
(lp762
I-1
aNasI7
(lp763
I-1
aNasI8
(lp764
I-1
aNasI9
(lp765
I-1
aNassg80
V00:17 000ms
p766
sba(ieffectgroup
EffectGroup
p767
(dp768
g3
(dp769
I0
(lp770
I-1
aNasI1
(lp771
I-1
aNasI2
(lp772
I-1
aNasI3
(lp773
I-1
aNasI4
(lp774
I-1
aNasI5
(lp775
I-1
aNasI6
(lp776
I-1
aNasI7
(lp777
I-1
aNasI8
(lp778
I-1
aNasI9
(lp779
I-1
aNassg80
V00:18 000ms
p780
sba(ieffectgroup
EffectGroup
p781
(dp782
g3
(dp783
I0
(lp784
I-1
aNasI1
(lp785
I-1
aNasI2
(lp786
I-1
aNasI3
(lp787
I-1
aNasI4
(lp788
I-1
aNasI5
(lp789
I-1
aNasI6
(lp790
I-1
aNasI7
(lp791
I-1
aNasI8
(lp792
I-1
aNasI9
(lp793
I-1
aNassg80
V00:19 000ms
p794
sba(ieffectgroup
EffectGroup
p795
(dp796
g3
(dp797
I0
(lp798
I-1
aNasI1
(lp799
I-1
aNasI2
(lp800
I-1
aNasI3
(lp801
I-1
aNasI4
(lp802
I-1
aNasI5
(lp803
I-1
aNasI6
(lp804
I-1
aNasI7
(lp805
I-1
aNasI8
(lp806
I-1
aNasI9
(lp807
I-1
aNassg80
V00:20 000ms
p808
sba.