(lp0
(ieffectgroup
EffectGroup
p1
(dp2
S'm_effects'
p3
(dp4
I0
(lp5
I10
a(lp6
I4
acwx._gdi
Colour
p7
(I0
I166
I100
I255
tp8
Rp9
aV1
p10
ag7
(I0
I0
I0
I255
tp11
Rp12
aV2
p13
ag7
(I0
I40
I255
I255
tp14
Rp15
aV1
p16
ag7
(I0
I0
I0
I255
tp17
Rp18
aV2
p19
aasI1
(lp20
I10
a(lp21
I4
ag7
(I0
I166
I100
I255
tp22
Rp23
aV1
p24
ag7
(I0
I0
I0
I255
tp25
Rp26
aV2
p27
ag7
(I0
I40
I255
I255
tp28
Rp29
aV1
p30
ag7
(I0
I0
I0
I255
tp31
Rp32
aV2
p33
aasI2
(lp34
I10
a(lp35
I4
ag7
(I0
I166
I100
I255
tp36
Rp37
aV1
p38
ag7
(I0
I0
I0
I255
tp39
Rp40
aV2
p41
ag7
(I0
I40
I255
I255
tp42
Rp43
aV1
p44
ag7
(I0
I0
I0
I255
tp45
Rp46
aV2
p47
aasI3
(lp48
I9
a(lp49
I3
ag7
(I0
I40
I255
I255
tp50
Rp51
aV5
p52
ag7
(I100
I0
I255
I255
tp53
Rp54
aV5
p55
ag7
(I0
I0
I0
I255
tp56
Rp57
aV10
p58
aasI4
(lp59
I3
a(lp60
g7
(I0
I119
I53
I255
tp61
Rp62
aV2
p63
aV4
p64
aasI5
(lp65
I3
a(lp66
g7
(I0
I0
I117
I255
tp67
Rp68
aV2
p69
aV4
p70
aasI6
(lp71
I9
a(lp72
I3
ag7
(I0
I166
I100
I255
tp73
Rp74
aV4
p75
ag7
(I100
I0
I255
I255
tp76
Rp77
aV4
p78
ag7
(I0
I0
I0
I255
tp79
Rp80
aV8
p81
aasI7
(lp82
I10
a(lp83
I4
ag7
(I0
I40
I255
I255
tp84
Rp85
aV6
p86
ag7
(I0
I0
I0
I255
tp87
Rp88
aV6
p89
ag7
(I0
I166
I100
I255
tp90
Rp91
aV6
p92
ag7
(I0
I0
I0
I255
tp93
Rp94
aV6
p95
aasI8
(lp96
I10
a(lp97
I4
ag7
(I0
I40
I255
I255
tp98
Rp99
aV6
p100
ag7
(I0
I0
I0
I255
tp101
Rp102
aV10
p103
ag7
(I0
I166
I100
I255
tp104
Rp105
aV6
p106
ag7
(I0
I0
I0
I255
tp107
Rp108
aV10
p109
aasI9
(lp110
I10
a(lp111
I4
ag7
(I0
I40
I255
I255
tp112
Rp113
aV8
p114
ag7
(I0
I0
I0
I255
tp115
Rp116
aV12
p117
ag7
(I0
I166
I100
I255
tp118
Rp119
aV6
p120
ag7
(I0
I0
I0
I255
tp121
Rp122
aV12
p123
aassS'm_time'
p124
V00:00 000ms
p125
sba.