(lp0
(ieffectgroup
EffectGroup
p1
(dp2
S'm_effects'
p3
(dp4
I0
(lp5
I10
a(lp6
I4
acwx._gdi
Colour
p7
(I0
I0
I120
I255
tp8
Rp9
aV4
p10
ag7
(I0
I0
I0
I255
tp11
Rp12
aV1
p13
ag7
(I0
I40
I120
I255
tp14
Rp15
aV4
p16
ag7
(I0
I0
I0
I255
tp17
Rp18
aV1
p19
aasI1
(lp20
I10
a(lp21
I4
ag7
(I60
I0
I120
I255
tp22
Rp23
aV4
p24
ag7
(I0
I0
I0
I255
tp25
Rp26
aV1
p27
ag7
(I0
I0
I120
I255
tp28
Rp29
aV4
p30
ag7
(I0
I0
I0
I255
tp31
Rp32
aV1
p33
aasI2
(lp34
I10
a(lp35
I4
ag7
(I0
I0
I120
I255
tp36
Rp37
aV4
p38
ag7
(I0
I0
I0
I255
tp39
Rp40
aV1
p41
ag7
(I0
I40
I120
I255
tp42
Rp43
aV4
p44
ag7
(I0
I0
I0
I255
tp45
Rp46
aV1
p47
aasI3
(lp48
I10
a(lp49
I4
ag7
(I60
I0
I120
I255
tp50
Rp51
aV4
p52
ag7
(I0
I0
I0
I255
tp53
Rp54
aV1
p55
ag7
(I0
I0
I120
I255
tp56
Rp57
aV4
p58
ag7
(I0
I0
I0
I255
tp59
Rp60
aV1
p61
aasI4
(lp62
I-1
a(lp63
asI5
(lp64
I-1
a(lp65
asI6
(lp66
I10
a(lp67
I4
ag7
(I0
I0
I0
I255
tp68
Rp69
aV1
p70
ag7
(I0
I0
I120
I255
tp71
Rp72
aV4
p73
ag7
(I0
I0
I0
I255
tp74
Rp75
aV1
p76
ag7
(I60
I0
I120
I255
tp77
Rp78
aV4
p79
aasI7
(lp80
I10
a(lp81
I4
ag7
(I0
I0
I0
I255
tp82
Rp83
aV1
p84
ag7
(I0
I0
I120
I255
tp85
Rp86
aV4
p87
ag7
(I0
I0
I0
I255
tp88
Rp89
aV1
p90
ag7
(I0
I40
I120
I255
tp91
Rp92
aV4
p93
aasI8
(lp94
I10
a(lp95
I4
ag7
(I0
I0
I0
I255
tp96
Rp97
aV1
p98
ag7
(I60
I0
I120
I255
tp99
Rp100
aV4
p101
ag7
(I0
I0
I0
I255
tp102
Rp103
aV1
p104
ag7
(I0
I0
I120
I255
tp105
Rp106
aV4
p107
aasI9
(lp108
I10
a(lp109
I4
ag7
(I0
I0
I0
I255
tp110
Rp111
aV1
p112
ag7
(I0
I0
I120
I255
tp113
Rp114
aV4
p115
ag7
(I0
I0
I0
I255
tp116
Rp117
aV1
p118
ag7
(I0
I40
I120
I255
tp119
Rp120
aV4
p121
aassS'm_time'
p122
V00:00 000ms
p123
sba.