(lp0
(ieffectgroup
EffectGroup
p1
(dp2
S'm_effects'
p3
(dp4
I0
(lp5
I1
a(lp6
cwx._gdi
Colour
p7
(I0
I0
I0
I255
tp8
Rp9
aasI1
(lp10
I-1
aNasI2
(lp11
I-1
aNasI3
(lp12
I-1
aNasI4
(lp13
I-1
aNasI5
(lp14
I-1
aNasI6
(lp15
I-1
aNasI7
(lp16
I-1
aNasI8
(lp17
I-1
aNasI9
(lp18
I-1
aNasI10
(lp19
I-1
aNasI11
(lp20
I-1
aNassS'm_time'
p21
V00:00 000ms
p22
sba(ieffectgroup
EffectGroup
p23
(dp24
g3
(dp25
I0
(lp26
I3
a(lp27
g7
(I255
I0
I0
I255
tp28
Rp29
aV1
p30
aV2
p31
aasI1
(lp32
I-1
a(lp33
asI2
(lp34
I-1
aNasI3
(lp35
I-1
aNasI4
(lp36
I-1
a(lp37
asI5
(lp38
I-1
aNasI6
(lp39
I-1
aNasI7
(lp40
I-1
aNasI8
(lp41
I-1
aNasI9
(lp42
I-1
aNasI10
(lp43
I-1
aNasI11
(lp44
I-1
aNassg21
V00:03 000ms
p45
sba(ieffectgroup
EffectGroup
p46
(dp47
g3
(dp48
I0
(lp49
I-1
a(lp50
asI1
(lp51
I3
a(lp52
g7
(I255
I0
I0
I255
tp53
Rp54
aV1
p55
aV4
p56
aasI2
(lp57
I-1
aNasI3
(lp58
I-1
aNasI4
(lp59
I-1
aNasI5
(lp60
I-1
aNasI6
(lp61
I-1
aNasI7
(lp62
I-1
aNasI8
(lp63
I-1
aNasI9
(lp64
I-1
aNasI10
(lp65
I-1
aNasI11
(lp66
I-1
aNassg21
V00:04 000ms
p67
sba(ieffectgroup
EffectGroup
p68
(dp69
g3
(dp70
I0
(lp71
I-1
aNasI1
(lp72
I-1
aNasI2
(lp73
I3
a(lp74
g7
(I255
I0
I0
I255
tp75
Rp76
aV1
p77
aV8
p78
aasI3
(lp79
I-1
aNasI4
(lp80
I-1
aNasI5
(lp81
I-1
aNasI6
(lp82
I-1
aNasI7
(lp83
I-1
aNasI8
(lp84
I-1
aNasI9
(lp85
I-1
aNasI10
(lp86
I-1
aNasI11
(lp87
I-1
aNassg21
V00:05 000ms
p88
sba(ieffectgroup
EffectGroup
p89
(dp90
g3
(dp91
I0
(lp92
I-1
aNasI1
(lp93
I-1
aNasI2
(lp94
I-1
aNasI3
(lp95
I3
a(lp96
g7
(I255
I0
I0
I255
tp97
Rp98
aV1
p99
aV16
p100
aasI4
(lp101
I-1
aNasI5
(lp102
I-1
aNasI6
(lp103
I-1
aNasI7
(lp104
I-1
aNasI8
(lp105
I-1
aNasI9
(lp106
I-1
aNasI10
(lp107
I-1
aNasI11
(lp108
I-1
aNassg21
V00:06 000ms
p109
sba(ieffectgroup
EffectGroup
p110
(dp111
g3
(dp112
I0
(lp113
I-1
aNasI1
(lp114
I-1
aNasI2
(lp115
I-1
aNasI3
(lp116
I-1
aNasI4
(lp117
I3
a(lp118
g7
(I255
I0
I0
I255
tp119
Rp120
aV1
p121
aV32
p122
aasI5
(lp123
I-1
aNasI6
(lp124
I-1
aNasI7
(lp125
I-1
aNasI8
(lp126
I-1
aNasI9
(lp127
I-1
aNasI10
(lp128
I-1
aNasI11
(lp129
I-1
aNassg21
V00:07 000ms
p130
sba(ieffectgroup
EffectGroup
p131
(dp132
g3
(dp133
I0
(lp134
I-1
aNasI1
(lp135
I-1
aNasI2
(lp136
I-1
aNasI3
(lp137
I-1
aNasI4
(lp138
I-1
aNasI5
(lp139
I3
a(lp140
g7
(I255
I0
I0
I255
tp141
Rp142
aV1
p143
aV64
p144
aasI6
(lp145
I-1
aNasI7
(lp146
I-1
aNasI8
(lp147
I-1
aNasI9
(lp148
I-1
aNasI10
(lp149
I-1
aNasI11
(lp150
I-1
aNassg21
V00:08 000ms
p151
sba(ieffectgroup
EffectGroup
p152
(dp153
g3
(dp154
I0
(lp155
I-1
aNasI1
(lp156
I-1
aNasI2
(lp157
I-1
aNasI3
(lp158
I-1
a(lp159
asI4
(lp160
I3
a(lp161
g7
(I0
I128
I128
I255
tp162
Rp163
aV1
p164
aV64
p165
aasI5
(lp166
I-1
a(lp167
asI6
(lp168
I-1
aNasI7
(lp169
I-1
aNasI8
(lp170
I-1
aNasI9
(lp171
I-1
aNasI10
(lp172
I-1
aNasI11
(lp173
I-1
aNassg21
V00:11 000ms
p174
sba(ieffectgroup
EffectGroup
p175
(dp176
g3
(dp177
I0
(lp178
I-1
aNasI1
(lp179
I-1
aNasI2
(lp180
I-1
aNasI3
(lp181
I-1
aNasI4
(lp182
I3
a(lp183
g7
(I0
I128
I128
I255
tp184
Rp185
aV2
p186
aV64
p187
aasI5
(lp188
I-1
a(lp189
asI6
(lp190
I-1
aNasI7
(lp191
I-1
aNasI8
(lp192
I-1
aNasI9
(lp193
I-1
aNasI10
(lp194
I-1
aNasI11
(lp195
I-1
aNassg21
V00:12 000ms
p196
sba(ieffectgroup
EffectGroup
p197
(dp198
g3
(dp199
I0
(lp200
I-1
aNasI1
(lp201
I-1
aNasI2
(lp202
I-1
aNasI3
(lp203
I-1
aNasI4
(lp204
I3
a(lp205
g7
(I0
I128
I128
I255
tp206
Rp207
aV4
p208
aV64
p209
aasI5
(lp210
I-1
a(lp211
asI6
(lp212
I-1
aNasI7
(lp213
I-1
aNasI8
(lp214
I-1
aNasI9
(lp215
I-1
aNasI10
(lp216
I-1
aNasI11
(lp217
I-1
aNassg21
V00:13 000ms
p218
sba(ieffectgroup
EffectGroup
p219
(dp220
g3
(dp221
I0
(lp222
I-1
aNasI1
(lp223
I-1
aNasI2
(lp224
I-1
aNasI3
(lp225
I-1
aNasI4
(lp226
I3
a(lp227
g7
(I0
I128
I128
I255
tp228
Rp229
aV8
p230
aV64
p231
aasI5
(lp232
I-1
a(lp233
asI6
(lp234
I-1
aNasI7
(lp235
I-1
aNasI8
(lp236
I-1
aNasI9
(lp237
I-1
aNasI10
(lp238
I-1
aNasI11
(lp239
I-1
aNassg21
V00:14 000ms
p240
sba(ieffectgroup
EffectGroup
p241
(dp242
g3
(dp243
I0
(lp244
I-1
aNasI1
(lp245
I-1
aNasI2
(lp246
I-1
aNasI3
(lp247
I-1
aNasI4
(lp248
I3
a(lp249
g7
(I0
I128
I128
I255
tp250
Rp251
aV16
p252
aV64
p253
aasI5
(lp254
I-1
a(lp255
asI6
(lp256
I-1
aNasI7
(lp257
I-1
aNasI8
(lp258
I-1
aNasI9
(lp259
I-1
aNasI10
(lp260
I-1
aNasI11
(lp261
I-1
aNassg21
V00:15 000ms
p262
sba(ieffectgroup
EffectGroup
p263
(dp264
g3
(dp265
I0
(lp266
I-1
aNasI1
(lp267
I-1
aNasI2
(lp268
I-1
aNasI3
(lp269
I-1
aNasI4
(lp270
I3
a(lp271
g7
(I0
I128
I128
I255
tp272
Rp273
aV32
p274
aV64
p275
aasI5
(lp276
I-1
a(lp277
asI6
(lp278
I-1
aNasI7
(lp279
I-1
aNasI8
(lp280
I-1
aNasI9
(lp281
I-1
aNasI10
(lp282
I-1
aNasI11
(lp283
I-1
aNassg21
V00:16 000ms
p284
sba(ieffectgroup
EffectGroup
p285
(dp286
g3
(dp287
I0
(lp288
I-1
aNasI1
(lp289
I-1
aNasI2
(lp290
I-1
aNasI3
(lp291
I-1
aNasI4
(lp292
I8
a(lp293
I2
ag7
(I0
I128
I128
I255
tp294
Rp295
aV6
p296
ag7
(I0
I0
I0
I255
tp297
Rp298
aV24
p299
aasI5
(lp300
I-1
a(lp301
asI6
(lp302
I-1
aNasI7
(lp303
I-1
aNasI8
(lp304
I-1
aNasI9
(lp305
I-1
aNasI10
(lp306
I-1
aNasI11
(lp307
I-1
aNassg21
V00:17 000ms
p308
sba(ieffectgroup
EffectGroup
p309
(dp310
g3
(dp311
I0
(lp312
I-1
aNasI1
(lp313
I-1
aNasI2
(lp314
I-1
aNasI3
(lp315
I-1
aNasI4
(lp316
I8
a(lp317
I2
ag7
(I0
I128
I128
I255
tp318
Rp319
aV3
p320
ag7
(I0
I0
I0
I255
tp321
Rp322
aV24
p323
aasI5
(lp324
I-1
a(lp325
asI6
(lp326
I-1
aNasI7
(lp327
I-1
aNasI8
(lp328
I-1
aNasI9
(lp329
I-1
aNasI10
(lp330
I-1
aNasI11
(lp331
I-1
aNassg21
V00:18 000ms
p332
sba(ieffectgroup
EffectGroup
p333
(dp334
g3
(dp335
I0
(lp336
I-1
aNasI1
(lp337
I-1
aNasI2
(lp338
I-1
aNasI3
(lp339
I-1
aNasI4
(lp340
I8
a(lp341
I2
ag7
(I0
I128
I128
I255
tp342
Rp343
aV1
p344
ag7
(I0
I0
I0
I255
tp345
Rp346
aV8
p347
aasI5
(lp348
I-1
a(lp349
asI6
(lp350
I-1
aNasI7
(lp351
I-1
aNasI8
(lp352
I-1
aNasI9
(lp353
I-1
aNasI10
(lp354
I-1
aNasI11
(lp355
I-1
aNassg21
V00:19 000ms
p356
sba(ieffectgroup
EffectGroup
p357
(dp358
g3
(dp359
I0
(lp360
I-1
aNasI1
(lp361
I-1
aNasI2
(lp362
I-1
aNasI3
(lp363
I-1
aNasI4
(lp364
I8
a(lp365
I2
ag7
(I0
I128
I128
I255
tp366
Rp367
aV1
p368
ag7
(I0
I0
I0
I255
tp369
Rp370
aV4
p371
aasI5
(lp372
I-1
a(lp373
asI6
(lp374
I-1
aNasI7
(lp375
I-1
aNasI8
(lp376
I-1
aNasI9
(lp377
I-1
aNasI10
(lp378
I-1
aNasI11
(lp379
I-1
aNassg21
V00:20 000ms
p380
sba(ieffectgroup
EffectGroup
p381
(dp382
g3
(dp383
I0
(lp384
I-1
aNasI1
(lp385
I-1
aNasI2
(lp386
I-1
aNasI3
(lp387
I-1
aNasI4
(lp388
I10
a(lp389
I4
ag7
(I0
I128
I128
I255
tp390
Rp391
aV1
p392
ag7
(I0
I0
I0
I255
tp393
Rp394
aV4
p395
ag7
(I100
I100
I100
I255
tp396
Rp397
aV1
p398
ag7
(I0
I0
I0
I255
tp399
Rp400
aV4
p401
aasI5
(lp402
I-1
aNasI6
(lp403
I-1
aNasI7
(lp404
I-1
aNasI8
(lp405
I-1
aNasI9
(lp406
I-1
aNasI10
(lp407
I-1
aNasI11
(lp408
I-1
aNassg21
V00:21 000ms
p409
sba(ieffectgroup
EffectGroup
p410
(dp411
g3
(dp412
I0
(lp413
I-1
aNasI1
(lp414
I-1
aNasI2
(lp415
I-1
aNasI3
(lp416
I-1
aNasI4
(lp417
I10
a(lp418
I4
ag7
(I0
I128
I128
I255
tp419
Rp420
aV1
p421
ag7
(I0
I0
I0
I255
tp422
Rp423
aV32
p424
ag7
(I100
I100
I100
I255
tp425
Rp426
aV1
p427
ag7
(I0
I0
I0
I255
tp428
Rp429
aV4
p430
aasI5
(lp431
I-1
aNasI6
(lp432
I-1
aNasI7
(lp433
I-1
aNasI8
(lp434
I-1
aNasI9
(lp435
I-1
aNasI10
(lp436
I-1
aNasI11
(lp437
I-1
aNassg21
V00:22 000ms
p438
sba(ieffectgroup
EffectGroup
p439
(dp440
g3
(dp441
I0
(lp442
I-1
aNasI1
(lp443
I-1
aNasI2
(lp444
I-1
aNasI3
(lp445
I-1
aNasI4
(lp446
I10
a(lp447
I4
ag7
(I0
I128
I128
I255
tp448
Rp449
aV16
p450
ag7
(I0
I0
I0
I255
tp451
Rp452
aV4
p453
ag7
(I96
I96
I96
I255
tp454
Rp455
aV1
p456
ag7
(I0
I0
I0
I255
tp457
Rp458
aV4
p459
aasI5
(lp460
I-1
aNasI6
(lp461
I-1
aNasI7
(lp462
I-1
aNasI8
(lp463
I-1
aNasI9
(lp464
I-1
aNasI10
(lp465
I-1
aNasI11
(lp466
I-1
aNassg21
V00:23 000ms
p467
sba(ieffectgroup
EffectGroup
p468
(dp469
g3
(dp470
I0
(lp471
I-1
aNasI1
(lp472
I-1
aNasI2
(lp473
I-1
aNasI3
(lp474
I-1
aNasI4
(lp475
I10
a(lp476
I4
ag7
(I0
I128
I128
I255
tp477
Rp478
aV1
p479
ag7
(I0
I0
I0
I255
tp480
Rp481
aV4
p482
ag7
(I96
I96
I96
I255
tp483
Rp484
aV1
p485
ag7
(I0
I0
I0
I255
tp486
Rp487
aV9
p488
aasI5
(lp489
I-1
aNasI6
(lp490
I-1
aNasI7
(lp491
I-1
aNasI8
(lp492
I-1
aNasI9
(lp493
I-1
aNasI10
(lp494
I-1
aNasI11
(lp495
I-1
aNassg21
V00:24 000ms
p496
sba(ieffectgroup
EffectGroup
p497
(dp498
g3
(dp499
I0
(lp500
I-1
aNasI1
(lp501
I-1
aNasI2
(lp502
I-1
aNasI3
(lp503
I-1
aNasI4
(lp504
I10
a(lp505
I4
ag7
(I0
I128
I128
I255
tp506
Rp507
aV1
p508
ag7
(I0
I0
I0
I255
tp509
Rp510
aV1
p511
ag7
(I96
I96
I96
I255
tp512
Rp513
aV1
p514
ag7
(I0
I0
I0
I255
tp515
Rp516
aV14
p517
aasI5
(lp518
I-1
aNasI6
(lp519
I-1
aNasI7
(lp520
I-1
aNasI8
(lp521
I-1
aNasI9
(lp522
I-1
aNasI10
(lp523
I-1
aNasI11
(lp524
I-1
aNassg21
V00:25 000ms
p525
sba(ieffectgroup
EffectGroup
p526
(dp527
g3
(dp528
I0
(lp529
I-1
aNasI1
(lp530
I-1
aNasI2
(lp531
I-1
aNasI3
(lp532
I-1
aNasI4
(lp533
I12
a(lp534
I8
ag7
(I0
I128
I128
I255
tp535
Rp536
aV1
p537
ag7
(I0
I0
I0
I255
tp538
Rp539
aV4
p540
ag7
(I96
I96
I96
I255
tp541
Rp542
aV1
p543
ag7
(I0
I0
I0
I255
tp544
Rp545
aV4
p546
ag7
(I128
I0
I64
I255
tp547
Rp548
aV1
p549
ag7
(I0
I0
I0
I255
tp550
Rp551
aV4
p552
ag7
(I0
I0
I0
I255
tp553
Rp554
aV1
p555
ag7
(I0
I0
I0
I255
tp556
Rp557
aV4
p558
aasI5
(lp559
I-1
aNasI6
(lp560
I-1
aNasI7
(lp561
I-1
aNasI8
(lp562
I-1
aNasI9
(lp563
I-1
aNasI10
(lp564
I-1
aNasI11
(lp565
I-1
aNassg21
V00:26 000ms
p566
sba(ieffectgroup
EffectGroup
p567
(dp568
g3
(dp569
I0
(lp570
I-1
aNasI1
(lp571
I-1
aNasI2
(lp572
I-1
aNasI3
(lp573
I-1
aNasI4
(lp574
I12
a(lp575
I8
ag7
(I0
I128
I128
I255
tp576
Rp577
aV1
p578
ag7
(I0
I0
I0
I255
tp579
Rp580
aV4
p581
ag7
(I96
I96
I96
I255
tp582
Rp583
aV1
p584
ag7
(I0
I0
I0
I255
tp585
Rp586
aV4
p587
ag7
(I128
I0
I64
I255
tp588
Rp589
aV1
p590
ag7
(I0
I0
I0
I255
tp591
Rp592
aV4
p593
ag7
(I0
I255
I0
I255
tp594
Rp595
aV1
p596
ag7
(I0
I0
I0
I255
tp597
Rp598
aV4
p599
aasI5
(lp600
I-1
aNasI6
(lp601
I-1
aNasI7
(lp602
I-1
aNasI8
(lp603
I-1
aNasI9
(lp604
I-1
aNasI10
(lp605
I-1
aNasI11
(lp606
I-1
aNassg21
V00:27 000ms
p607
sba(ieffectgroup
EffectGroup
p608
(dp609
g3
(dp610
I0
(lp611
I11
a(lp612
I6
ag7
(I0
I128
I128
I255
tp613
Rp614
aV1
p615
ag7
(I0
I0
I0
I255
tp616
Rp617
aV4
p618
ag7
(I192
I192
I192
I255
tp619
Rp620
aV1
p621
ag7
(I0
I0
I0
I255
tp622
Rp623
aV4
p624
ag7
(I0
I0
I255
I255
tp625
Rp626
aV1
p627
ag7
(I0
I0
I0
I255
tp628
Rp629
aV4
p630
aasI1
(lp631
I8
a(lp632
I2
ag7
(I0
I128
I128
I255
tp633
Rp634
aV1
p635
ag7
(I0
I0
I0
I255
tp636
Rp637
aV8
p638
aasI2
(lp639
I8
a(lp640
I2
ag7
(I0
I128
I128
I255
tp641
Rp642
aV4
p643
ag7
(I0
I0
I0
I255
tp644
Rp645
aV32
p646
aasI3
(lp647
I8
a(lp648
I2
ag7
(I0
I128
I128
I255
tp649
Rp650
aV1
p651
ag7
(I0
I0
I0
I255
tp652
Rp653
aV8
p654
aasI4
(lp655
I-1
a(lp656
asI5
(lp657
I10
a(lp658
I4
ag7
(I100
I100
I100
I255
tp659
Rp660
aV8
p661
ag7
(I0
I0
I0
I255
tp662
Rp663
aV32
p664
ag7
(I0
I0
I255
I255
tp665
Rp666
aV8
p667
ag7
(I0
I0
I0
I255
tp668
Rp669
aV32
p670
aasI6
(lp671
I10
a(lp672
I4
ag7
(I96
I96
I96
I255
tp673
Rp674
aV8
p675
ag7
(I0
I0
I0
I255
tp676
Rp677
aV32
p678
ag7
(I0
I0
I255
I255
tp679
Rp680
aV8
p681
ag7
(I0
I0
I0
I255
tp682
Rp683
aV32
p684
aasI7
(lp685
I-1
a(lp686
asI8
(lp687
I8
a(lp688
I2
ag7
(I0
I128
I128
I255
tp689
Rp690
aV1
p691
ag7
(I0
I0
I0
I255
tp692
Rp693
aV8
p694
aasI9
(lp695
I8
a(lp696
I2
ag7
(I0
I128
I128
I255
tp697
Rp698
aV4
p699
ag7
(I0
I0
I0
I255
tp700
Rp701
aV32
p702
aasI10
(lp703
I8
a(lp704
I2
ag7
(I0
I128
I128
I255
tp705
Rp706
aV1
p707
ag7
(I0
I0
I0
I255
tp708
Rp709
aV8
p710
aasI11
(lp711
I11
a(lp712
I6
ag7
(I0
I128
I128
I255
tp713
Rp714
aV1
p715
ag7
(I0
I0
I0
I255
tp716
Rp717
aV4
p718
ag7
(I192
I192
I192
I255
tp719
Rp720
aV1
p721
ag7
(I0
I0
I0
I255
tp722
Rp723
aV4
p724
ag7
(I0
I0
I255
I255
tp725
Rp726
aV1
p727
ag7
(I0
I0
I0
I255
tp728
Rp729
aV4
p730
aassg21
V00:28 000ms
p731
sba(ieffectgroup
EffectGroup
p732
(dp733
g3
(dp734
I0
(lp735
I-1
aNasI1
(lp736
I-1
aNasI2
(lp737
I-1
aNasI3
(lp738
I-1
aNasI4
(lp739
I5
a(lp740
g7
(I20
I20
I20
I255
tp741
Rp742
ag7
(I0
I0
I0
I255
tp743
Rp744
aV100
p745
aV1
p746
aV8
p747
aasI5
(lp748
I-1
aNasI6
(lp749
I-1
aNasI7
(lp750
I5
a(lp751
g7
(I0
I0
I0
I255
tp752
Rp753
ag7
(I20
I20
I20
I255
tp754
Rp755
aV100
p756
aV1
p757
aV8
p758
aasI8
(lp759
I-1
aNasI9
(lp760
I-1
aNasI10
(lp761
I-1
aNasI11
(lp762
I-1
aNassg21
V00:28 100ms
p763
sba(ieffectgroup
EffectGroup
p764
(dp765
g3
(dp766
I0
(lp767
I1
a(lp768
g7
(I0
I0
I0
I255
tp769
Rp770
aasI1
(lp771
I-1
aNasI2
(lp772
I-1
aNasI3
(lp773
I-1
aNasI4
(lp774
I-1
aNasI5
(lp775
I-1
aNasI6
(lp776
I-1
aNasI7
(lp777
I-1
aNasI8
(lp778
I-1
aNasI9
(lp779
I-1
aNasI10
(lp780
I-1
aNasI11
(lp781
I-1
aNassg21
V00:28 200ms
p782
sba(ieffectgroup
EffectGroup
p783
(dp784
g3
(dp785
I0
(lp786
I-1
aNasI1
(lp787
I-1
aNasI2
(lp788
I-1
aNasI3
(lp789
I-1
aNasI4
(lp790
I-1
aNasI5
(lp791
I10
a(lp792
I4
ag7
(I0
I128
I128
I255
tp793
Rp794
aV8
p795
ag7
(I0
I0
I0
I255
tp796
Rp797
aV32
p798
ag7
(I176
I176
I176
I255
tp799
Rp800
aV8
p801
ag7
(I0
I0
I0
I255
tp802
Rp803
aV32
p804
aasI6
(lp805
I10
a(lp806
I4
ag7
(I0
I128
I128
I255
tp807
Rp808
aV8
p809
ag7
(I0
I0
I0
I255
tp810
Rp811
aV32
p812
ag7
(I0
I0
I255
I255
tp813
Rp814
aV8
p815
ag7
(I0
I0
I0
I255
tp816
Rp817
aV32
p818
aasI7
(lp819
I-1
aNasI8
(lp820
I-1
aNasI9
(lp821
I-1
aNasI10
(lp822
I-1
aNasI11
(lp823
I-1
aNassg21
V00:28 400ms
p824
sba(ieffectgroup
EffectGroup
p825
(dp826
g3
(dp827
I0
(lp828
I-1
aNasI1
(lp829
I-1
aNasI2
(lp830
I-1
aNasI3
(lp831
I-1
aNasI4
(lp832
I3
a(lp833
g7
(I0
I0
I255
I255
tp834
Rp835
aV1
p836
aV8
p837
aasI5
(lp838
I-1
a(lp839
asI6
(lp840
I-1
aNasI7
(lp841
I1
a(lp842
g7
(I0
I128
I128
I255
tp843
Rp844
aasI8
(lp845
I-1
aNasI9
(lp846
I-1
aNasI10
(lp847
I-1
aNasI11
(lp848
I-1
aNassg21
V00:28 500ms
p849
sba(ieffectgroup
EffectGroup
p850
(dp851
g3
(dp852
I0
(lp853
I-1
aNasI1
(lp854
I-1
aNasI2
(lp855
I-1
aNasI3
(lp856
I-1
aNasI4
(lp857
I1
a(lp858
g7
(I0
I0
I255
I255
tp859
Rp860
aasI5
(lp861
I-1
aNasI6
(lp862
I-1
aNasI7
(lp863
I3
a(lp864
g7
(I0
I128
I128
I255
tp865
Rp866
aV1
p867
aV8
p868
aasI8
(lp869
I-1
aNasI9
(lp870
I-1
aNasI10
(lp871
I-1
aNasI11
(lp872
I-1
aNassg21
V00:28 600ms
p873
sba(ieffectgroup
EffectGroup
p874
(dp875
g3
(dp876
I0
(lp877
I-1
a(lp878
asI1
(lp879
I-1
aNasI2
(lp880
I-1
aNasI3
(lp881
I-1
aNasI4
(lp882
I5
a(lp883
g7
(I255
I255
I0
I255
tp884
Rp885
ag7
(I0
I255
I0
I255
tp886
Rp887
aV100
p888
aV5
p889
aV25
p890
aasI5
(lp891
I-1
aNasI6
(lp892
I-1
aNasI7
(lp893
I-1
aNasI8
(lp894
I-1
aNasI9
(lp895
I-1
aNasI10
(lp896
I-1
aNasI11
(lp897
I-1
aNassg21
V00:29 000ms
p898
sba(ieffectgroup
EffectGroup
p899
(dp900
g3
(dp901
I0
(lp902
I-1
a(lp903
asI1
(lp904
I-1
aNasI2
(lp905
I-1
aNasI3
(lp906
I-1
aNasI4
(lp907
I9
a(lp908
I3
ag7
(I0
I128
I128
I255
tp909
Rp910
aV2
p911
ag7
(I144
I144
I144
I255
tp912
Rp913
aV2
p914
ag7
(I0
I0
I0
I255
tp915
Rp916
aV16
p917
aasI5
(lp918
I-1
aNasI6
(lp919
I-1
aNasI7
(lp920
I-1
aNasI8
(lp921
I-1
aNasI9
(lp922
I-1
aNasI10
(lp923
I-1
aNasI11
(lp924
I-1
aNassg21
V00:30 000ms
p925
sba(ieffectgroup
EffectGroup
p926
(dp927
g3
(dp928
I0
(lp929
I-1
aNasI1
(lp930
I-1
aNasI2
(lp931
I-1
aNasI3
(lp932
I-1
aNasI4
(lp933
I11
a(lp934
I6
ag7
(I0
I128
I128
I255
tp935
Rp936
aV2
p937
ag7
(I160
I160
I160
I255
tp938
Rp939
aV2
p940
ag7
(I0
I0
I0
I255
tp941
Rp942
aV16
p943
ag7
(I0
I0
I255
I255
tp944
Rp945
aV2
p946
ag7
(I0
I36
I10
I255
tp947
Rp948
aV2
p949
ag7
(I0
I0
I0
I255
tp950
Rp951
aV16
p952
aasI5
(lp953
I-1
aNasI6
(lp954
I-1
aNasI7
(lp955
I-1
aNasI8
(lp956
I-1
aNasI9
(lp957
I-1
aNasI10
(lp958
I-1
aNasI11
(lp959
I-1
aNassg21
V00:31 000ms
p960
sba(ieffectgroup
EffectGroup
p961
(dp962
g3
(dp963
I0
(lp964
I-1
aNasI1
(lp965
I-1
aNasI2
(lp966
I-1
aNasI3
(lp967
I-1
aNasI4
(lp968
I8
a(lp969
I2
ag7
(I1
I0
I0
I255
tp970
Rp971
aV16
p972
ag7
(I0
I255
I0
I255
tp973
Rp974
aV2
p975
aasI5
(lp976
I-1
aNasI6
(lp977
I-1
aNasI7
(lp978
I-1
aNasI8
(lp979
I-1
aNasI9
(lp980
I-1
aNasI10
(lp981
I-1
aNasI11
(lp982
I-1
aNassg21
V00:32 000ms
p983
sba(ieffectgroup
EffectGroup
p984
(dp985
g3
(dp986
I0
(lp987
I-1
aNasI1
(lp988
I-1
aNasI2
(lp989
I-1
aNasI3
(lp990
I-1
aNasI4
(lp991
I12
a(lp992
I8
ag7
(I0
I0
I1
I255
tp993
Rp994
aV16
p995
ag7
(I160
I160
I160
I255
tp996
Rp997
aV2
p998
ag7
(I0
I0
I1
I255
tp999
Rp1000
aV16
p1001
ag7
(I128
I64
I64
I255
tp1002
Rp1003
aV2
p1004
ag7
(I0
I0
I1
I255
tp1005
Rp1006
aV16
p1007
ag7
(I255
I0
I0
I255
tp1008
Rp1009
aV2
p1010
ag7
(I0
I0
I1
I255
tp1011
Rp1012
aV16
p1013
ag7
(I119
I5
I122
I255
tp1014
Rp1015
aV2
p1016
aasI5
(lp1017
I-1
aNasI6
(lp1018
I-1
aNasI7
(lp1019
I-1
aNasI8
(lp1020
I-1
aNasI9
(lp1021
I-1
aNasI10
(lp1022
I-1
aNasI11
(lp1023
I-1
aNassg21
V00:33 000ms
p1024
sba(ieffectgroup
EffectGroup
p1025
(dp1026
g3
(dp1027
I0
(lp1028
I-1
aNasI1
(lp1029
I-1
aNasI2
(lp1030
I-1
aNasI3
(lp1031
I-1
aNasI4
(lp1032
I12
a(lp1033
I8
ag7
(I0
I0
I1
I255
tp1034
Rp1035
aV16
p1036
ag7
(I160
I160
I160
I255
tp1037
Rp1038
aV2
p1039
ag7
(I1
I0
I0
I255
tp1040
Rp1041
aV16
p1042
ag7
(I128
I64
I64
I255
tp1043
Rp1044
aV2
p1045
ag7
(I0
I1
I0
I255
tp1046
Rp1047
aV16
p1048
ag7
(I255
I0
I0
I255
tp1049
Rp1050
aV1
p1051
ag7
(I2
I1
I1
I255
tp1052
Rp1053
aV16
p1054
ag7
(I120
I5
I120
I255
tp1055
Rp1056
aV1
p1057
aasI5
(lp1058
I-1
aNasI6
(lp1059
I-1
aNasI7
(lp1060
I-1
aNasI8
(lp1061
I-1
aNasI9
(lp1062
I-1
aNasI10
(lp1063
I-1
aNasI11
(lp1064
I-1
aNassg21
V00:34 000ms
p1065
sba.