(lp0
(ieffectgroup
EffectGroup
p1
(dp2
S'm_effects'
p3
(dp4
I0
(lp5
I1
a(lp6
cwx._gdi
Colour
p7
(I22
I73
I248
I255
tp8
Rp9
aasI1
(lp10
I-1
aNasI2
(lp11
I-1
aNasI3
(lp12
I-1
aNasI4
(lp13
I16
a(lp14
I16
ag7
(I2
I0
I0
I255
tp15
Rp16
aV1
p17
ag7
(I0
I0
I0
I255
tp18
Rp19
aV2
p20
ag7
(I2
I0
I0
I255
tp21
Rp22
aV1
p23
ag7
(I0
I0
I0
I255
tp24
Rp25
aV2
p26
ag7
(I2
I0
I0
I255
tp27
Rp28
aV1
p29
ag7
(I0
I0
I0
I255
tp30
Rp31
aV2
p32
ag7
(I2
I0
I0
I255
tp33
Rp34
aV1
p35
ag7
(I0
I0
I0
I255
tp36
Rp37
aV2
p38
ag7
(I2
I0
I0
I255
tp39
Rp40
aV1
p41
ag7
(I0
I0
I0
I255
tp42
Rp43
aV2
p44
ag7
(I2
I0
I0
I255
tp45
Rp46
aV1
p47
ag7
(I0
I0
I0
I255
tp48
Rp49
aV2
p50
ag7
(I10
I0
I0
I255
tp51
Rp52
aV1
p53
ag7
(I0
I0
I0
I255
tp54
Rp55
aV2
p56
ag7
(I2
I0
I0
I255
tp57
Rp58
aV1
p59
ag7
(I0
I0
I0
I255
tp60
Rp61
aV2
p62
aasI5
(lp63
I5
a(lp64
g7
(I0
I0
I0
I255
tp65
Rp66
ag7
(I30
I0
I0
I255
tp67
Rp68
aV200
p69
aV1
p70
aV1
p71
aasI6
(lp72
I-1
aNasI7
(lp73
I-1
aNasI8
(lp74
I-1
aNasI9
(lp75
I-1
aNassS'm_time'
p76
V00:00 000ms
p77
sba.