(lp0
(ieffectgroup
EffectGroup
p1
(dp2
S'm_effects'
p3
(dp4
I0
(lp5
I1
a(lp6
cwx._gdi
Colour
p7
(I255
I0
I0
I255
tp8
Rp9
aasI1
(lp10
I1
a(lp11
g7
(I0
I255
I0
I255
tp12
Rp13
aasI2
(lp14
I1
a(lp15
g7
(I0
I0
I255
I255
tp16
Rp17
aasI3
(lp18
I1
a(lp19
g7
(I255
I0
I255
I255
tp20
Rp21
aasI4
(lp22
I1
a(lp23
g7
(I255
I255
I255
I255
tp24
Rp25
aasI5
(lp26
I8
a(lp27
I2
ag7
(I255
I255
I255
I255
tp28
Rp29
aV1
p30
ag7
(I0
I0
I0
I255
tp31
Rp32
aV20
p33
aasI6
(lp34
I8
a(lp35
I2
ag7
(I255
I255
I255
I255
tp36
Rp37
aV1
p38
ag7
(I0
I0
I0
I255
tp39
Rp40
aV20
p41
aasI7
(lp42
I1
a(lp43
g7
(I255
I255
I255
I255
tp44
Rp45
aasI8
(lp46
I1
a(lp47
g7
(I255
I0
I255
I255
tp48
Rp49
aasI9
(lp50
I1
a(lp51
g7
(I0
I0
I255
I255
tp52
Rp53
aasI10
(lp54
I1
a(lp55
g7
(I0
I255
I0
I255
tp56
Rp57
aasI11
(lp58
I1
a(lp59
g7
(I255
I0
I0
I255
tp60
Rp61
aassS'm_time'
p62
V00:01 100ms
p63
sba.