(lp0
(ieffectgroup
EffectGroup
p1
(dp2
S'm_effects'
p3
(dp4
I0
(lp5
I11
a(lp6
I6
acwx._gdi
Colour
p7
(I0
I0
I120
I255
tp8
Rp9
aV1
p10
ag7
(I0
I0
I0
I255
tp11
Rp12
aV1
p13
ag7
(I90
I90
I90
I255
tp14
Rp15
aV1
p16
ag7
(I0
I0
I0
I255
tp17
Rp18
aV1
p19
ag7
(I0
I120
I30
I255
tp20
Rp21
aV1
p22
ag7
(I0
I0
I0
I255
tp23
Rp24
aV1
p25
aasI1
(lp26
I10
a(lp27
I4
ag7
(I0
I120
I120
I255
tp28
Rp29
aV1
p30
ag7
(I0
I0
I0
I255
tp31
Rp32
aV1
p33
ag7
(I0
I120
I120
I255
tp34
Rp35
aV1
p36
ag7
(I0
I0
I0
I255
tp37
Rp38
aV5
p39
aasI2
(lp40
I10
a(lp41
I4
ag7
(I0
I120
I120
I255
tp42
Rp43
aV1
p44
ag7
(I0
I0
I0
I255
tp45
Rp46
aV1
p47
ag7
(I0
I120
I120
I255
tp48
Rp49
aV1
p50
ag7
(I0
I0
I0
I255
tp51
Rp52
aV5
p53
aasI3
(lp54
I10
a(lp55
I4
ag7
(I0
I120
I120
I255
tp56
Rp57
aV1
p58
ag7
(I0
I0
I0
I255
tp59
Rp60
aV1
p61
ag7
(I0
I120
I120
I255
tp62
Rp63
aV1
p64
ag7
(I0
I0
I0
I255
tp65
Rp66
aV5
p67
aasI4
(lp68
I11
a(lp69
I6
ag7
(I0
I0
I120
I255
tp70
Rp71
aV1
p72
ag7
(I0
I0
I0
I255
tp73
Rp74
aV1
p75
ag7
(I90
I90
I90
I255
tp76
Rp77
aV1
p78
ag7
(I0
I0
I0
I255
tp79
Rp80
aV1
p81
ag7
(I0
I120
I60
I255
tp82
Rp83
aV1
p84
ag7
(I0
I0
I0
I255
tp85
Rp86
aV1
p87
aasI5
(lp88
I11
a(lp89
I6
ag7
(I0
I0
I120
I255
tp90
Rp91
aV1
p92
ag7
(I0
I0
I0
I255
tp93
Rp94
aV1
p95
ag7
(I90
I90
I90
I255
tp96
Rp97
aV1
p98
ag7
(I0
I0
I0
I255
tp99
Rp100
aV1
p101
ag7
(I0
I120
I60
I255
tp102
Rp103
aV1
p104
ag7
(I0
I0
I0
I255
tp105
Rp106
aV1
p107
aasI6
(lp108
I10
a(lp109
I4
ag7
(I0
I120
I120
I255
tp110
Rp111
aV1
p112
ag7
(I0
I0
I0
I255
tp113
Rp114
aV1
p115
ag7
(I0
I120
I120
I255
tp116
Rp117
aV1
p118
ag7
(I0
I0
I0
I255
tp119
Rp120
aV5
p121
aasI7
(lp122
I10
a(lp123
I4
ag7
(I0
I120
I120
I255
tp124
Rp125
aV1
p126
ag7
(I0
I0
I0
I255
tp127
Rp128
aV1
p129
ag7
(I0
I120
I120
I255
tp130
Rp131
aV1
p132
ag7
(I0
I0
I0
I255
tp133
Rp134
aV5
p135
aasI8
(lp136
I10
a(lp137
I4
ag7
(I0
I120
I120
I255
tp138
Rp139
aV1
p140
ag7
(I0
I0
I0
I255
tp141
Rp142
aV1
p143
ag7
(I0
I120
I120
I255
tp144
Rp145
aV1
p146
ag7
(I0
I0
I0
I255
tp147
Rp148
aV5
p149
aasI9
(lp150
I11
a(lp151
I6
ag7
(I0
I0
I120
I255
tp152
Rp153
aV1
p154
ag7
(I0
I0
I0
I255
tp155
Rp156
aV1
p157
ag7
(I90
I90
I90
I255
tp158
Rp159
aV1
p160
ag7
(I0
I0
I0
I255
tp161
Rp162
aV1
p163
ag7
(I0
I120
I30
I255
tp164
Rp165
aV1
p166
ag7
(I0
I0
I0
I255
tp167
Rp168
aV1
p169
aassS'm_time'
p170
V00:00 000ms
p171
sba.