(lp0
(ieffectgroup
EffectGroup
p1
(dp2
S'm_effects'
p3
(dp4
I0
(lp5
I8
a(lp6
I2
acwx._gdi
Colour
p7
(I128
I255
I0
I255
tp8
Rp9
aV1
p10
ag7
(I0
I0
I0
I255
tp11
Rp12
aV4
p13
aasI1
(lp14
I8
a(lp15
I2
ag7
(I128
I255
I0
I255
tp16
Rp17
aV1
p18
ag7
(I0
I0
I0
I255
tp19
Rp20
aV4
p21
aasI2
(lp22
I8
a(lp23
I2
ag7
(I128
I255
I0
I255
tp24
Rp25
aV1
p26
ag7
(I0
I0
I0
I255
tp27
Rp28
aV1
p29
aasI3
(lp30
I8
a(lp31
I2
ag7
(I128
I255
I0
I255
tp32
Rp33
aV1
p34
ag7
(I0
I0
I0
I255
tp35
Rp36
aV1
p37
aasI4
(lp38
I12
a(lp39
I8
ag7
(I0
I255
I0
I255
tp40
Rp41
aV2
p42
ag7
(I0
I0
I0
I255
tp43
Rp44
aV8
p45
ag7
(I128
I255
I255
I255
tp46
Rp47
aV2
p48
ag7
(I0
I0
I0
I255
tp49
Rp50
aV8
p51
ag7
(I255
I0
I255
I255
tp52
Rp53
aV2
p54
ag7
(I0
I0
I0
I255
tp55
Rp56
aV8
p57
ag7
(I255
I128
I0
I255
tp58
Rp59
aV2
p60
ag7
(I0
I0
I0
I255
tp61
Rp62
aV8
p63
aasI5
(lp64
I12
a(lp65
I8
ag7
(I0
I255
I0
I255
tp66
Rp67
aV2
p68
ag7
(I0
I0
I0
I255
tp69
Rp70
aV8
p71
ag7
(I128
I255
I255
I255
tp72
Rp73
aV2
p74
ag7
(I0
I0
I0
I255
tp75
Rp76
aV8
p77
ag7
(I255
I0
I255
I255
tp78
Rp79
aV2
p80
ag7
(I0
I0
I0
I255
tp81
Rp82
aV8
p83
ag7
(I255
I128
I0
I255
tp84
Rp85
aV2
p86
ag7
(I0
I0
I0
I255
tp87
Rp88
aV8
p89
aasI6
(lp90
I12
a(lp91
I8
ag7
(I0
I255
I0
I255
tp92
Rp93
aV2
p94
ag7
(I0
I0
I0
I255
tp95
Rp96
aV8
p97
ag7
(I128
I255
I255
I255
tp98
Rp99
aV2
p100
ag7
(I0
I0
I0
I255
tp101
Rp102
aV8
p103
ag7
(I255
I0
I255
I255
tp104
Rp105
aV2
p106
ag7
(I0
I0
I0
I255
tp107
Rp108
aV8
p109
ag7
(I255
I128
I0
I255
tp110
Rp111
aV2
p112
ag7
(I0
I0
I0
I255
tp113
Rp114
aV8
p115
aasI7
(lp116
I12
a(lp117
I8
ag7
(I128
I255
I0
I255
tp118
Rp119
aV2
p120
ag7
(I0
I0
I0
I255
tp121
Rp122
aV8
p123
ag7
(I128
I255
I255
I255
tp124
Rp125
aV2
p126
ag7
(I0
I0
I0
I255
tp127
Rp128
aV8
p129
ag7
(I255
I0
I255
I255
tp130
Rp131
aV2
p132
ag7
(I0
I0
I0
I255
tp133
Rp134
aV8
p135
ag7
(I255
I128
I0
I255
tp136
Rp137
aV2
p138
ag7
(I0
I0
I0
I255
tp139
Rp140
aV8
p141
aasI8
(lp142
I8
a(lp143
I2
ag7
(I128
I255
I0
I255
tp144
Rp145
aV1
p146
ag7
(I0
I0
I0
I255
tp147
Rp148
aV4
p149
aasI9
(lp150
I8
a(lp151
I2
ag7
(I128
I255
I0
I255
tp152
Rp153
aV1
p154
ag7
(I0
I0
I0
I255
tp155
Rp156
aV4
p157
aasI10
(lp158
I8
a(lp159
I2
ag7
(I128
I255
I0
I255
tp160
Rp161
aV1
p162
ag7
(I0
I0
I0
I255
tp163
Rp164
aV4
p165
aasI11
(lp166
I8
a(lp167
I2
ag7
(I128
I255
I0
I255
tp168
Rp169
aV1
p170
ag7
(I0
I0
I0
I255
tp171
Rp172
aV4
p173
aassS'm_time'
p174
V00:10 100ms
p175
sba(ieffectgroup
EffectGroup
p176
(dp177
g3
(dp178
I0
(lp179
I-1
aNasI1
(lp180
I-1
aNasI2
(lp181
I8
a(lp182
I2
ag7
(I0
I255
I0
I255
tp183
Rp184
aV1
p185
ag7
(I0
I0
I0
I255
tp186
Rp187
aV12
p188
aasI3
(lp189
I8
a(lp190
I2
ag7
(I255
I0
I0
I255
tp191
Rp192
aV1
p193
ag7
(I0
I0
I0
I255
tp194
Rp195
aV12
p196
aasI4
(lp197
I-1
a(lp198
asI5
(lp199
I8
a(lp200
I2
ag7
(I0
I0
I255
I255
tp201
Rp202
aV1
p203
ag7
(I0
I0
I0
I255
tp204
Rp205
aV12
p206
aasI6
(lp207
I-1
a(lp208
asI7
(lp209
I8
a(lp210
I2
ag7
(I0
I0
I255
I255
tp211
Rp212
aV1
p213
ag7
(I0
I0
I0
I255
tp214
Rp215
aV12
p216
aasI8
(lp217
I8
a(lp218
I2
ag7
(I255
I0
I0
I255
tp219
Rp220
aV1
p221
ag7
(I0
I0
I0
I255
tp222
Rp223
aV12
p224
aasI9
(lp225
I8
a(lp226
I2
ag7
(I0
I255
I0
I255
tp227
Rp228
aV1
p229
ag7
(I0
I0
I0
I255
tp230
Rp231
aV12
p232
aasI10
(lp233
I-1
aNasI11
(lp234
I-1
aNassg174
V00:10 200ms
p235
sba(ieffectgroup
EffectGroup
p236
(dp237
g3
(dp238
I0
(lp239
I-1
aNasI1
(lp240
I-1
aNasI2
(lp241
I-1
aNasI3
(lp242
I-1
aNasI4
(lp243
I9
a(lp244
I3
ag7
(I255
I0
I0
I255
tp245
Rp246
aV12
p247
ag7
(I255
I255
I128
I255
tp248
Rp249
aV12
p250
ag7
(I255
I0
I255
I255
tp251
Rp252
aV12
p253
aasI5
(lp254
I9
a(lp255
I3
ag7
(I255
I0
I0
I255
tp256
Rp257
aV12
p258
ag7
(I255
I255
I128
I255
tp259
Rp260
aV12
p261
ag7
(I255
I0
I255
I255
tp262
Rp263
aV12
p264
aasI6
(lp265
I9
a(lp266
I3
ag7
(I255
I0
I0
I255
tp267
Rp268
aV12
p269
ag7
(I255
I255
I128
I255
tp270
Rp271
aV12
p272
ag7
(I255
I0
I255
I255
tp273
Rp274
aV12
p275
aasI7
(lp276
I9
a(lp277
I3
ag7
(I255
I0
I0
I255
tp278
Rp279
aV12
p280
ag7
(I255
I255
I128
I255
tp281
Rp282
aV12
p283
ag7
(I255
I0
I255
I255
tp284
Rp285
aV12
p286
aasI8
(lp287
I-1
a(lp288
asI9
(lp289
I-1
aNasI10
(lp290
I-1
aNasI11
(lp291
I-1
aNassg174
V00:10 300ms
p292
sba(ieffectgroup
EffectGroup
p293
(dp294
g3
(dp295
I0
(lp296
I-1
aNasI1
(lp297
I-1
aNasI2
(lp298
I8
a(lp299
I2
ag7
(I255
I0
I0
I255
tp300
Rp301
aV1
p302
ag7
(I0
I0
I0
I255
tp303
Rp304
aV2
p305
aasI3
(lp306
I8
a(lp307
I2
ag7
(I255
I128
I0
I255
tp308
Rp309
aV1
p310
ag7
(I0
I0
I0
I255
tp311
Rp312
aV2
p313
aasI4
(lp314
I-1
aNasI5
(lp315
I8
a(lp316
I2
ag7
(I255
I255
I255
I255
tp317
Rp318
aV1
p319
ag7
(I0
I0
I0
I255
tp320
Rp321
aV4
p322
aasI6
(lp323
I-1
aNasI7
(lp324
I8
a(lp325
I2
ag7
(I255
I255
I255
I255
tp326
Rp327
aV1
p328
ag7
(I0
I0
I0
I255
tp329
Rp330
aV4
p331
aasI8
(lp332
I8
a(lp333
I2
ag7
(I255
I128
I0
I255
tp334
Rp335
aV1
p336
ag7
(I0
I0
I0
I255
tp337
Rp338
aV2
p339
aasI9
(lp340
I8
a(lp341
I2
ag7
(I255
I0
I0
I255
tp342
Rp343
aV1
p344
ag7
(I0
I0
I0
I255
tp345
Rp346
aV2
p347
aasI10
(lp348
I-1
aNasI11
(lp349
I-1
aNassg174
V00:10 400ms
p350
sba(ieffectgroup
EffectGroup
p351
(dp352
g3
(dp353
I0
(lp354
I-1
aNasI1
(lp355
I-1
aNasI2
(lp356
I-1
aNasI3
(lp357
I-1
aNasI4
(lp358
I-1
aNasI5
(lp359
I-1
aNasI6
(lp360
I-1
aNasI7
(lp361
I8
a(lp362
I2
ag7
(I255
I255
I255
I255
tp363
Rp364
aV1
p365
ag7
(I0
I0
I0
I255
tp366
Rp367
aV4
p368
aasI8
(lp369
I8
a(lp370
I2
ag7
(I255
I128
I0
I255
tp371
Rp372
aV1
p373
ag7
(I0
I0
I0
I255
tp374
Rp375
aV2
p376
aasI9
(lp377
I8
a(lp378
I2
ag7
(I255
I0
I0
I255
tp379
Rp380
aV1
p381
ag7
(I0
I0
I0
I255
tp382
Rp383
aV2
p384
aasI10
(lp385
I-1
aNasI11
(lp386
I-1
aNassg174
V00:10 500ms
p387
sba(ieffectgroup
EffectGroup
p388
(dp389
g3
(dp390
I0
(lp391
I11
a(lp392
I6
ag7
(I255
I0
I0
I255
tp393
Rp394
aV1
p395
ag7
(I0
I0
I0
I255
tp396
Rp397
aV1
p398
ag7
(I255
I0
I255
I255
tp399
Rp400
aV1
p401
ag7
(I0
I0
I0
I255
tp402
Rp403
aV1
p404
ag7
(I255
I0
I0
I255
tp405
Rp406
aV4
p407
ag7
(I0
I0
I0
I255
tp408
Rp409
aV1
p410
aasI1
(lp411
I11
a(lp412
I6
ag7
(I255
I0
I0
I255
tp413
Rp414
aV1
p415
ag7
(I0
I0
I0
I255
tp416
Rp417
aV1
p418
ag7
(I255
I0
I255
I255
tp419
Rp420
aV1
p421
ag7
(I0
I0
I0
I255
tp422
Rp423
aV1
p424
ag7
(I255
I0
I0
I255
tp425
Rp426
aV4
p427
ag7
(I0
I0
I0
I255
tp428
Rp429
aV1
p430
aasI2
(lp431
I11
a(lp432
I6
ag7
(I255
I0
I0
I255
tp433
Rp434
aV1
p435
ag7
(I0
I0
I0
I255
tp436
Rp437
aV1
p438
ag7
(I255
I0
I255
I255
tp439
Rp440
aV4
p441
ag7
(I0
I0
I0
I255
tp442
Rp443
aV1
p444
ag7
(I0
I0
I255
I255
tp445
Rp446
aV1
p447
ag7
(I0
I0
I0
I255
tp448
Rp449
aV1
p450
aasI3
(lp451
I11
a(lp452
I6
ag7
(I255
I0
I0
I255
tp453
Rp454
aV1
p455
ag7
(I0
I0
I0
I255
tp456
Rp457
aV1
p458
ag7
(I255
I0
I255
I255
tp459
Rp460
aV4
p461
ag7
(I0
I0
I0
I255
tp462
Rp463
aV1
p464
ag7
(I0
I0
I255
I255
tp465
Rp466
aV1
p467
ag7
(I0
I0
I0
I255
tp468
Rp469
aV1
p470
aasI4
(lp471
I8
a(lp472
I2
ag7
(I255
I0
I0
I255
tp473
Rp474
aV24
p475
ag7
(I0
I0
I255
I255
tp476
Rp477
aV24
p478
aasI5
(lp479
I-1
aNasI6
(lp480
I-1
aNasI7
(lp481
I8
a(lp482
I2
ag7
(I255
I255
I255
I255
tp483
Rp484
aV1
p485
ag7
(I0
I0
I0
I255
tp486
Rp487
aV4
p488
aasI8
(lp489
I8
a(lp490
I2
ag7
(I255
I128
I0
I255
tp491
Rp492
aV1
p493
ag7
(I0
I0
I0
I255
tp494
Rp495
aV2
p496
aasI9
(lp497
I8
a(lp498
I2
ag7
(I255
I0
I0
I255
tp499
Rp500
aV1
p501
ag7
(I0
I0
I0
I255
tp502
Rp503
aV2
p504
aasI10
(lp505
I-1
aNasI11
(lp506
I-1
aNassg174
V00:10 600ms
p507
sba(ieffectgroup
EffectGroup
p508
(dp509
g3
(dp510
I0
(lp511
I11
a(lp512
I6
ag7
(I255
I0
I0
I255
tp513
Rp514
aV1
p515
ag7
(I0
I0
I0
I255
tp516
Rp517
aV1
p518
ag7
(I255
I0
I255
I255
tp519
Rp520
aV1
p521
ag7
(I0
I0
I0
I255
tp522
Rp523
aV1
p524
ag7
(I255
I0
I0
I255
tp525
Rp526
aV4
p527
ag7
(I0
I0
I0
I255
tp528
Rp529
aV1
p530
aasI1
(lp531
I11
a(lp532
I6
ag7
(I255
I0
I0
I255
tp533
Rp534
aV1
p535
ag7
(I0
I0
I0
I255
tp536
Rp537
aV1
p538
ag7
(I255
I0
I255
I255
tp539
Rp540
aV1
p541
ag7
(I0
I0
I0
I255
tp542
Rp543
aV1
p544
ag7
(I255
I0
I0
I255
tp545
Rp546
aV4
p547
ag7
(I0
I0
I0
I255
tp548
Rp549
aV1
p550
aasI2
(lp551
I11
a(lp552
I6
ag7
(I255
I0
I0
I255
tp553
Rp554
aV1
p555
ag7
(I0
I0
I0
I255
tp556
Rp557
aV1
p558
ag7
(I255
I0
I255
I255
tp559
Rp560
aV4
p561
ag7
(I0
I0
I0
I255
tp562
Rp563
aV1
p564
ag7
(I0
I0
I255
I255
tp565
Rp566
aV1
p567
ag7
(I0
I0
I0
I255
tp568
Rp569
aV1
p570
aasI3
(lp571
I11
a(lp572
I6
ag7
(I255
I0
I0
I255
tp573
Rp574
aV1
p575
ag7
(I0
I0
I0
I255
tp576
Rp577
aV1
p578
ag7
(I255
I0
I255
I255
tp579
Rp580
aV4
p581
ag7
(I0
I0
I0
I255
tp582
Rp583
aV1
p584
ag7
(I0
I0
I255
I255
tp585
Rp586
aV1
p587
ag7
(I0
I0
I0
I255
tp588
Rp589
aV1
p590
aasI4
(lp591
I8
a(lp592
I2
ag7
(I255
I0
I0
I255
tp593
Rp594
aV24
p595
ag7
(I0
I0
I255
I255
tp596
Rp597
aV24
p598
aasI5
(lp599
I-1
aNasI6
(lp600
I8
a(lp601
I2
ag7
(I0
I0
I255
I255
tp602
Rp603
aV24
p604
ag7
(I255
I0
I0
I255
tp605
Rp606
aV24
p607
aasI7
(lp608
I-1
aNasI8
(lp609
I11
a(lp610
I6
ag7
(I255
I0
I0
I255
tp611
Rp612
aV1
p613
ag7
(I0
I0
I0
I255
tp614
Rp615
aV1
p616
ag7
(I255
I0
I255
I255
tp617
Rp618
aV4
p619
ag7
(I0
I0
I0
I255
tp620
Rp621
aV1
p622
ag7
(I0
I0
I255
I255
tp623
Rp624
aV1
p625
ag7
(I0
I0
I0
I255
tp626
Rp627
aV1
p628
aasI9
(lp629
I11
a(lp630
I6
ag7
(I255
I0
I0
I255
tp631
Rp632
aV1
p633
ag7
(I0
I0
I0
I255
tp634
Rp635
aV1
p636
ag7
(I255
I0
I255
I255
tp637
Rp638
aV4
p639
ag7
(I0
I0
I0
I255
tp640
Rp641
aV1
p642
ag7
(I0
I0
I255
I255
tp643
Rp644
aV1
p645
ag7
(I0
I0
I0
I255
tp646
Rp647
aV1
p648
aasI10
(lp649
I11
a(lp650
I6
ag7
(I255
I0
I0
I255
tp651
Rp652
aV1
p653
ag7
(I0
I0
I0
I255
tp654
Rp655
aV1
p656
ag7
(I255
I0
I255
I255
tp657
Rp658
aV1
p659
ag7
(I0
I0
I0
I255
tp660
Rp661
aV1
p662
ag7
(I255
I0
I0
I255
tp663
Rp664
aV4
p665
ag7
(I0
I0
I0
I255
tp666
Rp667
aV1
p668
aasI11
(lp669
I11
a(lp670
I6
ag7
(I255
I0
I0
I255
tp671
Rp672
aV1
p673
ag7
(I0
I0
I0
I255
tp674
Rp675
aV1
p676
ag7
(I255
I0
I255
I255
tp677
Rp678
aV1
p679
ag7
(I0
I0
I0
I255
tp680
Rp681
aV1
p682
ag7
(I255
I0
I0
I255
tp683
Rp684
aV4
p685
ag7
(I0
I0
I0
I255
tp686
Rp687
aV1
p688
aassg174
V00:10 700ms
p689
sba(ieffectgroup
EffectGroup
p690
(dp691
g3
(dp692
I0
(lp693
I10
a(lp694
I4
ag7
(I0
I255
I0
I255
tp695
Rp696
aV1
p697
ag7
(I0
I0
I0
I255
tp698
Rp699
aV1
p700
ag7
(I128
I255
I0
I255
tp701
Rp702
aV1
p703
ag7
(I0
I0
I0
I255
tp704
Rp705
aV1
p706
aasI1
(lp707
I10
a(lp708
I4
ag7
(I0
I255
I0
I255
tp709
Rp710
aV1
p711
ag7
(I0
I0
I0
I255
tp712
Rp713
aV1
p714
ag7
(I128
I255
I0
I255
tp715
Rp716
aV1
p717
ag7
(I0
I0
I0
I255
tp718
Rp719
aV1
p720
aasI2
(lp721
I10
a(lp722
I4
ag7
(I0
I255
I0
I255
tp723
Rp724
aV1
p725
ag7
(I0
I0
I0
I255
tp726
Rp727
aV1
p728
ag7
(I255
I255
I255
I255
tp729
Rp730
aV1
p731
ag7
(I0
I0
I0
I255
tp732
Rp733
aV1
p734
aasI3
(lp735
I10
a(lp736
I4
ag7
(I0
I255
I0
I255
tp737
Rp738
aV1
p739
ag7
(I0
I0
I0
I255
tp740
Rp741
aV1
p742
ag7
(I255
I255
I255
I255
tp743
Rp744
aV1
p745
ag7
(I0
I0
I0
I255
tp746
Rp747
aV1
p748
aasI4
(lp749
I-1
aNasI5
(lp750
I-1
aNasI6
(lp751
I-1
aNasI7
(lp752
I-1
aNasI8
(lp753
I-1
aNasI9
(lp754
I-1
aNasI10
(lp755
I-1
aNasI11
(lp756
I-1
aNassg174
V00:10 800ms
p757
sba.