(lp0
(ieffectgroup
EffectGroup
p1
(dp2
S'm_effects'
p3
(dp4
I0
(lp5
I8
a(lp6
I2
acwx._gdi
Colour
p7
(I255
I0
I0
I255
tp8
Rp9
ag7
(I0
I0
I255
I255
tp10
Rp11
aV100
p12
aasI1
(lp13
I-1
aNasI2
(lp14
I-1
aNasI3
(lp15
I-1
aNasI4
(lp16
I-1
aNasI5
(lp17
I-1
aNasI6
(lp18
I-1
aNasI7
(lp19
I-1
aNasI8
(lp20
I-1
aNasI9
(lp21
I-1
aNassS'm_time'
p22
V00:00 000ms
p23
sba.