(lp0
(ieffectgroup
EffectGroup
p1
(dp2
S'm_effects'
p3
(dp4
I0
(lp5
I-1
aNasI1
(lp6
I-1
aNasI2
(lp7
I-1
aNasI3
(lp8
I-1
aNasI4
(lp9
I-1
aNasI5
(lp10
I-1
aNasI6
(lp11
I-1
aNasI7
(lp12
I-1
aNasI8
(lp13
I-1
aNasI9
(lp14
I15
a(lp15
I14
acwx._gdi
Colour
p16
(I255
I255
I0
I255
tp17
Rp18
aV1
p19
ag16
(I0
I0
I0
I255
tp20
Rp21
aV1
p22
ag16
(I255
I0
I0
I255
tp23
Rp24
aV1
p25
ag16
(I0
I0
I0
I255
tp26
Rp27
aV1
p28
ag16
(I255
I120
I0
I255
tp29
Rp30
aV1
p31
ag16
(I0
I0
I0
I255
tp32
Rp33
aV1
p34
ag16
(I255
I120
I0
I255
tp35
Rp36
aV1
p37
ag16
(I0
I0
I0
I255
tp38
Rp39
aV1
p40
ag16
(I62
I62
I62
I255
tp41
Rp42
aV1
p43
ag16
(I0
I0
I0
I255
tp44
Rp45
aV1
p46
ag16
(I0
I0
I0
I255
tp47
Rp48
aV1
p49
ag16
(I0
I0
I0
I255
tp50
Rp51
aV1
p52
ag16
(I0
I0
I0
I255
tp53
Rp54
aV1
p55
ag16
(I0
I0
I0
I255
tp56
Rp57
aV1
p58
aassS'm_time'
p59
V00:00 000ms
p60
sba.