(lp0
(ieffectgroup
EffectGroup
p1
(dp2
S'm_effects'
p3
(dp4
I0
(lp5
I-1
aNasI1
(lp6
I-1
aNasI2
(lp7
I-1
aNasI3
(lp8
I-1
aNasI4
(lp9
I8
a(lp10
I2
acwx._gdi
Colour
p11
(I128
I0
I64
I255
tp12
Rp13
aV2
p14
ag11
(I0
I0
I0
I255
tp15
Rp16
aV12
p17
aasI5
(lp18
I-1
a(lp19
asI6
(lp20
I-1
a(lp21
asI7
(lp22
I8
a(lp23
I2
ag11
(I128
I0
I64
I255
tp24
Rp25
aV2
p26
ag11
(I0
I0
I0
I255
tp27
Rp28
aV12
p29
aasI8
(lp30
I-1
a(lp31
asI9
(lp32
I-1
aNasI10
(lp33
I-1
aNasI11
(lp34
I-1
aNassS'm_time'
p35
V00:01 000ms
p36
sba(ieffectgroup
EffectGroup
p37
(dp38
g3
(dp39
I0
(lp40
I10
a(lp41
I4
ag11
(I128
I0
I64
I255
tp42
Rp43
aV2
p44
ag11
(I0
I0
I0
I255
tp45
Rp46
aV12
p47
ag11
(I96
I96
I96
I255
tp48
Rp49
aV2
p50
ag11
(I0
I0
I0
I255
tp51
Rp52
aV12
p53
aasI1
(lp54
I10
a(lp55
I4
ag11
(I128
I0
I64
I255
tp56
Rp57
aV2
p58
ag11
(I0
I0
I0
I255
tp59
Rp60
aV12
p61
ag11
(I0
I0
I255
I255
tp62
Rp63
aV2
p64
ag11
(I0
I0
I0
I255
tp65
Rp66
aV12
p67
aasI2
(lp68
I10
a(lp69
I4
ag11
(I128
I0
I64
I255
tp70
Rp71
aV2
p72
ag11
(I0
I0
I0
I255
tp73
Rp74
aV12
p75
ag11
(I96
I96
I96
I255
tp76
Rp77
aV2
p78
ag11
(I0
I0
I0
I255
tp79
Rp80
aV12
p81
aasI3
(lp82
I10
a(lp83
I4
ag11
(I128
I0
I64
I255
tp84
Rp85
aV2
p86
ag11
(I0
I0
I0
I255
tp87
Rp88
aV12
p89
ag11
(I128
I0
I64
I255
tp90
Rp91
aV2
p92
ag11
(I0
I0
I0
I255
tp93
Rp94
aV36
p95
aasI4
(lp96
I3
a(lp97
g11
(I128
I0
I64
I255
tp98
Rp99
aV1
p100
aV16
p101
aasI5
(lp102
I-1
aNasI6
(lp103
I-1
aNasI7
(lp104
I-1
aNasI8
(lp105
I-1
aNasI9
(lp106
I-1
aNasI10
(lp107
I-1
aNasI11
(lp108
I-1
aNassg35
V00:01 100ms
p109
sba(ieffectgroup
EffectGroup
p110
(dp111
g3
(dp112
I0
(lp113
I-1
aNasI1
(lp114
I-1
aNasI2
(lp115
I-1
aNasI3
(lp116
I-1
aNasI4
(lp117
I-1
aNasI5
(lp118
I9
a(lp119
I3
ag11
(I40
I40
I40
I255
tp120
Rp121
aV4
p122
ag11
(I128
I0
I64
I255
tp123
Rp124
aV4
p125
ag11
(I0
I0
I0
I255
tp126
Rp127
aV32
p128
aasI6
(lp129
I9
a(lp130
I3
ag11
(I40
I40
I40
I255
tp131
Rp132
aV4
p133
ag11
(I128
I0
I64
I255
tp134
Rp135
aV4
p136
ag11
(I0
I0
I0
I255
tp137
Rp138
aV32
p139
aasI7
(lp140
I-1
aNasI8
(lp141
I-1
aNasI9
(lp142
I-1
aNasI10
(lp143
I-1
aNasI11
(lp144
I-1
aNassg35
V00:01 300ms
p145
sba(ieffectgroup
EffectGroup
p146
(dp147
g3
(dp148
I0
(lp149
I10
a(lp150
I4
ag11
(I128
I0
I64
I255
tp151
Rp152
aV1
p153
ag11
(I0
I0
I0
I255
tp154
Rp155
aV4
p156
ag11
(I0
I0
I255
I255
tp157
Rp158
aV1
p159
ag11
(I0
I0
I0
I255
tp160
Rp161
aV4
p162
aasI1
(lp163
I11
a(lp164
I6
ag11
(I0
I0
I255
I255
tp165
Rp166
aV1
p167
ag11
(I0
I0
I0
I255
tp168
Rp169
aV4
p170
ag11
(I0
I128
I128
I255
tp171
Rp172
aV4
p173
ag11
(I0
I0
I0
I255
tp174
Rp175
aV8
p176
ag11
(I0
I128
I128
I255
tp177
Rp178
aV8
p179
ag11
(I0
I0
I0
I255
tp180
Rp181
aV8
p182
aasI2
(lp183
I12
a(lp184
I8
ag11
(I0
I0
I255
I255
tp185
Rp186
aV1
p187
ag11
(I0
I0
I0
I255
tp188
Rp189
aV8
p190
ag11
(I0
I0
I255
I255
tp191
Rp192
aV1
p193
ag11
(I0
I0
I0
I255
tp194
Rp195
aV8
p196
ag11
(I0
I0
I255
I255
tp197
Rp198
aV1
p199
ag11
(I0
I0
I0
I255
tp200
Rp201
aV8
p202
ag11
(I0
I128
I128
I255
tp203
Rp204
aV1
p205
ag11
(I0
I0
I0
I255
tp206
Rp207
aV8
p208
aasI3
(lp209
I8
a(lp210
I2
ag11
(I0
I0
I255
I255
tp211
Rp212
aV1
p213
ag11
(I0
I0
I0
I255
tp214
Rp215
aV6
p216
aasI4
(lp217
I-1
a(lp218
asI5
(lp219
I9
a(lp220
I3
ag11
(I40
I40
I40
I255
tp221
Rp222
aV4
p223
ag11
(I128
I0
I64
I255
tp224
Rp225
aV4
p226
ag11
(I0
I0
I0
I255
tp227
Rp228
aV32
p229
aasI6
(lp230
I9
a(lp231
I3
ag11
(I40
I40
I40
I255
tp232
Rp233
aV4
p234
ag11
(I128
I0
I64
I255
tp235
Rp236
aV4
p237
ag11
(I0
I0
I0
I255
tp238
Rp239
aV32
p240
aasI7
(lp241
I-1
a(lp242
asI8
(lp243
I8
a(lp244
I2
ag11
(I0
I0
I255
I255
tp245
Rp246
aV1
p247
ag11
(I0
I0
I0
I255
tp248
Rp249
aV6
p250
aasI9
(lp251
I12
a(lp252
I8
ag11
(I0
I0
I255
I255
tp253
Rp254
aV1
p255
ag11
(I0
I0
I0
I255
tp256
Rp257
aV8
p258
ag11
(I0
I0
I255
I255
tp259
Rp260
aV1
p261
ag11
(I0
I0
I0
I255
tp262
Rp263
aV8
p264
ag11
(I0
I0
I255
I255
tp265
Rp266
aV1
p267
ag11
(I0
I0
I0
I255
tp268
Rp269
aV8
p270
ag11
(I0
I128
I128
I255
tp271
Rp272
aV1
p273
ag11
(I0
I0
I0
I255
tp274
Rp275
aV8
p276
aasI10
(lp277
I11
a(lp278
I6
ag11
(I0
I0
I255
I255
tp279
Rp280
aV1
p281
ag11
(I0
I0
I0
I255
tp282
Rp283
aV4
p284
ag11
(I0
I128
I128
I255
tp285
Rp286
aV4
p287
ag11
(I0
I0
I0
I255
tp288
Rp289
aV8
p290
ag11
(I0
I128
I128
I255
tp291
Rp292
aV8
p293
ag11
(I0
I0
I0
I255
tp294
Rp295
aV8
p296
aasI11
(lp297
I10
a(lp298
I4
ag11
(I128
I0
I64
I255
tp299
Rp300
aV1
p301
ag11
(I0
I0
I0
I255
tp302
Rp303
aV4
p304
ag11
(I0
I0
I255
I255
tp305
Rp306
aV1
p307
ag11
(I0
I0
I0
I255
tp308
Rp309
aV4
p310
aassg35
V00:02 000ms
p311
sba(ieffectgroup
EffectGroup
p312
(dp313
g3
(dp314
I0
(lp315
I-1
aNasI1
(lp316
I-1
aNasI2
(lp317
I-1
aNasI3
(lp318
I-1
aNasI4
(lp319
I-1
a(lp320
asI5
(lp321
I9
a(lp322
I3
ag11
(I255
I0
I0
I255
tp323
Rp324
aV3
p325
ag11
(I255
I100
I0
I255
tp326
Rp327
aV1
p328
ag11
(I0
I0
I0
I255
tp329
Rp330
aV35
p331
aasI6
(lp332
I9
a(lp333
I3
ag11
(I255
I0
I0
I255
tp334
Rp335
aV3
p336
ag11
(I255
I100
I0
I255
tp337
Rp338
aV1
p339
ag11
(I0
I0
I0
I255
tp340
Rp341
aV35
p342
aasI7
(lp343
I-1
aNasI8
(lp344
I-1
aNasI9
(lp345
I-1
aNasI10
(lp346
I-1
aNasI11
(lp347
I-1
aNassg35
V00:03 000ms
p348
sba(ieffectgroup
EffectGroup
p349
(dp350
g3
(dp351
I0
(lp352
I-1
aNasI1
(lp353
I-1
aNasI2
(lp354
I-1
aNasI3
(lp355
I-1
aNasI4
(lp356
I-1
aNasI5
(lp357
I9
a(lp358
I3
ag11
(I255
I100
I0
I255
tp359
Rp360
aV3
p361
ag11
(I255
I0
I0
I255
tp362
Rp363
aV1
p364
ag11
(I0
I0
I0
I255
tp365
Rp366
aV32
p367
aasI6
(lp368
I9
a(lp369
I3
ag11
(I0
I0
I255
I255
tp370
Rp371
aV3
p372
ag11
(I96
I96
I96
I255
tp373
Rp374
aV1
p375
ag11
(I0
I0
I0
I255
tp376
Rp377
aV32
p378
aasI7
(lp379
I-1
aNasI8
(lp380
I-1
aNasI9
(lp381
I-1
aNasI10
(lp382
I-1
aNasI11
(lp383
I-1
aNassg35
V00:03 100ms
p384
sba(ieffectgroup
EffectGroup
p385
(dp386
g3
(dp387
I0
(lp388
I-1
aNasI1
(lp389
I-1
aNasI2
(lp390
I-1
aNasI3
(lp391
I-1
aNasI4
(lp392
I-1
aNasI5
(lp393
I9
a(lp394
I3
ag11
(I0
I255
I0
I255
tp395
Rp396
aV3
p397
ag11
(I150
I255
I0
I255
tp398
Rp399
aV1
p400
ag11
(I0
I0
I0
I255
tp401
Rp402
aV32
p403
aasI6
(lp404
I9
a(lp405
I3
ag11
(I0
I255
I0
I255
tp406
Rp407
aV3
p408
ag11
(I0
I255
I100
I255
tp409
Rp410
aV1
p411
ag11
(I0
I0
I0
I255
tp412
Rp413
aV32
p414
aasI7
(lp415
I-1
aNasI8
(lp416
I-1
aNasI9
(lp417
I-1
aNasI10
(lp418
I-1
aNasI11
(lp419
I-1
aNassg35
V00:03 200ms
p420
sba(ieffectgroup
EffectGroup
p421
(dp422
g3
(dp423
I0
(lp424
I-1
aNasI1
(lp425
I-1
aNasI2
(lp426
I-1
aNasI3
(lp427
I3
a(lp428
g11
(I255
I0
I0
I255
tp429
Rp430
aV1
p431
aV4
p432
aasI4
(lp433
I-1
aNasI5
(lp434
I-1
aNasI6
(lp435
I-1
a(lp436
asI7
(lp437
I3
a(lp438
g11
(I255
I0
I0
I255
tp439
Rp440
aV1
p441
aV16
p442
aasI8
(lp443
I-1
a(lp444
asI9
(lp445
I-1
aNasI10
(lp446
I-1
aNasI11
(lp447
I-1
aNassg35
V00:03 300ms
p448
sba(ieffectgroup
EffectGroup
p449
(dp450
g3
(dp451
I0
(lp452
I12
a(lp453
I8
ag11
(I64
I0
I128
I255
tp454
Rp455
aV1
p456
ag11
(I0
I0
I0
I255
tp457
Rp458
aV8
p459
ag11
(I64
I0
I128
I255
tp460
Rp461
aV1
p462
ag11
(I0
I0
I0
I255
tp463
Rp464
aV8
p465
ag11
(I64
I0
I128
I255
tp466
Rp467
aV1
p468
ag11
(I0
I0
I0
I255
tp469
Rp470
aV8
p471
ag11
(I100
I20
I0
I255
tp472
Rp473
aV1
p474
ag11
(I0
I0
I0
I255
tp475
Rp476
aV8
p477
aasI1
(lp478
I12
a(lp479
I8
ag11
(I64
I0
I128
I255
tp480
Rp481
aV1
p482
ag11
(I0
I0
I0
I255
tp483
Rp484
aV8
p485
ag11
(I64
I0
I128
I255
tp486
Rp487
aV1
p488
ag11
(I0
I0
I0
I255
tp489
Rp490
aV8
p491
ag11
(I100
I20
I0
I255
tp492
Rp493
aV1
p494
ag11
(I0
I0
I0
I255
tp495
Rp496
aV8
p497
ag11
(I64
I0
I128
I255
tp498
Rp499
aV1
p500
ag11
(I0
I0
I0
I255
tp501
Rp502
aV8
p503
aasI2
(lp504
I16
a(lp505
I16
ag11
(I64
I0
I128
I255
tp506
Rp507
aV1
p508
ag11
(I0
I0
I0
I255
tp509
Rp510
aV8
p511
ag11
(I64
I0
I128
I255
tp512
Rp513
aV2
p514
ag11
(I0
I0
I0
I255
tp515
Rp516
aV8
p517
ag11
(I64
I0
I128
I255
tp518
Rp519
aV1
p520
ag11
(I0
I0
I0
I255
tp521
Rp522
aV8
p523
ag11
(I64
I0
I128
I255
tp524
Rp525
aV1
p526
ag11
(I0
I0
I0
I255
tp527
Rp528
aV8
p529
ag11
(I64
I0
I128
I255
tp530
Rp531
aV1
p532
ag11
(I0
I0
I0
I255
tp533
Rp534
aV8
p535
ag11
(I64
I0
I128
I255
tp536
Rp537
aV1
p538
ag11
(I0
I0
I0
I255
tp539
Rp540
aV8
p541
ag11
(I64
I0
I128
I255
tp542
Rp543
aV1
p544
ag11
(I0
I0
I0
I255
tp545
Rp546
aV8
p547
ag11
(I0
I128
I128
I255
tp548
Rp549
aV2
p550
ag11
(I0
I0
I0
I255
tp551
Rp552
aV8
p553
aasI3
(lp554
I12
a(lp555
I8
ag11
(I64
I0
I128
I255
tp556
Rp557
aV1
p558
ag11
(I0
I0
I0
I255
tp559
Rp560
aV8
p561
ag11
(I64
I0
I128
I255
tp562
Rp563
aV1
p564
ag11
(I0
I0
I0
I255
tp565
Rp566
aV8
p567
ag11
(I128
I0
I255
I255
tp568
Rp569
aV2
p570
ag11
(I0
I0
I0
I255
tp571
Rp572
aV8
p573
ag11
(I128
I0
I255
I255
tp574
Rp575
aV2
p576
ag11
(I0
I0
I0
I255
tp577
Rp578
aV8
p579
aasI4
(lp580
I-1
a(lp581
asI5
(lp582
I9
a(lp583
I3
ag11
(I100
I0
I0
I255
tp584
Rp585
aV3
p586
ag11
(I255
I60
I0
I255
tp587
Rp588
aV1
p589
ag11
(I0
I0
I0
I255
tp590
Rp591
aV35
p592
aasI6
(lp593
I9
a(lp594
I3
ag11
(I98
I0
I0
I255
tp595
Rp596
aV3
p597
ag11
(I255
I60
I0
I255
tp598
Rp599
aV1
p600
ag11
(I0
I0
I0
I255
tp601
Rp602
aV35
p603
aasI7
(lp604
I-1
aNasI8
(lp605
I12
a(lp606
I8
ag11
(I64
I0
I128
I255
tp607
Rp608
aV1
p609
ag11
(I0
I0
I0
I255
tp610
Rp611
aV8
p612
ag11
(I64
I0
I128
I255
tp613
Rp614
aV1
p615
ag11
(I0
I0
I0
I255
tp616
Rp617
aV8
p618
ag11
(I128
I0
I255
I255
tp619
Rp620
aV2
p621
ag11
(I0
I0
I0
I255
tp622
Rp623
aV8
p624
ag11
(I128
I0
I255
I255
tp625
Rp626
aV2
p627
ag11
(I0
I0
I0
I255
tp628
Rp629
aV8
p630
aasI9
(lp631
I16
a(lp632
I16
ag11
(I64
I0
I128
I255
tp633
Rp634
aV1
p635
ag11
(I0
I0
I0
I255
tp636
Rp637
aV8
p638
ag11
(I64
I0
I128
I255
tp639
Rp640
aV1
p641
ag11
(I0
I0
I0
I255
tp642
Rp643
aV8
p644
ag11
(I64
I0
I128
I255
tp645
Rp646
aV1
p647
ag11
(I0
I0
I0
I255
tp648
Rp649
aV8
p650
ag11
(I64
I0
I128
I255
tp651
Rp652
aV1
p653
ag11
(I0
I0
I0
I255
tp654
Rp655
aV8
p656
ag11
(I64
I0
I128
I255
tp657
Rp658
aV1
p659
ag11
(I0
I0
I0
I255
tp660
Rp661
aV8
p662
ag11
(I64
I0
I128
I255
tp663
Rp664
aV1
p665
ag11
(I0
I0
I0
I255
tp666
Rp667
aV8
p668
ag11
(I64
I0
I128
I255
tp669
Rp670
aV1
p671
ag11
(I0
I0
I0
I255
tp672
Rp673
aV8
p674
ag11
(I0
I128
I128
I255
tp675
Rp676
aV1
p677
ag11
(I0
I0
I0
I255
tp678
Rp679
aV8
p680
aasI10
(lp681
I12
a(lp682
I8
ag11
(I64
I0
I128
I255
tp683
Rp684
aV1
p685
ag11
(I0
I0
I0
I255
tp686
Rp687
aV8
p688
ag11
(I64
I0
I128
I255
tp689
Rp690
aV1
p691
ag11
(I0
I0
I0
I255
tp692
Rp693
aV8
p694
ag11
(I100
I20
I0
I255
tp695
Rp696
aV1
p697
ag11
(I0
I0
I0
I255
tp698
Rp699
aV8
p700
ag11
(I64
I0
I128
I255
tp701
Rp702
aV1
p703
ag11
(I0
I0
I0
I255
tp704
Rp705
aV8
p706
aasI11
(lp707
I12
a(lp708
I8
ag11
(I64
I0
I128
I255
tp709
Rp710
aV1
p711
ag11
(I0
I0
I0
I255
tp712
Rp713
aV8
p714
ag11
(I64
I0
I128
I255
tp715
Rp716
aV1
p717
ag11
(I0
I0
I0
I255
tp718
Rp719
aV8
p720
ag11
(I64
I0
I128
I255
tp721
Rp722
aV1
p723
ag11
(I0
I0
I0
I255
tp724
Rp725
aV8
p726
ag11
(I100
I20
I0
I255
tp727
Rp728
aV1
p729
ag11
(I0
I0
I0
I255
tp730
Rp731
aV8
p732
aassg35
V00:04 000ms
p733
sba(ieffectgroup
EffectGroup
p734
(dp735
g3
(dp736
I0
(lp737
I12
a(lp738
I8
ag11
(I64
I0
I128
I255
tp739
Rp740
aV1
p741
ag11
(I0
I0
I0
I255
tp742
Rp743
aV8
p744
ag11
(I64
I0
I128
I255
tp745
Rp746
aV1
p747
ag11
(I0
I0
I0
I255
tp748
Rp749
aV8
p750
ag11
(I64
I0
I128
I255
tp751
Rp752
aV1
p753
ag11
(I0
I0
I0
I255
tp754
Rp755
aV8
p756
ag11
(I0
I128
I128
I255
tp757
Rp758
aV1
p759
ag11
(I0
I0
I0
I255
tp760
Rp761
aV8
p762
aasI1
(lp763
I12
a(lp764
I8
ag11
(I64
I0
I128
I255
tp765
Rp766
aV1
p767
ag11
(I0
I0
I0
I255
tp768
Rp769
aV8
p770
ag11
(I64
I0
I128
I255
tp771
Rp772
aV1
p773
ag11
(I0
I0
I0
I255
tp774
Rp775
aV8
p776
ag11
(I0
I128
I128
I255
tp777
Rp778
aV1
p779
ag11
(I0
I0
I0
I255
tp780
Rp781
aV8
p782
ag11
(I64
I0
I128
I255
tp783
Rp784
aV1
p785
ag11
(I0
I0
I0
I255
tp786
Rp787
aV8
p788
aasI2
(lp789
I16
a(lp790
I16
ag11
(I64
I0
I128
I255
tp791
Rp792
aV1
p793
ag11
(I0
I0
I0
I255
tp794
Rp795
aV8
p796
ag11
(I64
I0
I128
I255
tp797
Rp798
aV1
p799
ag11
(I0
I0
I0
I255
tp800
Rp801
aV8
p802
ag11
(I64
I0
I128
I255
tp803
Rp804
aV1
p805
ag11
(I0
I0
I0
I255
tp806
Rp807
aV8
p808
ag11
(I64
I0
I128
I255
tp809
Rp810
aV1
p811
ag11
(I0
I0
I0
I255
tp812
Rp813
aV8
p814
ag11
(I64
I0
I128
I255
tp815
Rp816
aV1
p817
ag11
(I0
I0
I0
I255
tp818
Rp819
aV8
p820
ag11
(I64
I0
I128
I255
tp821
Rp822
aV1
p823
ag11
(I0
I0
I0
I255
tp824
Rp825
aV8
p826
ag11
(I64
I0
I128
I255
tp827
Rp828
aV1
p829
ag11
(I0
I0
I0
I255
tp830
Rp831
aV8
p832
ag11
(I100
I20
I0
I255
tp833
Rp834
aV1
p835
ag11
(I0
I0
I0
I255
tp836
Rp837
aV8
p838
aasI3
(lp839
I12
a(lp840
I8
ag11
(I64
I0
I128
I255
tp841
Rp842
aV1
p843
ag11
(I0
I0
I0
I255
tp844
Rp845
aV8
p846
ag11
(I64
I0
I128
I255
tp847
Rp848
aV1
p849
ag11
(I0
I0
I0
I255
tp850
Rp851
aV8
p852
ag11
(I128
I0
I255
I255
tp853
Rp854
aV2
p855
ag11
(I0
I0
I0
I255
tp856
Rp857
aV8
p858
ag11
(I128
I0
I255
I255
tp859
Rp860
aV2
p861
ag11
(I0
I0
I0
I255
tp862
Rp863
aV8
p864
aasI4
(lp865
I-1
aNasI5
(lp866
I9
a(lp867
I3
ag11
(I0
I128
I128
I255
tp868
Rp869
aV3
p870
ag11
(I96
I96
I96
I255
tp871
Rp872
aV1
p873
ag11
(I0
I0
I0
I255
tp874
Rp875
aV35
p876
aasI6
(lp877
I9
a(lp878
I3
ag11
(I0
I128
I128
I255
tp879
Rp880
aV3
p881
ag11
(I96
I96
I96
I255
tp882
Rp883
aV1
p884
ag11
(I0
I0
I0
I255
tp885
Rp886
aV35
p887
aasI7
(lp888
I-1
aNasI8
(lp889
I12
a(lp890
I8
ag11
(I64
I0
I128
I255
tp891
Rp892
aV1
p893
ag11
(I0
I0
I0
I255
tp894
Rp895
aV8
p896
ag11
(I64
I0
I128
I255
tp897
Rp898
aV1
p899
ag11
(I0
I0
I0
I255
tp900
Rp901
aV8
p902
ag11
(I128
I0
I255
I255
tp903
Rp904
aV2
p905
ag11
(I0
I0
I0
I255
tp906
Rp907
aV8
p908
ag11
(I128
I0
I255
I255
tp909
Rp910
aV2
p911
ag11
(I0
I0
I0
I255
tp912
Rp913
aV8
p914
aasI9
(lp915
I12
a(lp916
I8
ag11
(I64
I0
I128
I255
tp917
Rp918
aV1
p919
ag11
(I0
I0
I0
I255
tp920
Rp921
aV8
p922
ag11
(I64
I0
I128
I255
tp923
Rp924
aV1
p925
ag11
(I0
I0
I0
I255
tp926
Rp927
aV8
p928
ag11
(I64
I0
I128
I255
tp929
Rp930
aV1
p931
ag11
(I0
I0
I0
I255
tp932
Rp933
aV8
p934
ag11
(I0
I128
I128
I255
tp935
Rp936
aV1
p937
ag11
(I0
I0
I0
I255
tp938
Rp939
aV8
p940
aasI10
(lp941
I16
a(lp942
I16
ag11
(I64
I0
I128
I255
tp943
Rp944
aV1
p945
ag11
(I0
I0
I0
I255
tp946
Rp947
aV8
p948
ag11
(I64
I0
I128
I255
tp949
Rp950
aV1
p951
ag11
(I0
I0
I0
I255
tp952
Rp953
aV8
p954
ag11
(I64
I0
I128
I255
tp955
Rp956
aV1
p957
ag11
(I0
I0
I0
I255
tp958
Rp959
aV8
p960
ag11
(I64
I0
I128
I255
tp961
Rp962
aV1
p963
ag11
(I0
I0
I0
I255
tp964
Rp965
aV8
p966
ag11
(I64
I0
I128
I255
tp967
Rp968
aV1
p969
ag11
(I0
I0
I0
I255
tp970
Rp971
aV8
p972
ag11
(I64
I0
I128
I255
tp973
Rp974
aV1
p975
ag11
(I0
I0
I0
I255
tp976
Rp977
aV8
p978
ag11
(I64
I0
I128
I255
tp979
Rp980
aV1
p981
ag11
(I0
I0
I0
I255
tp982
Rp983
aV8
p984
ag11
(I100
I20
I0
I255
tp985
Rp986
aV1
p987
ag11
(I0
I0
I0
I255
tp988
Rp989
aV8
p990
aasI11
(lp991
I12
a(lp992
I8
ag11
(I64
I0
I128
I255
tp993
Rp994
aV1
p995
ag11
(I0
I0
I0
I255
tp996
Rp997
aV8
p998
ag11
(I64
I0
I128
I255
tp999
Rp1000
aV1
p1001
ag11
(I0
I0
I0
I255
tp1002
Rp1003
aV8
p1004
ag11
(I64
I0
I128
I255
tp1005
Rp1006
aV1
p1007
ag11
(I0
I0
I0
I255
tp1008
Rp1009
aV8
p1010
ag11
(I0
I128
I128
I255
tp1011
Rp1012
aV1
p1013
ag11
(I0
I0
I0
I255
tp1014
Rp1015
aV8
p1016
aassg35
V00:05 000ms
p1017
sba(ieffectgroup
EffectGroup
p1018
(dp1019
g3
(dp1020
I0
(lp1021
I8
a(lp1022
I2
ag11
(I0
I128
I128
I255
tp1023
Rp1024
aV1
p1025
ag11
(I0
I0
I0
I255
tp1026
Rp1027
aV8
p1028
aasI1
(lp1029
I8
a(lp1030
I2
ag11
(I0
I128
I128
I255
tp1031
Rp1032
aV1
p1033
ag11
(I0
I0
I0
I255
tp1034
Rp1035
aV8
p1036
aasI2
(lp1037
I8
a(lp1038
I2
ag11
(I0
I128
I128
I255
tp1039
Rp1040
aV1
p1041
ag11
(I0
I0
I0
I255
tp1042
Rp1043
aV8
p1044
aasI3
(lp1045
I10
a(lp1046
I4
ag11
(I0
I128
I30
I255
tp1047
Rp1048
aV8
p1049
ag11
(I0
I0
I255
I255
tp1050
Rp1051
aV8
p1052
ag11
(I255
I255
I255
I255
tp1053
Rp1054
aV2
p1055
ag11
(I0
I0
I0
I255
tp1056
Rp1057
aV24
p1058
aasI4
(lp1059
I-1
aNasI5
(lp1060
I-1
aNasI6
(lp1061
I-1
aNasI7
(lp1062
I-1
aNasI8
(lp1063
I10
a(lp1064
I4
ag11
(I0
I128
I30
I255
tp1065
Rp1066
aV8
p1067
ag11
(I0
I0
I255
I255
tp1068
Rp1069
aV8
p1070
ag11
(I255
I255
I255
I255
tp1071
Rp1072
aV2
p1073
ag11
(I0
I0
I0
I255
tp1074
Rp1075
aV24
p1076
aasI9
(lp1077
I8
a(lp1078
I2
ag11
(I0
I128
I128
I255
tp1079
Rp1080
aV1
p1081
ag11
(I0
I0
I0
I255
tp1082
Rp1083
aV8
p1084
aasI10
(lp1085
I8
a(lp1086
I2
ag11
(I0
I128
I128
I255
tp1087
Rp1088
aV1
p1089
ag11
(I0
I0
I0
I255
tp1090
Rp1091
aV8
p1092
aasI11
(lp1093
I8
a(lp1094
I2
ag11
(I0
I128
I128
I255
tp1095
Rp1096
aV1
p1097
ag11
(I0
I0
I0
I255
tp1098
Rp1099
aV8
p1100
aassg35
V00:06 000ms
p1101
sba(ieffectgroup
EffectGroup
p1102
(dp1103
g3
(dp1104
I0
(lp1105
I8
a(lp1106
I2
ag11
(I0
I128
I128
I255
tp1107
Rp1108
aV1
p1109
ag11
(I0
I0
I0
I255
tp1110
Rp1111
aV8
p1112
aasI1
(lp1113
I8
a(lp1114
I2
ag11
(I0
I128
I128
I255
tp1115
Rp1116
aV1
p1117
ag11
(I0
I0
I0
I255
tp1118
Rp1119
aV8
p1120
aasI2
(lp1121
I8
a(lp1122
I2
ag11
(I0
I128
I128
I255
tp1123
Rp1124
aV1
p1125
ag11
(I0
I0
I0
I255
tp1126
Rp1127
aV8
p1128
aasI3
(lp1129
I8
a(lp1130
I2
ag11
(I0
I128
I128
I255
tp1131
Rp1132
aV1
p1133
ag11
(I0
I0
I0
I255
tp1134
Rp1135
aV8
p1136
aasI4
(lp1137
I-1
a(lp1138
asI5
(lp1139
I10
a(lp1140
I4
ag11
(I0
I128
I30
I255
tp1141
Rp1142
aV8
p1143
ag11
(I0
I0
I0
I255
tp1144
Rp1145
aV32
p1146
ag11
(I0
I0
I255
I255
tp1147
Rp1148
aV8
p1149
ag11
(I0
I0
I0
I255
tp1150
Rp1151
aV32
p1152
aasI6
(lp1153
I10
a(lp1154
I4
ag11
(I0
I128
I30
I255
tp1155
Rp1156
aV8
p1157
ag11
(I0
I0
I0
I255
tp1158
Rp1159
aV32
p1160
ag11
(I0
I0
I255
I255
tp1161
Rp1162
aV8
p1163
ag11
(I0
I0
I0
I255
tp1164
Rp1165
aV32
p1166
aasI7
(lp1167
I-1
aNasI8
(lp1168
I8
a(lp1169
I2
ag11
(I0
I128
I128
I255
tp1170
Rp1171
aV1
p1172
ag11
(I0
I0
I0
I255
tp1173
Rp1174
aV8
p1175
aasI9
(lp1176
I8
a(lp1177
I2
ag11
(I0
I128
I128
I255
tp1178
Rp1179
aV1
p1180
ag11
(I0
I0
I0
I255
tp1181
Rp1182
aV8
p1183
aasI10
(lp1184
I8
a(lp1185
I2
ag11
(I0
I128
I128
I255
tp1186
Rp1187
aV1
p1188
ag11
(I0
I0
I0
I255
tp1189
Rp1190
aV8
p1191
aasI11
(lp1192
I8
a(lp1193
I2
ag11
(I0
I128
I128
I255
tp1194
Rp1195
aV1
p1196
ag11
(I0
I0
I0
I255
tp1197
Rp1198
aV8
p1199
aassg35
V00:07 000ms
p1200
sba(ieffectgroup
EffectGroup
p1201
(dp1202
g3
(dp1203
I0
(lp1204
I8
a(lp1205
I2
ag11
(I0
I0
I255
I255
tp1206
Rp1207
aV1
p1208
ag11
(I0
I0
I0
I255
tp1209
Rp1210
aV8
p1211
aasI1
(lp1212
I10
a(lp1213
I4
ag11
(I0
I0
I255
I255
tp1214
Rp1215
aV1
p1216
ag11
(I0
I0
I0
I255
tp1217
Rp1218
aV8
p1219
ag11
(I0
I128
I30
I255
tp1220
Rp1221
aV1
p1222
ag11
(I0
I0
I0
I255
tp1223
Rp1224
aV8
p1225
aasI2
(lp1226
I8
a(lp1227
I2
ag11
(I0
I0
I255
I255
tp1228
Rp1229
aV1
p1230
ag11
(I0
I0
I0
I255
tp1231
Rp1232
aV8
p1233
aasI3
(lp1234
I10
a(lp1235
I4
ag11
(I0
I0
I255
I255
tp1236
Rp1237
aV1
p1238
ag11
(I0
I0
I0
I255
tp1239
Rp1240
aV8
p1241
ag11
(I0
I128
I30
I255
tp1242
Rp1243
aV1
p1244
ag11
(I0
I0
I0
I255
tp1245
Rp1246
aV8
p1247
aasI4
(lp1248
I-1
aNasI5
(lp1249
I8
a(lp1250
I2
ag11
(I0
I128
I128
I255
tp1251
Rp1252
aV8
p1253
ag11
(I0
I0
I0
I255
tp1254
Rp1255
aV32
p1256
aasI6
(lp1257
I8
a(lp1258
I2
ag11
(I0
I128
I128
I255
tp1259
Rp1260
aV8
p1261
ag11
(I0
I0
I0
I255
tp1262
Rp1263
aV32
p1264
aasI7
(lp1265
I-1
aNasI8
(lp1266
I10
a(lp1267
I4
ag11
(I0
I0
I255
I255
tp1268
Rp1269
aV1
p1270
ag11
(I0
I0
I0
I255
tp1271
Rp1272
aV8
p1273
ag11
(I0
I128
I30
I255
tp1274
Rp1275
aV1
p1276
ag11
(I0
I0
I0
I255
tp1277
Rp1278
aV8
p1279
aasI9
(lp1280
I8
a(lp1281
I2
ag11
(I0
I0
I255
I255
tp1282
Rp1283
aV1
p1284
ag11
(I0
I0
I0
I255
tp1285
Rp1286
aV8
p1287
aasI10
(lp1288
I10
a(lp1289
I4
ag11
(I0
I0
I255
I255
tp1290
Rp1291
aV1
p1292
ag11
(I0
I0
I0
I255
tp1293
Rp1294
aV8
p1295
ag11
(I0
I128
I30
I255
tp1296
Rp1297
aV1
p1298
ag11
(I0
I0
I0
I255
tp1299
Rp1300
aV8
p1301
aasI11
(lp1302
I8
a(lp1303
I2
ag11
(I0
I0
I255
I255
tp1304
Rp1305
aV1
p1306
ag11
(I0
I0
I0
I255
tp1307
Rp1308
aV8
p1309
aassg35
V00:08 000ms
p1310
sba(ieffectgroup
EffectGroup
p1311
(dp1312
g3
(dp1313
I0
(lp1314
I8
a(lp1315
I2
ag11
(I0
I0
I255
I255
tp1316
Rp1317
aV1
p1318
ag11
(I0
I0
I0
I255
tp1319
Rp1320
aV8
p1321
aasI1
(lp1322
I10
a(lp1323
I4
ag11
(I0
I0
I255
I255
tp1324
Rp1325
aV1
p1326
ag11
(I0
I0
I0
I255
tp1327
Rp1328
aV8
p1329
ag11
(I0
I128
I30
I255
tp1330
Rp1331
aV1
p1332
ag11
(I0
I0
I0
I255
tp1333
Rp1334
aV8
p1335
aasI2
(lp1336
I8
a(lp1337
I2
ag11
(I0
I0
I255
I255
tp1338
Rp1339
aV1
p1340
ag11
(I0
I0
I0
I255
tp1341
Rp1342
aV8
p1343
aasI3
(lp1344
I10
a(lp1345
I4
ag11
(I0
I0
I255
I255
tp1346
Rp1347
aV1
p1348
ag11
(I0
I0
I0
I255
tp1349
Rp1350
aV8
p1351
ag11
(I0
I128
I30
I255
tp1352
Rp1353
aV1
p1354
ag11
(I0
I0
I0
I255
tp1355
Rp1356
aV8
p1357
aasI4
(lp1358
I-1
aNasI5
(lp1359
I-1
aNasI6
(lp1360
I-1
aNasI7
(lp1361
I-1
aNasI8
(lp1362
I10
a(lp1363
I4
ag11
(I0
I0
I255
I255
tp1364
Rp1365
aV1
p1366
ag11
(I0
I0
I0
I255
tp1367
Rp1368
aV8
p1369
ag11
(I0
I128
I30
I255
tp1370
Rp1371
aV1
p1372
ag11
(I0
I0
I0
I255
tp1373
Rp1374
aV8
p1375
aasI9
(lp1376
I8
a(lp1377
I2
ag11
(I0
I0
I255
I255
tp1378
Rp1379
aV1
p1380
ag11
(I0
I0
I0
I255
tp1381
Rp1382
aV8
p1383
aasI10
(lp1384
I10
a(lp1385
I4
ag11
(I0
I0
I255
I255
tp1386
Rp1387
aV1
p1388
ag11
(I0
I0
I0
I255
tp1389
Rp1390
aV8
p1391
ag11
(I0
I128
I30
I255
tp1392
Rp1393
aV1
p1394
ag11
(I0
I0
I0
I255
tp1395
Rp1396
aV8
p1397
aasI11
(lp1398
I8
a(lp1399
I2
ag11
(I0
I0
I255
I255
tp1400
Rp1401
aV1
p1402
ag11
(I0
I0
I0
I255
tp1403
Rp1404
aV8
p1405
aassg35
V00:09 000ms
p1406
sba(ieffectgroup
EffectGroup
p1407
(dp1408
g3
(dp1409
I0
(lp1410
I12
a(lp1411
I8
ag11
(I128
I30
I0
I255
tp1412
Rp1413
aV1
p1414
ag11
(I0
I0
I0
I255
tp1415
Rp1416
aV8
p1417
ag11
(I128
I30
I0
I255
tp1418
Rp1419
aV1
p1420
ag11
(I0
I0
I0
I255
tp1421
Rp1422
aV8
p1423
ag11
(I128
I30
I0
I255
tp1424
Rp1425
aV1
p1426
ag11
(I0
I0
I0
I255
tp1427
Rp1428
aV8
p1429
ag11
(I255
I0
I0
I255
tp1430
Rp1431
aV1
p1432
ag11
(I0
I0
I0
I255
tp1433
Rp1434
aV8
p1435
aasI1
(lp1436
I8
a(lp1437
I2
ag11
(I128
I30
I0
I255
tp1438
Rp1439
aV1
p1440
ag11
(I0
I0
I0
I255
tp1441
Rp1442
aV12
p1443
aasI2
(lp1444
I8
a(lp1445
I2
ag11
(I128
I30
I0
I255
tp1446
Rp1447
aV1
p1448
ag11
(I0
I0
I0
I255
tp1449
Rp1450
aV12
p1451
aasI3
(lp1452
I12
a(lp1453
I8
ag11
(I128
I30
I0
I255
tp1454
Rp1455
aV1
p1456
ag11
(I0
I0
I0
I255
tp1457
Rp1458
aV8
p1459
ag11
(I128
I30
I0
I255
tp1460
Rp1461
aV1
p1462
ag11
(I0
I0
I0
I255
tp1463
Rp1464
aV8
p1465
ag11
(I128
I30
I0
I255
tp1466
Rp1467
aV1
p1468
ag11
(I0
I0
I0
I255
tp1469
Rp1470
aV8
p1471
ag11
(I64
I0
I128
I255
tp1472
Rp1473
aV4
p1474
ag11
(I0
I0
I0
I255
tp1475
Rp1476
aV8
p1477
aasI4
(lp1478
I-1
a(lp1479
asI5
(lp1480
I10
a(lp1481
I4
ag11
(I64
I0
I128
I255
tp1482
Rp1483
aV4
p1484
ag11
(I0
I0
I0
I255
tp1485
Rp1486
aV32
p1487
ag11
(I255
I0
I0
I255
tp1488
Rp1489
aV4
p1490
ag11
(I0
I0
I0
I255
tp1491
Rp1492
aV32
p1493
aasI6
(lp1494
I10
a(lp1495
I4
ag11
(I64
I0
I128
I255
tp1496
Rp1497
aV4
p1498
ag11
(I0
I0
I0
I255
tp1499
Rp1500
aV32
p1501
ag11
(I255
I0
I0
I255
tp1502
Rp1503
aV4
p1504
ag11
(I0
I0
I0
I255
tp1505
Rp1506
aV32
p1507
aasI7
(lp1508
I-1
aNasI8
(lp1509
I12
a(lp1510
I8
ag11
(I128
I30
I0
I255
tp1511
Rp1512
aV1
p1513
ag11
(I0
I0
I0
I255
tp1514
Rp1515
aV8
p1516
ag11
(I128
I30
I0
I255
tp1517
Rp1518
aV1
p1519
ag11
(I0
I0
I0
I255
tp1520
Rp1521
aV8
p1522
ag11
(I128
I30
I0
I255
tp1523
Rp1524
aV1
p1525
ag11
(I0
I0
I0
I255
tp1526
Rp1527
aV8
p1528
ag11
(I64
I0
I128
I255
tp1529
Rp1530
aV4
p1531
ag11
(I0
I0
I0
I255
tp1532
Rp1533
aV8
p1534
aasI9
(lp1535
I8
a(lp1536
I2
ag11
(I128
I30
I0
I255
tp1537
Rp1538
aV1
p1539
ag11
(I0
I0
I0
I255
tp1540
Rp1541
aV8
p1542
aasI10
(lp1543
I8
a(lp1544
I2
ag11
(I128
I30
I0
I255
tp1545
Rp1546
aV1
p1547
ag11
(I0
I0
I0
I255
tp1548
Rp1549
aV8
p1550
aasI11
(lp1551
I12
a(lp1552
I8
ag11
(I128
I30
I0
I255
tp1553
Rp1554
aV1
p1555
ag11
(I0
I0
I0
I255
tp1556
Rp1557
aV8
p1558
ag11
(I128
I32
I0
I255
tp1559
Rp1560
aV1
p1561
ag11
(I0
I0
I0
I255
tp1562
Rp1563
aV8
p1564
ag11
(I128
I32
I0
I255
tp1565
Rp1566
aV1
p1567
ag11
(I0
I0
I0
I255
tp1568
Rp1569
aV8
p1570
ag11
(I255
I0
I0
I255
tp1571
Rp1572
aV1
p1573
ag11
(I0
I0
I0
I255
tp1574
Rp1575
aV8
p1576
aassg35
V00:10 000ms
p1577
sba(ieffectgroup
EffectGroup
p1578
(dp1579
g3
(dp1580
I0
(lp1581
I12
a(lp1582
I8
ag11
(I255
I0
I0
I255
tp1583
Rp1584
aV1
p1585
ag11
(I0
I0
I0
I255
tp1586
Rp1587
aV12
p1588
ag11
(I255
I30
I0
I255
tp1589
Rp1590
aV1
p1591
ag11
(I0
I0
I0
I255
tp1592
Rp1593
aV12
p1594
ag11
(I255
I60
I0
I255
tp1595
Rp1596
aV1
p1597
ag11
(I0
I0
I0
I255
tp1598
Rp1599
aV12
p1600
ag11
(I255
I0
I30
I255
tp1601
Rp1602
aV1
p1603
ag11
(I0
I0
I0
I255
tp1604
Rp1605
aV12
p1606
aasI1
(lp1607
I12
a(lp1608
I8
ag11
(I255
I0
I0
I255
tp1609
Rp1610
aV1
p1611
ag11
(I0
I0
I0
I255
tp1612
Rp1613
aV12
p1614
ag11
(I255
I30
I0
I255
tp1615
Rp1616
aV1
p1617
ag11
(I0
I0
I0
I255
tp1618
Rp1619
aV12
p1620
ag11
(I255
I60
I0
I255
tp1621
Rp1622
aV1
p1623
ag11
(I0
I0
I0
I255
tp1624
Rp1625
aV12
p1626
ag11
(I255
I0
I30
I255
tp1627
Rp1628
aV1
p1629
ag11
(I0
I0
I0
I255
tp1630
Rp1631
aV12
p1632
aasI2
(lp1633
I12
a(lp1634
I8
ag11
(I255
I0
I0
I255
tp1635
Rp1636
aV1
p1637
ag11
(I0
I0
I0
I255
tp1638
Rp1639
aV12
p1640
ag11
(I255
I30
I0
I255
tp1641
Rp1642
aV1
p1643
ag11
(I0
I0
I0
I255
tp1644
Rp1645
aV12
p1646
ag11
(I255
I60
I0
I255
tp1647
Rp1648
aV1
p1649
ag11
(I0
I0
I0
I255
tp1650
Rp1651
aV12
p1652
ag11
(I255
I0
I30
I255
tp1653
Rp1654
aV1
p1655
ag11
(I0
I0
I0
I255
tp1656
Rp1657
aV12
p1658
aasI3
(lp1659
I12
a(lp1660
I8
ag11
(I255
I0
I0
I255
tp1661
Rp1662
aV1
p1663
ag11
(I0
I0
I0
I255
tp1664
Rp1665
aV8
p1666
ag11
(I255
I30
I0
I255
tp1667
Rp1668
aV1
p1669
ag11
(I0
I0
I0
I255
tp1670
Rp1671
aV8
p1672
ag11
(I255
I60
I0
I255
tp1673
Rp1674
aV1
p1675
ag11
(I0
I0
I0
I255
tp1676
Rp1677
aV8
p1678
ag11
(I255
I0
I30
I255
tp1679
Rp1680
aV1
p1681
ag11
(I0
I0
I0
I255
tp1682
Rp1683
aV8
p1684
aasI4
(lp1685
I-1
aNasI5
(lp1686
I10
a(lp1687
I4
ag11
(I128
I64
I0
I255
tp1688
Rp1689
aV4
p1690
ag11
(I0
I0
I0
I255
tp1691
Rp1692
aV32
p1693
ag11
(I255
I0
I0
I255
tp1694
Rp1695
aV4
p1696
ag11
(I0
I0
I0
I255
tp1697
Rp1698
aV32
p1699
aasI6
(lp1700
I10
a(lp1701
I4
ag11
(I255
I0
I0
I255
tp1702
Rp1703
aV4
p1704
ag11
(I0
I0
I0
I255
tp1705
Rp1706
aV32
p1707
ag11
(I128
I30
I0
I255
tp1708
Rp1709
aV4
p1710
ag11
(I0
I0
I0
I255
tp1711
Rp1712
aV32
p1713
aasI7
(lp1714
I-1
aNasI8
(lp1715
I12
a(lp1716
I8
ag11
(I255
I0
I0
I255
tp1717
Rp1718
aV1
p1719
ag11
(I0
I0
I0
I255
tp1720
Rp1721
aV12
p1722
ag11
(I255
I30
I0
I255
tp1723
Rp1724
aV1
p1725
ag11
(I0
I0
I0
I255
tp1726
Rp1727
aV12
p1728
ag11
(I255
I60
I0
I255
tp1729
Rp1730
aV1
p1731
ag11
(I0
I0
I0
I255
tp1732
Rp1733
aV12
p1734
ag11
(I255
I0
I30
I255
tp1735
Rp1736
aV1
p1737
ag11
(I0
I0
I0
I255
tp1738
Rp1739
aV12
p1740
aasI9
(lp1741
I12
a(lp1742
I8
ag11
(I255
I0
I0
I255
tp1743
Rp1744
aV1
p1745
ag11
(I0
I0
I0
I255
tp1746
Rp1747
aV12
p1748
ag11
(I255
I30
I0
I255
tp1749
Rp1750
aV1
p1751
ag11
(I0
I0
I0
I255
tp1752
Rp1753
aV12
p1754
ag11
(I255
I60
I0
I255
tp1755
Rp1756
aV1
p1757
ag11
(I0
I0
I0
I255
tp1758
Rp1759
aV12
p1760
ag11
(I255
I0
I30
I255
tp1761
Rp1762
aV1
p1763
ag11
(I0
I0
I0
I255
tp1764
Rp1765
aV12
p1766
aasI10
(lp1767
I12
a(lp1768
I8
ag11
(I255
I0
I0
I255
tp1769
Rp1770
aV1
p1771
ag11
(I0
I0
I0
I255
tp1772
Rp1773
aV12
p1774
ag11
(I255
I30
I0
I255
tp1775
Rp1776
aV1
p1777
ag11
(I0
I0
I0
I255
tp1778
Rp1779
aV12
p1780
ag11
(I255
I60
I0
I255
tp1781
Rp1782
aV1
p1783
ag11
(I0
I0
I0
I255
tp1784
Rp1785
aV12
p1786
ag11
(I255
I0
I30
I255
tp1787
Rp1788
aV1
p1789
ag11
(I0
I0
I0
I255
tp1790
Rp1791
aV12
p1792
aasI11
(lp1793
I12
a(lp1794
I8
ag11
(I255
I0
I0
I255
tp1795
Rp1796
aV1
p1797
ag11
(I0
I0
I0
I255
tp1798
Rp1799
aV12
p1800
ag11
(I255
I30
I0
I255
tp1801
Rp1802
aV1
p1803
ag11
(I0
I0
I0
I255
tp1804
Rp1805
aV12
p1806
ag11
(I255
I60
I0
I255
tp1807
Rp1808
aV1
p1809
ag11
(I0
I0
I0
I255
tp1810
Rp1811
aV12
p1812
ag11
(I255
I0
I30
I255
tp1813
Rp1814
aV1
p1815
ag11
(I0
I0
I0
I255
tp1816
Rp1817
aV12
p1818
aassg35
V00:11 000ms
p1819
sba(ieffectgroup
EffectGroup
p1820
(dp1821
g3
(dp1822
I0
(lp1823
I11
a(lp1824
I6
ag11
(I255
I0
I0
I255
tp1825
Rp1826
aV1
p1827
ag11
(I0
I0
I255
I255
tp1828
Rp1829
aV1
p1830
ag11
(I0
I0
I0
I255
tp1831
Rp1832
aV8
p1833
ag11
(I175
I96
I96
I255
tp1834
Rp1835
aV1
p1836
ag11
(I0
I0
I0
I255
tp1837
Rp1838
aV8
p1839
ag11
(I0
I0
I0
I255
tp1840
Rp1841
aV1
p1842
aasI1
(lp1843
I11
a(lp1844
I6
ag11
(I255
I0
I0
I255
tp1845
Rp1846
aV1
p1847
ag11
(I0
I0
I255
I255
tp1848
Rp1849
aV1
p1850
ag11
(I0
I0
I0
I255
tp1851
Rp1852
aV8
p1853
ag11
(I175
I96
I96
I255
tp1854
Rp1855
aV1
p1856
ag11
(I0
I0
I0
I255
tp1857
Rp1858
aV8
p1859
ag11
(I0
I0
I0
I255
tp1860
Rp1861
aV1
p1862
aasI2
(lp1863
I11
a(lp1864
I6
ag11
(I255
I0
I0
I255
tp1865
Rp1866
aV1
p1867
ag11
(I0
I0
I255
I255
tp1868
Rp1869
aV1
p1870
ag11
(I0
I0
I0
I255
tp1871
Rp1872
aV8
p1873
ag11
(I175
I96
I96
I255
tp1874
Rp1875
aV1
p1876
ag11
(I0
I0
I0
I255
tp1877
Rp1878
aV8
p1879
ag11
(I0
I0
I0
I255
tp1880
Rp1881
aV1
p1882
aasI3
(lp1883
I11
a(lp1884
I6
ag11
(I255
I0
I0
I255
tp1885
Rp1886
aV1
p1887
ag11
(I0
I0
I255
I255
tp1888
Rp1889
aV1
p1890
ag11
(I0
I0
I0
I255
tp1891
Rp1892
aV8
p1893
ag11
(I175
I96
I96
I255
tp1894
Rp1895
aV1
p1896
ag11
(I0
I0
I0
I255
tp1897
Rp1898
aV8
p1899
ag11
(I0
I0
I0
I255
tp1900
Rp1901
aV1
p1902
aasI4
(lp1903
I-1
a(lp1904
asI5
(lp1905
I5
a(lp1906
g11
(I255
I0
I0
I255
tp1907
Rp1908
ag11
(I0
I0
I255
I255
tp1909
Rp1910
aV10
p1911
aV20
p1912
aV75
p1913
aasI6
(lp1914
I5
a(lp1915
g11
(I255
I0
I0
I255
tp1916
Rp1917
ag11
(I0
I0
I255
I255
tp1918
Rp1919
aV10
p1920
aV20
p1921
aV75
p1922
aasI7
(lp1923
I-1
a(lp1924
asI8
(lp1925
I11
a(lp1926
I6
ag11
(I255
I0
I0
I255
tp1927
Rp1928
aV1
p1929
ag11
(I0
I0
I255
I255
tp1930
Rp1931
aV1
p1932
ag11
(I0
I0
I0
I255
tp1933
Rp1934
aV8
p1935
ag11
(I175
I96
I96
I255
tp1936
Rp1937
aV1
p1938
ag11
(I0
I0
I0
I255
tp1939
Rp1940
aV8
p1941
ag11
(I0
I0
I0
I255
tp1942
Rp1943
aV1
p1944
aasI9
(lp1945
I11
a(lp1946
I6
ag11
(I255
I0
I0
I255
tp1947
Rp1948
aV1
p1949
ag11
(I0
I0
I255
I255
tp1950
Rp1951
aV1
p1952
ag11
(I0
I0
I0
I255
tp1953
Rp1954
aV8
p1955
ag11
(I175
I96
I96
I255
tp1956
Rp1957
aV1
p1958
ag11
(I0
I0
I0
I255
tp1959
Rp1960
aV8
p1961
ag11
(I0
I0
I0
I255
tp1962
Rp1963
aV1
p1964
aasI10
(lp1965
I11
a(lp1966
I6
ag11
(I255
I0
I0
I255
tp1967
Rp1968
aV1
p1969
ag11
(I0
I0
I255
I255
tp1970
Rp1971
aV1
p1972
ag11
(I0
I0
I0
I255
tp1973
Rp1974
aV8
p1975
ag11
(I175
I96
I96
I255
tp1976
Rp1977
aV1
p1978
ag11
(I0
I0
I0
I255
tp1979
Rp1980
aV8
p1981
ag11
(I0
I0
I0
I255
tp1982
Rp1983
aV1
p1984
aasI11
(lp1985
I11
a(lp1986
I6
ag11
(I255
I0
I0
I255
tp1987
Rp1988
aV1
p1989
ag11
(I0
I0
I255
I255
tp1990
Rp1991
aV1
p1992
ag11
(I0
I0
I0
I255
tp1993
Rp1994
aV8
p1995
ag11
(I175
I96
I96
I255
tp1996
Rp1997
aV1
p1998
ag11
(I0
I0
I0
I255
tp1999
Rp2000
aV8
p2001
ag11
(I0
I0
I0
I255
tp2002
Rp2003
aV1
p2004
aassg35
V00:12 000ms
p2005
sba(ieffectgroup
EffectGroup
p2006
(dp2007
g3
(dp2008
I0
(lp2009
I-1
aNasI1
(lp2010
I-1
aNasI2
(lp2011
I-1
aNasI3
(lp2012
I-1
aNasI4
(lp2013
I-1
aNasI5
(lp2014
I11
a(lp2015
I6
ag11
(I255
I255
I255
I255
tp2016
Rp2017
aV1
p2018
ag11
(I0
I255
I0
I255
tp2019
Rp2020
aV2
p2021
ag11
(I0
I0
I255
I255
tp2022
Rp2023
aV2
p2024
ag11
(I255
I0
I0
I255
tp2025
Rp2026
aV1
p2027
ag11
(I0
I0
I0
I255
tp2028
Rp2029
aV32
p2030
ag11
(I0
I0
I0
I255
tp2031
Rp2032
aV1
p2033
aasI6
(lp2034
I11
a(lp2035
I6
ag11
(I255
I255
I255
I255
tp2036
Rp2037
aV1
p2038
ag11
(I0
I255
I0
I255
tp2039
Rp2040
aV2
p2041
ag11
(I0
I0
I255
I255
tp2042
Rp2043
aV2
p2044
ag11
(I255
I0
I0
I255
tp2045
Rp2046
aV1
p2047
ag11
(I0
I0
I0
I255
tp2048
Rp2049
aV32
p2050
ag11
(I0
I0
I0
I255
tp2051
Rp2052
aV1
p2053
aasI7
(lp2054
I-1
aNasI8
(lp2055
I-1
aNasI9
(lp2056
I-1
aNasI10
(lp2057
I-1
aNasI11
(lp2058
I-1
aNassg35
V00:12 500ms
p2059
sba(ieffectgroup
EffectGroup
p2060
(dp2061
g3
(dp2062
I0
(lp2063
I9
a(lp2064
I3
ag11
(I255
I255
I255
I255
tp2065
Rp2066
aV1
p2067
ag11
(I255
I0
I0
I255
tp2068
Rp2069
aV1
p2070
ag11
(I0
I0
I0
I255
tp2071
Rp2072
aV12
p2073
aasI1
(lp2074
I9
a(lp2075
I3
ag11
(I255
I255
I255
I255
tp2076
Rp2077
aV1
p2078
ag11
(I255
I0
I0
I255
tp2079
Rp2080
aV1
p2081
ag11
(I0
I0
I0
I255
tp2082
Rp2083
aV12
p2084
aasI2
(lp2085
I9
a(lp2086
I3
ag11
(I255
I255
I255
I255
tp2087
Rp2088
aV1
p2089
ag11
(I255
I0
I0
I255
tp2090
Rp2091
aV1
p2092
ag11
(I0
I0
I0
I255
tp2093
Rp2094
aV12
p2095
aasI3
(lp2096
I9
a(lp2097
I3
ag11
(I255
I255
I255
I255
tp2098
Rp2099
aV1
p2100
ag11
(I255
I0
I0
I255
tp2101
Rp2102
aV1
p2103
ag11
(I0
I0
I0
I255
tp2104
Rp2105
aV12
p2106
aasI4
(lp2107
I-1
aNasI5
(lp2108
I10
a(lp2109
I4
ag11
(I64
I0
I128
I255
tp2110
Rp2111
aV6
p2112
ag11
(I0
I0
I0
I255
tp2113
Rp2114
aV32
p2115
ag11
(I0
I0
I255
I255
tp2116
Rp2117
aV6
p2118
ag11
(I0
I0
I0
I255
tp2119
Rp2120
aV32
p2121
aasI6
(lp2122
I10
a(lp2123
I4
ag11
(I64
I0
I128
I255
tp2124
Rp2125
aV6
p2126
ag11
(I0
I0
I0
I255
tp2127
Rp2128
aV32
p2129
ag11
(I0
I0
I255
I255
tp2130
Rp2131
aV6
p2132
ag11
(I0
I0
I0
I255
tp2133
Rp2134
aV32
p2135
aasI7
(lp2136
I-1
aNasI8
(lp2137
I9
a(lp2138
I3
ag11
(I255
I255
I255
I255
tp2139
Rp2140
aV1
p2141
ag11
(I255
I0
I0
I255
tp2142
Rp2143
aV1
p2144
ag11
(I0
I0
I0
I255
tp2145
Rp2146
aV12
p2147
aasI9
(lp2148
I9
a(lp2149
I3
ag11
(I255
I255
I255
I255
tp2150
Rp2151
aV1
p2152
ag11
(I255
I0
I0
I255
tp2153
Rp2154
aV1
p2155
ag11
(I0
I0
I0
I255
tp2156
Rp2157
aV12
p2158
aasI10
(lp2159
I9
a(lp2160
I3
ag11
(I255
I255
I255
I255
tp2161
Rp2162
aV1
p2163
ag11
(I255
I0
I0
I255
tp2164
Rp2165
aV1
p2166
ag11
(I0
I0
I0
I255
tp2167
Rp2168
aV12
p2169
aasI11
(lp2170
I9
a(lp2171
I3
ag11
(I255
I255
I255
I255
tp2172
Rp2173
aV1
p2174
ag11
(I255
I0
I0
I255
tp2175
Rp2176
aV1
p2177
ag11
(I0
I0
I0
I255
tp2178
Rp2179
aV12
p2180
aassg35
V00:12 600ms
p2181
sba(ieffectgroup
EffectGroup
p2182
(dp2183
g3
(dp2184
I0
(lp2185
I13
a(lp2186
I10
ag11
(I64
I0
I128
I255
tp2187
Rp2188
aV1
p2189
ag11
(I0
I255
I0
I255
tp2190
Rp2191
aV1
p2192
ag11
(I0
I0
I0
I255
tp2193
Rp2194
aV12
p2195
ag11
(I0
I255
I0
I255
tp2196
Rp2197
aV1
p2198
ag11
(I0
I0
I255
I255
tp2199
Rp2200
aV1
p2201
ag11
(I0
I0
I0
I255
tp2202
Rp2203
aV12
p2204
ag11
(I0
I0
I255
I255
tp2205
Rp2206
aV1
p2207
ag11
(I64
I0
I128
I255
tp2208
Rp2209
aV1
p2210
ag11
(I0
I0
I0
I255
tp2211
Rp2212
aV20
p2213
ag11
(I0
I0
I0
I255
tp2214
Rp2215
aV1
p2216
aasI1
(lp2217
I13
a(lp2218
I10
ag11
(I64
I0
I128
I255
tp2219
Rp2220
aV2
p2221
ag11
(I0
I255
I0
I255
tp2222
Rp2223
aV1
p2224
ag11
(I0
I0
I0
I255
tp2225
Rp2226
aV12
p2227
ag11
(I0
I255
I0
I255
tp2228
Rp2229
aV1
p2230
ag11
(I0
I0
I255
I255
tp2231
Rp2232
aV1
p2233
ag11
(I0
I0
I0
I255
tp2234
Rp2235
aV12
p2236
ag11
(I0
I0
I255
I255
tp2237
Rp2238
aV1
p2239
ag11
(I128
I0
I255
I255
tp2240
Rp2241
aV2
p2242
ag11
(I0
I0
I0
I255
tp2243
Rp2244
aV20
p2245
ag11
(I0
I0
I0
I255
tp2246
Rp2247
aV1
p2248
aasI2
(lp2249
I13
a(lp2250
I10
ag11
(I64
I0
I128
I255
tp2251
Rp2252
aV1
p2253
ag11
(I0
I255
I0
I255
tp2254
Rp2255
aV1
p2256
ag11
(I0
I0
I0
I255
tp2257
Rp2258
aV12
p2259
ag11
(I0
I255
I0
I255
tp2260
Rp2261
aV1
p2262
ag11
(I0
I0
I255
I255
tp2263
Rp2264
aV1
p2265
ag11
(I0
I0
I0
I255
tp2266
Rp2267
aV12
p2268
ag11
(I0
I0
I255
I255
tp2269
Rp2270
aV1
p2271
ag11
(I64
I0
I128
I255
tp2272
Rp2273
aV2
p2274
ag11
(I0
I0
I0
I255
tp2275
Rp2276
aV20
p2277
ag11
(I0
I0
I0
I255
tp2278
Rp2279
aV1
p2280
aasI3
(lp2281
I13
a(lp2282
I10
ag11
(I64
I0
I128
I255
tp2283
Rp2284
aV1
p2285
ag11
(I0
I255
I0
I255
tp2286
Rp2287
aV1
p2288
ag11
(I0
I0
I0
I255
tp2289
Rp2290
aV12
p2291
ag11
(I0
I255
I0
I255
tp2292
Rp2293
aV1
p2294
ag11
(I0
I0
I255
I255
tp2295
Rp2296
aV1
p2297
ag11
(I0
I0
I0
I255
tp2298
Rp2299
aV12
p2300
ag11
(I0
I0
I255
I255
tp2301
Rp2302
aV1
p2303
ag11
(I64
I0
I128
I255
tp2304
Rp2305
aV2
p2306
ag11
(I0
I0
I0
I255
tp2307
Rp2308
aV20
p2309
ag11
(I0
I0
I0
I255
tp2310
Rp2311
aV1
p2312
aasI4
(lp2313
I-1
a(lp2314
asI5
(lp2315
I10
a(lp2316
I4
ag11
(I0
I255
I0
I255
tp2317
Rp2318
aV32
p2319
ag11
(I0
I0
I0
I255
tp2320
Rp2321
aV32
p2322
ag11
(I0
I0
I255
I255
tp2323
Rp2324
aV32
p2325
ag11
(I0
I0
I0
I255
tp2326
Rp2327
aV32
p2328
aasI6
(lp2329
I10
a(lp2330
I4
ag11
(I0
I255
I0
I255
tp2331
Rp2332
aV32
p2333
ag11
(I0
I0
I0
I255
tp2334
Rp2335
aV32
p2336
ag11
(I0
I0
I255
I255
tp2337
Rp2338
aV32
p2339
ag11
(I0
I0
I0
I255
tp2340
Rp2341
aV32
p2342
aasI7
(lp2343
I-1
aNasI8
(lp2344
I13
a(lp2345
I10
ag11
(I64
I0
I128
I255
tp2346
Rp2347
aV1
p2348
ag11
(I0
I255
I0
I255
tp2349
Rp2350
aV1
p2351
ag11
(I0
I0
I0
I255
tp2352
Rp2353
aV12
p2354
ag11
(I0
I255
I0
I255
tp2355
Rp2356
aV1
p2357
ag11
(I0
I0
I255
I255
tp2358
Rp2359
aV1
p2360
ag11
(I0
I0
I0
I255
tp2361
Rp2362
aV12
p2363
ag11
(I0
I0
I255
I255
tp2364
Rp2365
aV1
p2366
ag11
(I64
I0
I128
I255
tp2367
Rp2368
aV2
p2369
ag11
(I0
I0
I0
I255
tp2370
Rp2371
aV20
p2372
ag11
(I0
I0
I0
I255
tp2373
Rp2374
aV1
p2375
aasI9
(lp2376
I13
a(lp2377
I10
ag11
(I64
I0
I128
I255
tp2378
Rp2379
aV1
p2380
ag11
(I0
I255
I0
I255
tp2381
Rp2382
aV1
p2383
ag11
(I0
I0
I0
I255
tp2384
Rp2385
aV12
p2386
ag11
(I0
I255
I0
I255
tp2387
Rp2388
aV1
p2389
ag11
(I0
I0
I255
I255
tp2390
Rp2391
aV1
p2392
ag11
(I0
I0
I0
I255
tp2393
Rp2394
aV12
p2395
ag11
(I0
I0
I255
I255
tp2396
Rp2397
aV1
p2398
ag11
(I64
I0
I128
I255
tp2399
Rp2400
aV2
p2401
ag11
(I0
I0
I0
I255
tp2402
Rp2403
aV20
p2404
ag11
(I0
I0
I0
I255
tp2405
Rp2406
aV1
p2407
aasI10
(lp2408
I13
a(lp2409
I10
ag11
(I64
I0
I128
I255
tp2410
Rp2411
aV1
p2412
ag11
(I0
I255
I0
I255
tp2413
Rp2414
aV1
p2415
ag11
(I0
I0
I0
I255
tp2416
Rp2417
aV12
p2418
ag11
(I0
I255
I0
I255
tp2419
Rp2420
aV1
p2421
ag11
(I0
I0
I255
I255
tp2422
Rp2423
aV1
p2424
ag11
(I0
I0
I0
I255
tp2425
Rp2426
aV12
p2427
ag11
(I0
I0
I255
I255
tp2428
Rp2429
aV1
p2430
ag11
(I64
I0
I128
I255
tp2431
Rp2432
aV2
p2433
ag11
(I0
I0
I0
I255
tp2434
Rp2435
aV20
p2436
ag11
(I0
I0
I0
I255
tp2437
Rp2438
aV1
p2439
aasI11
(lp2440
I13
a(lp2441
I10
ag11
(I64
I0
I128
I255
tp2442
Rp2443
aV1
p2444
ag11
(I0
I255
I0
I255
tp2445
Rp2446
aV1
p2447
ag11
(I0
I0
I0
I255
tp2448
Rp2449
aV12
p2450
ag11
(I0
I255
I0
I255
tp2451
Rp2452
aV1
p2453
ag11
(I0
I0
I255
I255
tp2454
Rp2455
aV1
p2456
ag11
(I0
I0
I0
I255
tp2457
Rp2458
aV12
p2459
ag11
(I0
I0
I255
I255
tp2460
Rp2461
aV1
p2462
ag11
(I64
I0
I128
I255
tp2463
Rp2464
aV2
p2465
ag11
(I0
I0
I0
I255
tp2466
Rp2467
aV20
p2468
ag11
(I0
I0
I0
I255
tp2469
Rp2470
aV1
p2471
aassg35
V00:13 000ms
p2472
sba(ieffectgroup
EffectGroup
p2473
(dp2474
g3
(dp2475
I0
(lp2476
I9
a(lp2477
I3
ag11
(I0
I0
I255
I255
tp2478
Rp2479
aV1
p2480
ag11
(I0
I255
I0
I255
tp2481
Rp2482
aV1
p2483
ag11
(I0
I0
I0
I255
tp2484
Rp2485
aV12
p2486
aasI1
(lp2487
I10
a(lp2488
I4
ag11
(I64
I0
I128
I255
tp2489
Rp2490
aV1
p2491
ag11
(I0
I0
I0
I255
tp2492
Rp2493
aV12
p2494
ag11
(I64
I0
I128
I255
tp2495
Rp2496
aV1
p2497
ag11
(I0
I0
I0
I255
tp2498
Rp2499
aV36
p2500
aasI2
(lp2501
I10
a(lp2502
I4
ag11
(I64
I0
I128
I255
tp2503
Rp2504
aV1
p2505
ag11
(I0
I0
I0
I255
tp2506
Rp2507
aV12
p2508
ag11
(I64
I0
I128
I255
tp2509
Rp2510
aV1
p2511
ag11
(I0
I0
I0
I255
tp2512
Rp2513
aV36
p2514
aasI3
(lp2515
I9
a(lp2516
I3
ag11
(I0
I0
I255
I255
tp2517
Rp2518
aV1
p2519
ag11
(I0
I255
I0
I255
tp2520
Rp2521
aV1
p2522
ag11
(I0
I0
I0
I255
tp2523
Rp2524
aV12
p2525
aasI4
(lp2526
I-1
aNasI5
(lp2527
I10
a(lp2528
I4
ag11
(I0
I255
I0
I255
tp2529
Rp2530
aV32
p2531
ag11
(I0
I0
I0
I255
tp2532
Rp2533
aV32
p2534
ag11
(I0
I0
I255
I255
tp2535
Rp2536
aV32
p2537
ag11
(I0
I0
I0
I255
tp2538
Rp2539
aV32
p2540
aasI6
(lp2541
I10
a(lp2542
I4
ag11
(I0
I255
I0
I255
tp2543
Rp2544
aV32
p2545
ag11
(I0
I0
I0
I255
tp2546
Rp2547
aV32
p2548
ag11
(I0
I0
I255
I255
tp2549
Rp2550
aV32
p2551
ag11
(I0
I0
I0
I255
tp2552
Rp2553
aV32
p2554
aasI7
(lp2555
I-1
aNasI8
(lp2556
I9
a(lp2557
I3
ag11
(I0
I0
I255
I255
tp2558
Rp2559
aV1
p2560
ag11
(I0
I255
I0
I255
tp2561
Rp2562
aV1
p2563
ag11
(I0
I0
I0
I255
tp2564
Rp2565
aV12
p2566
aasI9
(lp2567
I10
a(lp2568
I4
ag11
(I64
I0
I128
I255
tp2569
Rp2570
aV1
p2571
ag11
(I0
I0
I0
I255
tp2572
Rp2573
aV12
p2574
ag11
(I64
I0
I128
I255
tp2575
Rp2576
aV1
p2577
ag11
(I0
I0
I0
I255
tp2578
Rp2579
aV36
p2580
aasI10
(lp2581
I10
a(lp2582
I4
ag11
(I64
I0
I128
I255
tp2583
Rp2584
aV1
p2585
ag11
(I0
I0
I0
I255
tp2586
Rp2587
aV12
p2588
ag11
(I64
I0
I128
I255
tp2589
Rp2590
aV1
p2591
ag11
(I0
I0
I0
I255
tp2592
Rp2593
aV36
p2594
aasI11
(lp2595
I9
a(lp2596
I3
ag11
(I0
I0
I255
I255
tp2597
Rp2598
aV1
p2599
ag11
(I0
I255
I0
I255
tp2600
Rp2601
aV1
p2602
ag11
(I0
I0
I0
I255
tp2603
Rp2604
aV12
p2605
aassg35
V00:13 500ms
p2606
sba(ieffectgroup
EffectGroup
p2607
(dp2608
g3
(dp2609
I0
(lp2610
I10
a(lp2611
I4
ag11
(I0
I0
I255
I255
tp2612
Rp2613
aV1
p2614
ag11
(I0
I0
I0
I255
tp2615
Rp2616
aV8
p2617
ag11
(I64
I0
I128
I255
tp2618
Rp2619
aV1
p2620
ag11
(I0
I0
I0
I255
tp2621
Rp2622
aV17
p2623
aasI1
(lp2624
I8
a(lp2625
I2
ag11
(I64
I0
I128
I255
tp2626
Rp2627
aV1
p2628
ag11
(I0
I0
I0
I255
tp2629
Rp2630
aV8
p2631
aasI2
(lp2632
I11
a(lp2633
I6
ag11
(I0
I0
I255
I255
tp2634
Rp2635
aV1
p2636
ag11
(I0
I0
I0
I255
tp2637
Rp2638
aV8
p2639
ag11
(I64
I0
I128
I255
tp2640
Rp2641
aV1
p2642
ag11
(I0
I0
I0
I255
tp2643
Rp2644
aV8
p2645
ag11
(I255
I255
I255
I255
tp2646
Rp2647
aV1
p2648
ag11
(I0
I0
I0
I255
tp2649
Rp2650
aV8
p2651
aasI3
(lp2652
I10
a(lp2653
I4
ag11
(I64
I0
I128
I255
tp2654
Rp2655
aV1
p2656
ag11
(I0
I0
I0
I255
tp2657
Rp2658
aV8
p2659
ag11
(I0
I0
I255
I255
tp2660
Rp2661
aV1
p2662
ag11
(I0
I0
I0
I255
tp2663
Rp2664
aV17
p2665
aasI4
(lp2666
I-1
aNasI5
(lp2667
I3
a(lp2668
g11
(I30
I0
I60
I255
tp2669
Rp2670
aV16
p2671
aV16
p2672
aasI6
(lp2673
I3
a(lp2674
g11
(I30
I0
I60
I255
tp2675
Rp2676
aV16
p2677
aV16
p2678
aasI7
(lp2679
I-1
aNasI8
(lp2680
I10
a(lp2681
I4
ag11
(I64
I0
I128
I255
tp2682
Rp2683
aV1
p2684
ag11
(I0
I0
I0
I255
tp2685
Rp2686
aV8
p2687
ag11
(I0
I0
I255
I255
tp2688
Rp2689
aV1
p2690
ag11
(I0
I0
I0
I255
tp2691
Rp2692
aV17
p2693
aasI9
(lp2694
I11
a(lp2695
I6
ag11
(I0
I0
I255
I255
tp2696
Rp2697
aV1
p2698
ag11
(I0
I0
I0
I255
tp2699
Rp2700
aV8
p2701
ag11
(I64
I0
I128
I255
tp2702
Rp2703
aV1
p2704
ag11
(I0
I0
I0
I255
tp2705
Rp2706
aV8
p2707
ag11
(I255
I255
I255
I255
tp2708
Rp2709
aV1
p2710
ag11
(I0
I0
I0
I255
tp2711
Rp2712
aV8
p2713
aasI10
(lp2714
I8
a(lp2715
I2
ag11
(I64
I0
I128
I255
tp2716
Rp2717
aV1
p2718
ag11
(I0
I0
I0
I255
tp2719
Rp2720
aV8
p2721
aasI11
(lp2722
I10
a(lp2723
I4
ag11
(I0
I0
I255
I255
tp2724
Rp2725
aV1
p2726
ag11
(I0
I0
I0
I255
tp2727
Rp2728
aV8
p2729
ag11
(I64
I0
I128
I255
tp2730
Rp2731
aV1
p2732
ag11
(I0
I0
I0
I255
tp2733
Rp2734
aV17
p2735
aassg35
V00:14 000ms
p2736
sba(ieffectgroup
EffectGroup
p2737
(dp2738
g3
(dp2739
I0
(lp2740
I12
a(lp2741
I8
ag11
(I255
I0
I0
I255
tp2742
Rp2743
aV1
p2744
ag11
(I0
I1
I0
I255
tp2745
Rp2746
aV16
p2747
ag11
(I0
I0
I255
I255
tp2748
Rp2749
aV1
p2750
ag11
(I1
I1
I1
I255
tp2751
Rp2752
aV16
p2753
ag11
(I0
I255
I0
I255
tp2754
Rp2755
aV1
p2756
ag11
(I1
I0
I0
I255
tp2757
Rp2758
aV16
p2759
ag11
(I255
I255
I255
I255
tp2760
Rp2761
aV1
p2762
ag11
(I0
I0
I1
I255
tp2763
Rp2764
aV16
p2765
aasI1
(lp2766
I12
a(lp2767
I8
ag11
(I255
I0
I0
I255
tp2768
Rp2769
aV1
p2770
ag11
(I0
I1
I0
I255
tp2771
Rp2772
aV16
p2773
ag11
(I0
I0
I255
I255
tp2774
Rp2775
aV1
p2776
ag11
(I1
I1
I1
I255
tp2777
Rp2778
aV16
p2779
ag11
(I0
I255
I0
I255
tp2780
Rp2781
aV1
p2782
ag11
(I1
I0
I0
I255
tp2783
Rp2784
aV16
p2785
ag11
(I255
I255
I255
I255
tp2786
Rp2787
aV1
p2788
ag11
(I0
I0
I1
I255
tp2789
Rp2790
aV16
p2791
aasI2
(lp2792
I12
a(lp2793
I8
ag11
(I255
I0
I0
I255
tp2794
Rp2795
aV1
p2796
ag11
(I0
I1
I0
I255
tp2797
Rp2798
aV16
p2799
ag11
(I0
I0
I255
I255
tp2800
Rp2801
aV1
p2802
ag11
(I1
I1
I1
I255
tp2803
Rp2804
aV16
p2805
ag11
(I0
I255
I0
I255
tp2806
Rp2807
aV1
p2808
ag11
(I1
I0
I0
I255
tp2809
Rp2810
aV16
p2811
ag11
(I255
I255
I255
I255
tp2812
Rp2813
aV1
p2814
ag11
(I0
I0
I1
I255
tp2815
Rp2816
aV16
p2817
aasI3
(lp2818
I12
a(lp2819
I8
ag11
(I255
I0
I0
I255
tp2820
Rp2821
aV1
p2822
ag11
(I0
I1
I0
I255
tp2823
Rp2824
aV16
p2825
ag11
(I0
I0
I255
I255
tp2826
Rp2827
aV1
p2828
ag11
(I1
I1
I1
I255
tp2829
Rp2830
aV16
p2831
ag11
(I0
I255
I0
I255
tp2832
Rp2833
aV1
p2834
ag11
(I1
I0
I0
I255
tp2835
Rp2836
aV16
p2837
ag11
(I255
I255
I255
I255
tp2838
Rp2839
aV1
p2840
ag11
(I0
I0
I1
I255
tp2841
Rp2842
aV16
p2843
aasI4
(lp2844
I12
a(lp2845
I8
ag11
(I255
I0
I0
I255
tp2846
Rp2847
aV1
p2848
ag11
(I0
I1
I0
I255
tp2849
Rp2850
aV16
p2851
ag11
(I0
I0
I255
I255
tp2852
Rp2853
aV1
p2854
ag11
(I1
I1
I1
I255
tp2855
Rp2856
aV16
p2857
ag11
(I0
I255
I0
I255
tp2858
Rp2859
aV1
p2860
ag11
(I1
I0
I0
I255
tp2861
Rp2862
aV16
p2863
ag11
(I255
I255
I255
I255
tp2864
Rp2865
aV1
p2866
ag11
(I0
I0
I1
I255
tp2867
Rp2868
aV16
p2869
aasI5
(lp2870
I-1
a(lp2871
asI6
(lp2872
I-1
a(lp2873
asI7
(lp2874
I-1
aNasI8
(lp2875
I-1
aNasI9
(lp2876
I-1
aNasI10
(lp2877
I-1
aNasI11
(lp2878
I-1
aNassg35
V00:15 000ms
p2879
sba(ieffectgroup
EffectGroup
p2880
(dp2881
g3
(dp2882
I0
(lp2883
I1
a(lp2884
g11
(I0
I0
I0
I255
tp2885
Rp2886
aasI1
(lp2887
I-1
aNasI2
(lp2888
I-1
aNasI3
(lp2889
I-1
aNasI4
(lp2890
I-1
aNasI5
(lp2891
I-1
aNasI6
(lp2892
I-1
aNasI7
(lp2893
I-1
aNasI8
(lp2894
I-1
aNasI9
(lp2895
I-1
aNasI10
(lp2896
I-1
aNasI11
(lp2897
I-1
aNassg35
V00:16 000ms
p2898
sba.