(lp0
(ieffectgroup
EffectGroup
p1
(dp2
S'm_effects'
p3
(dp4
I0
(lp5
I11
a(lp6
I6
acwx._gdi
Colour
p7
(I60
I0
I0
I255
tp8
Rp9
aV1
p10
ag7
(I0
I0
I0
I255
tp11
Rp12
aV5
p13
ag7
(I60
I0
I0
I255
tp14
Rp15
aV1
p16
ag7
(I0
I0
I0
I255
tp17
Rp18
aV5
p19
ag7
(I0
I0
I0
I255
tp20
Rp21
aV1
p22
ag7
(I60
I30
I0
I255
tp23
Rp24
aV10
p25
aasI1
(lp26
I10
a(lp27
I4
ag7
(I60
I0
I0
I255
tp28
Rp29
aV1
p30
ag7
(I0
I0
I0
I255
tp31
Rp32
aV5
p33
ag7
(I60
I0
I0
I255
tp34
Rp35
aV1
p36
ag7
(I0
I0
I0
I255
tp37
Rp38
aV5
p39
aasI2
(lp40
I11
a(lp41
I6
ag7
(I60
I0
I0
I255
tp42
Rp43
aV1
p44
ag7
(I0
I0
I0
I255
tp45
Rp46
aV5
p47
ag7
(I60
I0
I0
I255
tp48
Rp49
aV1
p50
ag7
(I0
I0
I0
I255
tp51
Rp52
aV5
p53
ag7
(I60
I30
I0
I255
tp54
Rp55
aV1
p56
ag7
(I0
I0
I0
I255
tp57
Rp58
aV10
p59
aasI3
(lp60
I10
a(lp61
I4
ag7
(I60
I0
I0
I255
tp62
Rp63
aV1
p64
ag7
(I0
I0
I0
I255
tp65
Rp66
aV5
p67
ag7
(I60
I0
I0
I255
tp68
Rp69
aV1
p70
ag7
(I0
I0
I0
I255
tp71
Rp72
aV5
p73
aasI4
(lp74
I-1
a(lp75
asI5
(lp76
I-1
aNasI6
(lp77
I11
a(lp78
I6
ag7
(I255
I0
I90
I255
tp79
Rp80
aV1
p81
ag7
(I0
I0
I0
I255
tp82
Rp83
aV1
p84
ag7
(I0
I90
I120
I255
tp85
Rp86
aV1
p87
ag7
(I0
I0
I0
I255
tp88
Rp89
aV1
p90
ag7
(I255
I0
I90
I255
tp91
Rp92
aV1
p93
ag7
(I0
I0
I0
I255
tp94
Rp95
aV10
p96
aasI7
(lp97
I11
a(lp98
I6
ag7
(I0
I0
I120
I255
tp99
Rp100
aV1
p101
ag7
(I0
I0
I0
I255
tp102
Rp103
aV1
p104
ag7
(I255
I0
I90
I255
tp105
Rp106
aV1
p107
ag7
(I0
I0
I0
I255
tp108
Rp109
aV1
p110
ag7
(I0
I0
I120
I255
tp111
Rp112
aV1
p113
ag7
(I0
I0
I0
I255
tp114
Rp115
aV10
p116
aasI8
(lp117
I11
a(lp118
I6
ag7
(I0
I0
I120
I255
tp119
Rp120
aV1
p121
ag7
(I0
I0
I0
I255
tp122
Rp123
aV1
p124
ag7
(I255
I0
I90
I255
tp125
Rp126
aV1
p127
ag7
(I0
I0
I0
I255
tp128
Rp129
aV1
p130
ag7
(I0
I0
I120
I255
tp131
Rp132
aV1
p133
ag7
(I0
I0
I0
I255
tp134
Rp135
aV10
p136
aasI9
(lp137
I14
a(lp138
I12
ag7
(I0
I90
I120
I255
tp139
Rp140
aV1
p141
ag7
(I0
I0
I0
I255
tp142
Rp143
aV1
p144
ag7
(I255
I0
I90
I255
tp145
Rp146
aV1
p147
ag7
(I0
I0
I0
I255
tp148
Rp149
aV1
p150
ag7
(I0
I0
I120
I255
tp151
Rp152
aV1
p153
ag7
(I0
I0
I0
I255
tp154
Rp155
aV10
p156
ag7
(I0
I0
I120
I255
tp157
Rp158
aV1
p159
ag7
(I0
I0
I0
I255
tp160
Rp161
aV1
p162
ag7
(I255
I0
I90
I255
tp163
Rp164
aV1
p165
ag7
(I0
I0
I0
I255
tp166
Rp167
aV1
p168
ag7
(I0
I90
I120
I255
tp169
Rp170
aV1
p171
ag7
(I0
I0
I0
I255
tp172
Rp173
aV10
p174
aassS'm_time'
p175
V00:00 000ms
p176
sba.