(lp0
(ieffectgroup
EffectGroup
p1
(dp2
S'm_effects'
p3
(dp4
I0
(lp5
I-1
aNasI1
(lp6
I-1
aNasI2
(lp7
I-1
aNasI3
(lp8
I-1
aNasI4
(lp9
I-1
aNasI5
(lp10
I-1
aNasI6
(lp11
I-1
aNasI7
(lp12
I10
a(lp13
I4
acwx._gdi
Colour
p14
(I0
I255
I255
I255
tp15
Rp16
aV4
p17
ag14
(I0
I0
I0
I255
tp18
Rp19
aV16
p20
ag14
(I128
I0
I255
I255
tp21
Rp22
aV4
p23
ag14
(I0
I0
I0
I255
tp24
Rp25
aV16
p26
aasI8
(lp27
I10
a(lp28
I4
ag14
(I0
I0
I255
I255
tp29
Rp30
aV1
p31
ag14
(I0
I0
I0
I255
tp32
Rp33
aV1
p34
ag14
(I0
I255
I0
I255
tp35
Rp36
aV1
p37
ag14
(I0
I0
I0
I255
tp38
Rp39
aV1
p40
aasI9
(lp41
I10
a(lp42
I4
ag14
(I0
I0
I255
I255
tp43
Rp44
aV1
p45
ag14
(I0
I0
I0
I255
tp46
Rp47
aV1
p48
ag14
(I0
I255
I0
I255
tp49
Rp50
aV1
p51
ag14
(I0
I0
I0
I255
tp52
Rp53
aV1
p54
aasI10
(lp55
I10
a(lp56
I4
ag14
(I0
I0
I255
I255
tp57
Rp58
aV1
p59
ag14
(I0
I0
I0
I255
tp60
Rp61
aV1
p62
ag14
(I0
I255
I0
I255
tp63
Rp64
aV1
p65
ag14
(I0
I0
I0
I255
tp66
Rp67
aV1
p68
aasI11
(lp69
I10
a(lp70
I4
ag14
(I0
I0
I255
I255
tp71
Rp72
aV1
p73
ag14
(I0
I0
I0
I255
tp74
Rp75
aV1
p76
ag14
(I0
I255
I0
I255
tp77
Rp78
aV1
p79
ag14
(I0
I0
I0
I255
tp80
Rp81
aV1
p82
aassS'm_time'
p83
V00:01 200ms
p84
sba(ieffectgroup
EffectGroup
p85
(dp86
g3
(dp87
I0
(lp88
I-1
a(lp89
asI1
(lp90
I-1
aNasI2
(lp91
I-1
a(lp92
asI3
(lp93
I-1
a(lp94
asI4
(lp95
I-1
a(lp96
asI5
(lp97
I-1
a(lp98
asI6
(lp99
I-1
a(lp100
asI7
(lp101
I-1
a(lp102
asI8
(lp103
I1
a(lp104
g14
(I0
I0
I0
I255
tp105
Rp106
aasI9
(lp107
I-1
a(lp108
asI10
(lp109
I-1
aNasI11
(lp110
I-1
a(lp111
assg83
V00:01 250ms
p112
sba(ieffectgroup
EffectGroup
p113
(dp114
g3
(dp115
I0
(lp116
I-1
aNasI1
(lp117
I-1
aNasI2
(lp118
I-1
aNasI3
(lp119
I-1
aNasI4
(lp120
I-1
aNasI5
(lp121
I-1
aNasI6
(lp122
I-1
aNasI7
(lp123
I10
a(lp124
I4
ag14
(I255
I0
I0
I255
tp125
Rp126
aV4
p127
ag14
(I0
I0
I0
I255
tp128
Rp129
aV16
p130
ag14
(I0
I0
I255
I255
tp131
Rp132
aV4
p133
ag14
(I0
I0
I0
I255
tp134
Rp135
aV16
p136
aasI8
(lp137
I11
a(lp138
I6
ag14
(I255
I0
I0
I255
tp139
Rp140
aV1
p141
ag14
(I0
I0
I0
I255
tp142
Rp143
aV1
p144
ag14
(I255
I60
I0
I255
tp145
Rp146
aV1
p147
ag14
(I0
I0
I0
I255
tp148
Rp149
aV1
p150
ag14
(I128
I0
I255
I255
tp151
Rp152
aV1
p153
ag14
(I0
I0
I0
I255
tp154
Rp155
aV1
p156
aasI9
(lp157
I11
a(lp158
I6
ag14
(I255
I0
I0
I255
tp159
Rp160
aV1
p161
ag14
(I0
I0
I0
I255
tp162
Rp163
aV1
p164
ag14
(I255
I60
I0
I255
tp165
Rp166
aV1
p167
ag14
(I0
I0
I0
I255
tp168
Rp169
aV1
p170
ag14
(I128
I0
I255
I255
tp171
Rp172
aV1
p173
ag14
(I0
I0
I0
I255
tp174
Rp175
aV1
p176
aasI10
(lp177
I11
a(lp178
I6
ag14
(I255
I0
I0
I255
tp179
Rp180
aV1
p181
ag14
(I0
I0
I0
I255
tp182
Rp183
aV1
p184
ag14
(I255
I60
I0
I255
tp185
Rp186
aV1
p187
ag14
(I0
I0
I0
I255
tp188
Rp189
aV1
p190
ag14
(I128
I0
I255
I255
tp191
Rp192
aV1
p193
ag14
(I0
I0
I0
I255
tp194
Rp195
aV1
p196
aasI11
(lp197
I11
a(lp198
I6
ag14
(I255
I0
I0
I255
tp199
Rp200
aV1
p201
ag14
(I0
I0
I0
I255
tp202
Rp203
aV1
p204
ag14
(I255
I60
I0
I255
tp205
Rp206
aV1
p207
ag14
(I0
I0
I0
I255
tp208
Rp209
aV1
p210
ag14
(I128
I0
I255
I255
tp211
Rp212
aV1
p213
ag14
(I0
I0
I0
I255
tp214
Rp215
aV1
p216
aassg83
V00:01 260ms
p217
sba(ieffectgroup
EffectGroup
p218
(dp219
g3
(dp220
I0
(lp221
I-1
aNasI1
(lp222
I-1
aNasI2
(lp223
I-1
aNasI3
(lp224
I-1
aNasI4
(lp225
I-1
aNasI5
(lp226
I-1
aNasI6
(lp227
I-1
aNasI7
(lp228
I10
a(lp229
I4
ag14
(I255
I0
I0
I255
tp230
Rp231
aV1
p232
ag14
(I0
I0
I0
I255
tp233
Rp234
aV8
p235
ag14
(I0
I0
I255
I255
tp236
Rp237
aV1
p238
ag14
(I0
I0
I0
I255
tp239
Rp240
aV8
p241
aasI8
(lp242
I9
a(lp243
I3
ag14
(I255
I255
I255
I255
tp244
Rp245
aV1
p246
ag14
(I128
I0
I255
I255
tp247
Rp248
aV1
p249
ag14
(I0
I0
I0
I255
tp250
Rp251
aV1
p252
aasI9
(lp253
I9
a(lp254
I3
ag14
(I255
I255
I255
I255
tp255
Rp256
aV1
p257
ag14
(I128
I0
I255
I255
tp258
Rp259
aV1
p260
ag14
(I0
I0
I0
I255
tp261
Rp262
aV1
p263
aasI10
(lp264
I9
a(lp265
I3
ag14
(I255
I255
I255
I255
tp266
Rp267
aV1
p268
ag14
(I128
I0
I255
I255
tp269
Rp270
aV1
p271
ag14
(I0
I0
I0
I255
tp272
Rp273
aV1
p274
aasI11
(lp275
I9
a(lp276
I3
ag14
(I255
I255
I255
I255
tp277
Rp278
aV1
p279
ag14
(I128
I0
I255
I255
tp280
Rp281
aV1
p282
ag14
(I0
I0
I0
I255
tp283
Rp284
aV1
p285
aassg83
V00:01 270ms
p286
sba(ieffectgroup
EffectGroup
p287
(dp288
g3
(dp289
I0
(lp290
I-1
aNasI1
(lp291
I-1
aNasI2
(lp292
I-1
aNasI3
(lp293
I-1
aNasI4
(lp294
I-1
aNasI5
(lp295
I-1
aNasI6
(lp296
I-1
a(lp297
asI7
(lp298
I8
a(lp299
I2
ag14
(I255
I255
I255
I255
tp300
Rp301
aV4
p302
ag14
(I0
I0
I0
I255
tp303
Rp304
aV16
p305
aasI8
(lp306
I-1
aNasI9
(lp307
I-1
aNasI10
(lp308
I-1
aNasI11
(lp309
I-1
aNassg83
V00:01 300ms
p310
sba(ieffectgroup
EffectGroup
p311
(dp312
g3
(dp313
I0
(lp314
I-1
aNasI1
(lp315
I-1
aNasI2
(lp316
I-1
aNasI3
(lp317
I-1
aNasI4
(lp318
I-1
aNasI5
(lp319
I-1
aNasI6
(lp320
I-1
aNasI7
(lp321
I-1
aNasI8
(lp322
I-1
aNasI9
(lp323
I-1
aNasI10
(lp324
I-1
aNasI11
(lp325
I3
a(lp326
g14
(I0
I255
I255
I255
tp327
Rp328
aV1
p329
aV8
p330
aassg83
V00:01 400ms
p331
sba(ieffectgroup
EffectGroup
p332
(dp333
g3
(dp334
I0
(lp335
I-1
aNasI1
(lp336
I-1
aNasI2
(lp337
I-1
aNasI3
(lp338
I-1
aNasI4
(lp339
I-1
aNasI5
(lp340
I-1
aNasI6
(lp341
I-1
aNasI7
(lp342
I-1
aNasI8
(lp343
I1
a(lp344
g14
(I0
I255
I0
I255
tp345
Rp346
aasI9
(lp347
I-1
aNasI10
(lp348
I-1
aNasI11
(lp349
I-1
aNassg83
V00:01 450ms
p350
sba(ieffectgroup
EffectGroup
p351
(dp352
g3
(dp353
I0
(lp354
I-1
aNasI1
(lp355
I-1
aNasI2
(lp356
I-1
aNasI3
(lp357
I-1
aNasI4
(lp358
I-1
aNasI5
(lp359
I-1
aNasI6
(lp360
I-1
aNasI7
(lp361
I-1
aNasI8
(lp362
I8
a(lp363
I2
ag14
(I0
I255
I0
I255
tp364
Rp365
aV1
p366
ag14
(I0
I0
I0
I255
tp367
Rp368
aV1
p369
aasI9
(lp370
I-1
aNasI10
(lp371
I-1
aNasI11
(lp372
I-1
aNassg83
V00:01 500ms
p373
sba(ieffectgroup
EffectGroup
p374
(dp375
g3
(dp376
I0
(lp377
I-1
aNasI1
(lp378
I-1
aNasI2
(lp379
I-1
aNasI3
(lp380
I-1
aNasI4
(lp381
I-1
aNasI5
(lp382
I-1
aNasI6
(lp383
I-1
aNasI7
(lp384
I-1
aNasI8
(lp385
I8
a(lp386
I2
ag14
(I0
I255
I0
I255
tp387
Rp388
aV1
p389
ag14
(I0
I0
I0
I255
tp390
Rp391
aV4
p392
aasI9
(lp393
I-1
aNasI10
(lp394
I-1
aNasI11
(lp395
I-1
aNassg83
V00:01 600ms
p396
sba(ieffectgroup
EffectGroup
p397
(dp398
g3
(dp399
I0
(lp400
I-1
aNasI1
(lp401
I-1
aNasI2
(lp402
I-1
aNasI3
(lp403
I-1
aNasI4
(lp404
I-1
aNasI5
(lp405
I-1
aNasI6
(lp406
I-1
aNasI7
(lp407
I-1
aNasI8
(lp408
I8
a(lp409
I2
ag14
(I0
I255
I0
I255
tp410
Rp411
aV1
p412
ag14
(I0
I0
I0
I255
tp413
Rp414
aV8
p415
aasI9
(lp416
I-1
aNasI10
(lp417
I-1
aNasI11
(lp418
I-1
aNassg83
V00:01 700ms
p419
sba(ieffectgroup
EffectGroup
p420
(dp421
g3
(dp422
I0
(lp423
I-1
aNasI1
(lp424
I-1
aNasI2
(lp425
I-1
aNasI3
(lp426
I-1
aNasI4
(lp427
I-1
aNasI5
(lp428
I-1
aNasI6
(lp429
I-1
aNasI7
(lp430
I-1
aNasI8
(lp431
I8
a(lp432
I2
ag14
(I0
I255
I0
I255
tp433
Rp434
aV1
p435
ag14
(I0
I0
I0
I255
tp436
Rp437
aV16
p438
aasI9
(lp439
I-1
aNasI10
(lp440
I-1
aNasI11
(lp441
I-1
aNassg83
V00:01 800ms
p442
sba(ieffectgroup
EffectGroup
p443
(dp444
g3
(dp445
I0
(lp446
I-1
aNasI1
(lp447
I-1
aNasI2
(lp448
I-1
aNasI3
(lp449
I-1
aNasI4
(lp450
I-1
aNasI5
(lp451
I-1
aNasI6
(lp452
I-1
aNasI7
(lp453
I-1
aNasI8
(lp454
I8
a(lp455
I2
ag14
(I0
I255
I0
I255
tp456
Rp457
aV4
p458
ag14
(I0
I0
I0
I255
tp459
Rp460
aV8
p461
aasI9
(lp462
I-1
aNasI10
(lp463
I-1
aNasI11
(lp464
I-1
aNassg83
V00:01 900ms
p465
sba(ieffectgroup
EffectGroup
p466
(dp467
g3
(dp468
I0
(lp469
I-1
aNasI1
(lp470
I-1
aNasI2
(lp471
I-1
aNasI3
(lp472
I-1
aNasI4
(lp473
I-1
aNasI5
(lp474
I-1
aNasI6
(lp475
I-1
aNasI7
(lp476
I-1
aNasI8
(lp477
I8
a(lp478
I2
ag14
(I0
I255
I0
I255
tp479
Rp480
aV8
p481
ag14
(I0
I0
I0
I255
tp482
Rp483
aV8
p484
aasI9
(lp485
I-1
aNasI10
(lp486
I-1
aNasI11
(lp487
I-1
aNassg83
V00:02 100ms
p488
sba(ieffectgroup
EffectGroup
p489
(dp490
g3
(dp491
I0
(lp492
I-1
aNasI1
(lp493
I-1
aNasI2
(lp494
I-1
aNasI3
(lp495
I-1
aNasI4
(lp496
I-1
aNasI5
(lp497
I-1
aNasI6
(lp498
I-1
aNasI7
(lp499
I-1
aNasI8
(lp500
I8
a(lp501
I2
ag14
(I0
I255
I0
I255
tp502
Rp503
aV16
p504
ag14
(I0
I0
I0
I255
tp505
Rp506
aV8
p507
aasI9
(lp508
I-1
aNasI10
(lp509
I-1
aNasI11
(lp510
I-1
aNassg83
V00:02 200ms
p511
sba(ieffectgroup
EffectGroup
p512
(dp513
g3
(dp514
I0
(lp515
I-1
aNasI1
(lp516
I-1
aNasI2
(lp517
I-1
aNasI3
(lp518
I-1
aNasI4
(lp519
I-1
aNasI5
(lp520
I-1
aNasI6
(lp521
I-1
aNasI7
(lp522
I-1
aNasI8
(lp523
I8
a(lp524
I2
ag14
(I0
I255
I0
I255
tp525
Rp526
aV1
p527
ag14
(I0
I0
I0
I255
tp528
Rp529
aV1
p530
aasI9
(lp531
I-1
aNasI10
(lp532
I-1
aNasI11
(lp533
I-1
aNassg83
V00:02 300ms
p534
sba(ieffectgroup
EffectGroup
p535
(dp536
g3
(dp537
I0
(lp538
I-1
aNasI1
(lp539
I-1
aNasI2
(lp540
I-1
aNasI3
(lp541
I-1
aNasI4
(lp542
I-1
aNasI5
(lp543
I-1
aNasI6
(lp544
I-1
aNasI7
(lp545
I-1
aNasI8
(lp546
I10
a(lp547
I4
ag14
(I0
I255
I0
I255
tp548
Rp549
aV1
p550
ag14
(I0
I0
I0
I255
tp551
Rp552
aV1
p553
ag14
(I0
I0
I255
I255
tp554
Rp555
aV1
p556
ag14
(I0
I0
I0
I255
tp557
Rp558
aV1
p559
aasI9
(lp560
I-1
aNasI10
(lp561
I-1
aNasI11
(lp562
I-1
aNassg83
V00:02 400ms
p563
sba(ieffectgroup
EffectGroup
p564
(dp565
g3
(dp566
I0
(lp567
I-1
aNasI1
(lp568
I-1
aNasI2
(lp569
I-1
aNasI3
(lp570
I-1
aNasI4
(lp571
I-1
aNasI5
(lp572
I-1
aNasI6
(lp573
I-1
aNasI7
(lp574
I-1
aNasI8
(lp575
I11
a(lp576
I6
ag14
(I0
I255
I0
I255
tp577
Rp578
aV1
p579
ag14
(I0
I0
I0
I255
tp580
Rp581
aV1
p582
ag14
(I0
I0
I255
I255
tp583
Rp584
aV1
p585
ag14
(I0
I0
I0
I255
tp586
Rp587
aV1
p588
ag14
(I255
I255
I255
I255
tp589
Rp590
aV1
p591
ag14
(I0
I0
I0
I255
tp592
Rp593
aV1
p594
aasI9
(lp595
I-1
aNasI10
(lp596
I-1
aNasI11
(lp597
I-1
aNassg83
V00:02 500ms
p598
sba(ieffectgroup
EffectGroup
p599
(dp600
g3
(dp601
I0
(lp602
I-1
aNasI1
(lp603
I-1
aNasI2
(lp604
I-1
aNasI3
(lp605
I-1
aNasI4
(lp606
I-1
aNasI5
(lp607
I-1
aNasI6
(lp608
I-1
aNasI7
(lp609
I-1
aNasI8
(lp610
I11
a(lp611
I6
ag14
(I0
I255
I0
I255
tp612
Rp613
aV1
p614
ag14
(I0
I0
I0
I255
tp615
Rp616
aV1
p617
ag14
(I0
I0
I255
I255
tp618
Rp619
aV8
p620
ag14
(I0
I0
I0
I255
tp621
Rp622
aV8
p623
ag14
(I255
I255
I255
I255
tp624
Rp625
aV1
p626
ag14
(I0
I0
I0
I255
tp627
Rp628
aV1
p629
aasI9
(lp630
I-1
aNasI10
(lp631
I-1
aNasI11
(lp632
I-1
aNassg83
V00:02 600ms
p633
sba(ieffectgroup
EffectGroup
p634
(dp635
g3
(dp636
I0
(lp637
I-1
aNasI1
(lp638
I-1
aNasI2
(lp639
I-1
aNasI3
(lp640
I-1
aNasI4
(lp641
I-1
aNasI5
(lp642
I-1
aNasI6
(lp643
I-1
aNasI7
(lp644
I-1
aNasI8
(lp645
I11
a(lp646
I6
ag14
(I0
I0
I255
I255
tp647
Rp648
aV8
p649
ag14
(I0
I0
I0
I255
tp650
Rp651
aV2
p652
ag14
(I0
I255
I0
I255
tp653
Rp654
aV1
p655
ag14
(I0
I0
I0
I255
tp656
Rp657
aV2
p658
ag14
(I255
I255
I255
I255
tp659
Rp660
aV8
p661
ag14
(I0
I0
I0
I255
tp662
Rp663
aV2
p664
aasI9
(lp665
I-1
aNasI10
(lp666
I-1
aNasI11
(lp667
I-1
aNassg83
V00:02 700ms
p668
sba(ieffectgroup
EffectGroup
p669
(dp670
g3
(dp671
I0
(lp672
I-1
aNasI1
(lp673
I-1
aNasI2
(lp674
I-1
aNasI3
(lp675
I-1
aNasI4
(lp676
I-1
aNasI5
(lp677
I-1
aNasI6
(lp678
I-1
aNasI7
(lp679
I-1
aNasI8
(lp680
I10
a(lp681
I4
ag14
(I0
I255
I0
I255
tp682
Rp683
aV1
p684
ag14
(I0
I0
I255
I255
tp685
Rp686
aV1
p687
ag14
(I255
I255
I255
I255
tp688
Rp689
aV1
p690
ag14
(I0
I0
I0
I255
tp691
Rp692
aV4
p693
aasI9
(lp694
I-1
aNasI10
(lp695
I-1
aNasI11
(lp696
I-1
aNassg83
V00:02 800ms
p697
sba(ieffectgroup
EffectGroup
p698
(dp699
g3
(dp700
I0
(lp701
I-1
aNasI1
(lp702
I-1
aNasI2
(lp703
I-1
aNasI3
(lp704
I-1
aNasI4
(lp705
I-1
aNasI5
(lp706
I-1
aNasI6
(lp707
I-1
aNasI7
(lp708
I-1
aNasI8
(lp709
I10
a(lp710
I4
ag14
(I0
I255
I0
I255
tp711
Rp712
aV1
p713
ag14
(I0
I0
I255
I255
tp714
Rp715
aV1
p716
ag14
(I255
I255
I255
I255
tp717
Rp718
aV1
p719
ag14
(I20
I0
I0
I255
tp720
Rp721
aV16
p722
aasI9
(lp723
I-1
aNasI10
(lp724
I-1
aNasI11
(lp725
I-1
aNassg83
V00:02 900ms
p726
sba(ieffectgroup
EffectGroup
p727
(dp728
g3
(dp729
I0
(lp730
I-1
aNasI1
(lp731
I-1
aNasI2
(lp732
I-1
aNasI3
(lp733
I-1
aNasI4
(lp734
I-1
aNasI5
(lp735
I-1
aNasI6
(lp736
I-1
aNasI7
(lp737
I-1
aNasI8
(lp738
I13
a(lp739
I10
ag14
(I0
I255
I0
I255
tp740
Rp741
aV1
p742
ag14
(I0
I0
I255
I255
tp743
Rp744
aV1
p745
ag14
(I0
I0
I0
I255
tp746
Rp747
aV2
p748
ag14
(I255
I255
I255
I255
tp749
Rp750
aV1
p751
ag14
(I255
I0
I0
I255
tp752
Rp753
aV1
p754
ag14
(I0
I0
I0
I255
tp755
Rp756
aV2
p757
ag14
(I128
I0
I255
I255
tp758
Rp759
aV1
p760
ag14
(I255
I0
I255
I255
tp761
Rp762
aV1
p763
ag14
(I0
I0
I0
I255
tp764
Rp765
aV1
p766
ag14
(I0
I0
I0
I255
tp767
Rp768
aV1
p769
aasI9
(lp770
I-1
aNasI10
(lp771
I-1
aNasI11
(lp772
I-1
aNassg83
V00:03 100ms
p773
sba(ieffectgroup
EffectGroup
p774
(dp775
g3
(dp776
I0
(lp777
I-1
aNasI1
(lp778
I-1
aNasI2
(lp779
I-1
aNasI3
(lp780
I-1
aNasI4
(lp781
I-1
aNasI5
(lp782
I-1
aNasI6
(lp783
I-1
aNasI7
(lp784
I13
a(lp785
I10
ag14
(I255
I0
I0
I255
tp786
Rp787
aV1
p788
ag14
(I0
I0
I0
I255
tp789
Rp790
aV1
p791
ag14
(I0
I0
I255
I255
tp792
Rp793
aV1
p794
ag14
(I0
I0
I0
I255
tp795
Rp796
aV1
p797
ag14
(I0
I255
I0
I255
tp798
Rp799
aV1
p800
ag14
(I0
I0
I0
I255
tp801
Rp802
aV1
p803
ag14
(I0
I0
I255
I255
tp804
Rp805
aV1
p806
ag14
(I0
I0
I0
I255
tp807
Rp808
aV1
p809
ag14
(I0
I255
I0
I255
tp810
Rp811
aV1
p812
ag14
(I0
I0
I0
I255
tp813
Rp814
aV1
p815
aasI8
(lp816
I13
a(lp817
I10
ag14
(I255
I0
I0
I255
tp818
Rp819
aV1
p820
ag14
(I0
I0
I0
I255
tp821
Rp822
aV1
p823
ag14
(I0
I0
I255
I255
tp824
Rp825
aV1
p826
ag14
(I0
I0
I0
I255
tp827
Rp828
aV1
p829
ag14
(I0
I255
I0
I255
tp830
Rp831
aV1
p832
ag14
(I0
I0
I0
I255
tp833
Rp834
aV1
p835
ag14
(I0
I0
I255
I255
tp836
Rp837
aV1
p838
ag14
(I0
I0
I0
I255
tp839
Rp840
aV1
p841
ag14
(I0
I255
I0
I255
tp842
Rp843
aV1
p844
ag14
(I0
I0
I0
I255
tp845
Rp846
aV1
p847
aasI9
(lp848
I13
a(lp849
I10
ag14
(I255
I0
I0
I255
tp850
Rp851
aV1
p852
ag14
(I0
I0
I0
I255
tp853
Rp854
aV1
p855
ag14
(I0
I0
I255
I255
tp856
Rp857
aV1
p858
ag14
(I0
I0
I0
I255
tp859
Rp860
aV1
p861
ag14
(I0
I255
I0
I255
tp862
Rp863
aV1
p864
ag14
(I0
I0
I0
I255
tp865
Rp866
aV1
p867
ag14
(I0
I0
I255
I255
tp868
Rp869
aV1
p870
ag14
(I0
I0
I0
I255
tp871
Rp872
aV1
p873
ag14
(I0
I255
I0
I255
tp874
Rp875
aV1
p876
ag14
(I0
I0
I0
I255
tp877
Rp878
aV1
p879
aasI10
(lp880
I13
a(lp881
I10
ag14
(I255
I0
I0
I255
tp882
Rp883
aV1
p884
ag14
(I0
I0
I0
I255
tp885
Rp886
aV1
p887
ag14
(I0
I0
I255
I255
tp888
Rp889
aV1
p890
ag14
(I0
I0
I0
I255
tp891
Rp892
aV1
p893
ag14
(I0
I255
I0
I255
tp894
Rp895
aV1
p896
ag14
(I0
I0
I0
I255
tp897
Rp898
aV1
p899
ag14
(I0
I0
I255
I255
tp900
Rp901
aV1
p902
ag14
(I0
I0
I0
I255
tp903
Rp904
aV1
p905
ag14
(I0
I255
I0
I255
tp906
Rp907
aV1
p908
ag14
(I0
I0
I0
I255
tp909
Rp910
aV1
p911
aasI11
(lp912
I13
a(lp913
I10
ag14
(I255
I0
I0
I255
tp914
Rp915
aV1
p916
ag14
(I0
I0
I0
I255
tp917
Rp918
aV1
p919
ag14
(I0
I0
I255
I255
tp920
Rp921
aV1
p922
ag14
(I0
I0
I0
I255
tp923
Rp924
aV1
p925
ag14
(I0
I255
I0
I255
tp926
Rp927
aV1
p928
ag14
(I0
I0
I0
I255
tp929
Rp930
aV1
p931
ag14
(I0
I0
I255
I255
tp932
Rp933
aV1
p934
ag14
(I0
I0
I0
I255
tp935
Rp936
aV1
p937
ag14
(I0
I255
I0
I255
tp938
Rp939
aV1
p940
ag14
(I0
I0
I0
I255
tp941
Rp942
aV1
p943
aassg83
V00:03 200ms
p944
sba(ieffectgroup
EffectGroup
p945
(dp946
g3
(dp947
I0
(lp948
I-1
aNasI1
(lp949
I-1
aNasI2
(lp950
I-1
aNasI3
(lp951
I-1
aNasI4
(lp952
I-1
aNasI5
(lp953
I-1
aNasI6
(lp954
I-1
aNasI7
(lp955
I-1
aNasI8
(lp956
I-1
aNasI9
(lp957
I-1
aNasI10
(lp958
I-1
aNasI11
(lp959
I-1
aNassg83
V00:03 300ms
p960
sba(ieffectgroup
EffectGroup
p961
(dp962
g3
(dp963
I0
(lp964
I-1
aNasI1
(lp965
I-1
aNasI2
(lp966
I-1
aNasI3
(lp967
I-1
aNasI4
(lp968
I-1
aNasI5
(lp969
I-1
aNasI6
(lp970
I-1
aNasI7
(lp971
I-1
aNasI8
(lp972
I-1
aNasI9
(lp973
I-1
aNasI10
(lp974
I-1
aNasI11
(lp975
I-1
aNassg83
V00:03 400ms
p976
sba(ieffectgroup
EffectGroup
p977
(dp978
g3
(dp979
I0
(lp980
I-1
aNasI1
(lp981
I-1
aNasI2
(lp982
I-1
aNasI3
(lp983
I-1
aNasI4
(lp984
I-1
aNasI5
(lp985
I-1
aNasI6
(lp986
I-1
aNasI7
(lp987
I-1
aNasI8
(lp988
I-1
aNasI9
(lp989
I-1
aNasI10
(lp990
I-1
aNasI11
(lp991
I-1
aNassg83
V00:03 500ms
p992
sba(ieffectgroup
EffectGroup
p993
(dp994
g3
(dp995
I0
(lp996
I-1
aNasI1
(lp997
I-1
aNasI2
(lp998
I-1
aNasI3
(lp999
I-1
aNasI4
(lp1000
I-1
aNasI5
(lp1001
I-1
aNasI6
(lp1002
I-1
aNasI7
(lp1003
I-1
aNasI8
(lp1004
I-1
aNasI9
(lp1005
I-1
aNasI10
(lp1006
I-1
aNasI11
(lp1007
I-1
aNassg83
V00:03 600ms
p1008
sba(ieffectgroup
EffectGroup
p1009
(dp1010
g3
(dp1011
I0
(lp1012
I-1
aNasI1
(lp1013
I-1
aNasI2
(lp1014
I-1
aNasI3
(lp1015
I-1
aNasI4
(lp1016
I-1
aNasI5
(lp1017
I-1
aNasI6
(lp1018
I-1
aNasI7
(lp1019
I-1
aNasI8
(lp1020
I-1
aNasI9
(lp1021
I-1
aNasI10
(lp1022
I-1
aNasI11
(lp1023
I-1
aNassg83
V00:03 700ms
p1024
sba(ieffectgroup
EffectGroup
p1025
(dp1026
g3
(dp1027
I0
(lp1028
I-1
aNasI1
(lp1029
I-1
aNasI2
(lp1030
I-1
aNasI3
(lp1031
I-1
aNasI4
(lp1032
I-1
aNasI5
(lp1033
I-1
aNasI6
(lp1034
I-1
aNasI7
(lp1035
I-1
aNasI8
(lp1036
I-1
aNasI9
(lp1037
I-1
aNasI10
(lp1038
I-1
aNasI11
(lp1039
I-1
aNassg83
V00:03 800ms
p1040
sba(ieffectgroup
EffectGroup
p1041
(dp1042
g3
(dp1043
I0
(lp1044
I-1
aNasI1
(lp1045
I-1
aNasI2
(lp1046
I-1
aNasI3
(lp1047
I-1
aNasI4
(lp1048
I-1
aNasI5
(lp1049
I-1
aNasI6
(lp1050
I-1
aNasI7
(lp1051
I-1
aNasI8
(lp1052
I-1
aNasI9
(lp1053
I-1
aNasI10
(lp1054
I-1
aNasI11
(lp1055
I-1
aNassg83
V00:03 900ms
p1056
sba.