(lp0
(ieffectgroup
EffectGroup
p1
(dp2
S'm_effects'
p3
(dp4
I0
(lp5
I-1
aNasI1
(lp6
I-1
aNasI2
(lp7
I-1
aNasI3
(lp8
I-1
aNasI4
(lp9
I-1
aNasI5
(lp10
I8
a(lp11
I2
acwx._gdi
Colour
p12
(I0
I255
I0
I255
tp13
Rp14
aV1
p15
ag12
(I0
I0
I0
I255
tp16
Rp17
aV8
p18
aasI6
(lp19
I8
a(lp20
I2
ag12
(I255
I0
I0
I255
tp21
Rp22
aV1
p23
ag12
(I0
I0
I0
I255
tp24
Rp25
aV8
p26
aasI7
(lp27
I-1
aNasI8
(lp28
I-1
aNasI9
(lp29
I-1
aNasI10
(lp30
I-1
aNasI11
(lp31
I-1
aNassS'm_time'
p32
V00:01 000ms
p33
sba(ieffectgroup
EffectGroup
p34
(dp35
g3
(dp36
I0
(lp37
I-1
aNasI1
(lp38
I-1
aNasI2
(lp39
I-1
aNasI3
(lp40
I-1
aNasI4
(lp41
I-1
aNasI5
(lp42
I5
a(lp43
g12
(I255
I0
I0
I255
tp44
Rp45
ag12
(I0
I0
I255
I255
tp46
Rp47
aV20
p48
aV1
p49
aV16
p50
aasI6
(lp51
I-1
a(lp52
asI7
(lp53
I-1
aNasI8
(lp54
I-1
aNasI9
(lp55
I-1
aNasI10
(lp56
I-1
aNasI11
(lp57
I-1
aNassg32
V00:02 000ms
p58
sba(ieffectgroup
EffectGroup
p59
(dp60
g3
(dp61
I0
(lp62
I-1
aNasI1
(lp63
I-1
aNasI2
(lp64
I-1
aNasI3
(lp65
I-1
aNasI4
(lp66
I-1
aNasI5
(lp67
I8
a(lp68
I2
ag12
(I0
I255
I255
I255
tp69
Rp70
aV1
p71
ag12
(I0
I0
I0
I255
tp72
Rp73
aV48
p74
aasI6
(lp75
I-1
aNasI7
(lp76
I-1
aNasI8
(lp77
I-1
aNasI9
(lp78
I-1
aNasI10
(lp79
I-1
aNasI11
(lp80
I-1
aNassg32
V00:03 000ms
p81
sba.