(lp0
(ieffectgroup
EffectGroup
p1
(dp2
S'm_effects'
p3
(dp4
I0
(lp5
I-1
aNasI1
(lp6
I-1
aNasI2
(lp7
I-1
aNasI3
(lp8
I-1
aNasI4
(lp9
I3
a(lp10
cwx._gdi
Colour
p11
(I12
I4
I0
I255
tp12
Rp13
aV2
p14
aV25
p15
aasI5
(lp16
I3
a(lp17
g11
(I20
I0
I0
I255
tp18
Rp19
aV2
p20
aV25
p21
aasI6
(lp22
I-1
aNasI7
(lp23
I-1
aNasI8
(lp24
I-1
aNasI9
(lp25
I-1
a(lp26
assS'm_time'
p27
V00:01 000ms
p28
sba(ieffectgroup
EffectGroup
p29
(dp30
g3
(dp31
I0
(lp32
I1
a(lp33
g11
(I2
I1
I1
I255
tp34
Rp35
aasI1
(lp36
I-1
aNasI2
(lp37
I-1
aNasI3
(lp38
I-1
aNasI4
(lp39
I3
a(lp40
g11
(I12
I4
I0
I255
tp41
Rp42
aV1
p43
aV1
p44
aasI5
(lp45
I3
a(lp46
g11
(I20
I0
I0
I255
tp47
Rp48
aV2
p49
aV25
p50
aasI6
(lp51
I-1
aNasI7
(lp52
I-1
aNasI8
(lp53
I-1
aNasI9
(lp54
I1
a(lp55
g11
(I2
I1
I1
I255
tp56
Rp57
aassg27
V00:02 000ms
p58
sba(ieffectgroup
EffectGroup
p59
(dp60
g3
(dp61
I0
(lp62
I-1
aNasI1
(lp63
I-1
aNasI2
(lp64
I-1
aNasI3
(lp65
I-1
aNasI4
(lp66
I-1
aNasI5
(lp67
I-1
aNasI6
(lp68
I-1
aNasI7
(lp69
I-1
aNasI8
(lp70
I-1
aNasI9
(lp71
I-1
aNassg27
V00:03 000ms
p72
sba(ieffectgroup
EffectGroup
p73
(dp74
g3
(dp75
I0
(lp76
I-1
aNasI1
(lp77
I-1
aNasI2
(lp78
I-1
aNasI3
(lp79
I-1
aNasI4
(lp80
I-1
aNasI5
(lp81
I-1
aNasI6
(lp82
I-1
aNasI7
(lp83
I-1
aNasI8
(lp84
I-1
aNasI9
(lp85
I-1
aNassg27
V00:04 000ms
p86
sba(ieffectgroup
EffectGroup
p87
(dp88
g3
(dp89
I0
(lp90
I-1
aNasI1
(lp91
I-1
aNasI2
(lp92
I-1
aNasI3
(lp93
I-1
aNasI4
(lp94
I-1
aNasI5
(lp95
I-1
aNasI6
(lp96
I-1
aNasI7
(lp97
I-1
aNasI8
(lp98
I-1
aNasI9
(lp99
I-1
aNassg27
V00:05 000ms
p100
sba(ieffectgroup
EffectGroup
p101
(dp102
g3
(dp103
I0
(lp104
I-1
aNasI1
(lp105
I-1
aNasI2
(lp106
I-1
aNasI3
(lp107
I-1
aNasI4
(lp108
I-1
aNasI5
(lp109
I-1
aNasI6
(lp110
I-1
aNasI7
(lp111
I-1
aNasI8
(lp112
I-1
aNasI9
(lp113
I-1
aNassg27
V00:06 000ms
p114
sba(ieffectgroup
EffectGroup
p115
(dp116
g3
(dp117
I0
(lp118
I-1
aNasI1
(lp119
I-1
aNasI2
(lp120
I-1
aNasI3
(lp121
I-1
aNasI4
(lp122
I-1
aNasI5
(lp123
I-1
aNasI6
(lp124
I-1
aNasI7
(lp125
I-1
aNasI8
(lp126
I-1
aNasI9
(lp127
I-1
aNassg27
V00:07 000ms
p128
sba(ieffectgroup
EffectGroup
p129
(dp130
g3
(dp131
I0
(lp132
I-1
aNasI1
(lp133
I-1
aNasI2
(lp134
I-1
aNasI3
(lp135
I-1
aNasI4
(lp136
I-1
aNasI5
(lp137
I-1
aNasI6
(lp138
I-1
aNasI7
(lp139
I-1
aNasI8
(lp140
I-1
aNasI9
(lp141
I-1
aNassg27
V00:08 000ms
p142
sba(ieffectgroup
EffectGroup
p143
(dp144
g3
(dp145
I0
(lp146
I-1
aNasI1
(lp147
I-1
aNasI2
(lp148
I-1
aNasI3
(lp149
I-1
aNasI4
(lp150
I-1
aNasI5
(lp151
I-1
aNasI6
(lp152
I-1
aNasI7
(lp153
I-1
aNasI8
(lp154
I-1
aNasI9
(lp155
I-1
aNassg27
V00:09 000ms
p156
sba(ieffectgroup
EffectGroup
p157
(dp158
g3
(dp159
I0
(lp160
I-1
aNasI1
(lp161
I-1
aNasI2
(lp162
I-1
aNasI3
(lp163
I-1
aNasI4
(lp164
I-1
aNasI5
(lp165
I-1
aNasI6
(lp166
I-1
aNasI7
(lp167
I-1
aNasI8
(lp168
I-1
aNasI9
(lp169
I-1
aNassg27
V00:10 000ms
p170
sba(ieffectgroup
EffectGroup
p171
(dp172
g3
(dp173
I0
(lp174
I-1
aNasI1
(lp175
I-1
aNasI2
(lp176
I-1
aNasI3
(lp177
I-1
aNasI4
(lp178
I-1
aNasI5
(lp179
I-1
aNasI6
(lp180
I-1
aNasI7
(lp181
I-1
aNasI8
(lp182
I-1
aNasI9
(lp183
I-1
aNassg27
V00:11 000ms
p184
sba(ieffectgroup
EffectGroup
p185
(dp186
g3
(dp187
I0
(lp188
I-1
aNasI1
(lp189
I-1
aNasI2
(lp190
I-1
aNasI3
(lp191
I-1
aNasI4
(lp192
I-1
aNasI5
(lp193
I-1
aNasI6
(lp194
I-1
aNasI7
(lp195
I-1
aNasI8
(lp196
I-1
aNasI9
(lp197
I-1
aNassg27
V00:12 000ms
p198
sba(ieffectgroup
EffectGroup
p199
(dp200
g3
(dp201
I0
(lp202
I-1
aNasI1
(lp203
I-1
aNasI2
(lp204
I-1
aNasI3
(lp205
I-1
aNasI4
(lp206
I-1
aNasI5
(lp207
I-1
aNasI6
(lp208
I-1
aNasI7
(lp209
I-1
aNasI8
(lp210
I-1
aNasI9
(lp211
I-1
aNassg27
V00:13 000ms
p212
sba(ieffectgroup
EffectGroup
p213
(dp214
g3
(dp215
I0
(lp216
I-1
aNasI1
(lp217
I-1
aNasI2
(lp218
I-1
aNasI3
(lp219
I-1
aNasI4
(lp220
I-1
aNasI5
(lp221
I-1
aNasI6
(lp222
I-1
aNasI7
(lp223
I-1
aNasI8
(lp224
I-1
aNasI9
(lp225
I-1
aNassg27
V00:14 000ms
p226
sba(ieffectgroup
EffectGroup
p227
(dp228
g3
(dp229
I0
(lp230
I-1
aNasI1
(lp231
I-1
aNasI2
(lp232
I-1
aNasI3
(lp233
I-1
aNasI4
(lp234
I-1
aNasI5
(lp235
I-1
aNasI6
(lp236
I-1
aNasI7
(lp237
I-1
aNasI8
(lp238
I-1
aNasI9
(lp239
I-1
aNassg27
V00:15 000ms
p240
sba(ieffectgroup
EffectGroup
p241
(dp242
g3
(dp243
I0
(lp244
I-1
aNasI1
(lp245
I-1
aNasI2
(lp246
I-1
aNasI3
(lp247
I-1
aNasI4
(lp248
I-1
aNasI5
(lp249
I-1
aNasI6
(lp250
I-1
aNasI7
(lp251
I-1
aNasI8
(lp252
I-1
aNasI9
(lp253
I-1
aNassg27
V00:16 000ms
p254
sba(ieffectgroup
EffectGroup
p255
(dp256
g3
(dp257
I0
(lp258
I-1
aNasI1
(lp259
I-1
aNasI2
(lp260
I-1
aNasI3
(lp261
I-1
aNasI4
(lp262
I-1
aNasI5
(lp263
I-1
aNasI6
(lp264
I-1
aNasI7
(lp265
I-1
aNasI8
(lp266
I-1
aNasI9
(lp267
I-1
aNassg27
V00:17 000ms
p268
sba(ieffectgroup
EffectGroup
p269
(dp270
g3
(dp271
I0
(lp272
I-1
aNasI1
(lp273
I-1
aNasI2
(lp274
I-1
aNasI3
(lp275
I-1
aNasI4
(lp276
I-1
aNasI5
(lp277
I-1
aNasI6
(lp278
I-1
aNasI7
(lp279
I-1
aNasI8
(lp280
I-1
aNasI9
(lp281
I-1
aNassg27
V00:18 000ms
p282
sba(ieffectgroup
EffectGroup
p283
(dp284
g3
(dp285
I0
(lp286
I-1
aNasI1
(lp287
I-1
aNasI2
(lp288
I-1
aNasI3
(lp289
I-1
aNasI4
(lp290
I-1
aNasI5
(lp291
I-1
aNasI6
(lp292
I-1
aNasI7
(lp293
I-1
aNasI8
(lp294
I-1
aNasI9
(lp295
I-1
aNassg27
V00:19 000ms
p296
sba(ieffectgroup
EffectGroup
p297
(dp298
g3
(dp299
I0
(lp300
I-1
aNasI1
(lp301
I-1
aNasI2
(lp302
I-1
aNasI3
(lp303
I-1
aNasI4
(lp304
I-1
aNasI5
(lp305
I-1
aNasI6
(lp306
I-1
aNasI7
(lp307
I-1
aNasI8
(lp308
I-1
aNasI9
(lp309
I-1
aNassg27
V00:20 000ms
p310
sba.