(lp0
(ieffectgroup
EffectGroup
p1
(dp2
S'm_effects'
p3
(dp4
I0
(lp5
I1
a(lp6
cwx._gdi
Colour
p7
(I255
I0
I0
I255
tp8
Rp9
aasI1
(lp10
I-1
aNasI2
(lp11
I-1
aNasI3
(lp12
I-1
aNasI4
(lp13
I-1
aNasI5
(lp14
I-1
aNasI6
(lp15
I-1
aNasI7
(lp16
I-1
aNasI8
(lp17
I-1
aNasI9
(lp18
I-1
aNasI10
(lp19
I-1
aNasI11
(lp20
I-1
aNassS'm_time'
p21
V00:01 010ms
p22
sba(ieffectgroup
EffectGroup
p23
(dp24
g3
(dp25
I0
(lp26
I8
a(lp27
I2
ag7
(I255
I0
I0
I255
tp28
Rp29
aV1
p30
ag7
(I0
I0
I0
I255
tp31
Rp32
aV4
p33
aasI1
(lp34
I8
a(lp35
I2
ag7
(I0
I255
I0
I255
tp36
Rp37
aV1
p38
ag7
(I0
I0
I0
I255
tp39
Rp40
aV4
p41
aasI2
(lp42
I8
a(lp43
I2
ag7
(I0
I0
I255
I255
tp44
Rp45
aV1
p46
ag7
(I0
I0
I0
I255
tp47
Rp48
aV4
p49
aasI3
(lp50
I8
a(lp51
I2
ag7
(I255
I0
I255
I255
tp52
Rp53
aV1
p54
ag7
(I0
I0
I0
I255
tp55
Rp56
aV4
p57
aasI4
(lp58
I1
a(lp59
g7
(I255
I255
I255
I255
tp60
Rp61
aasI5
(lp62
I8
a(lp63
I2
ag7
(I255
I255
I255
I255
tp64
Rp65
aV1
p66
ag7
(I0
I0
I0
I255
tp67
Rp68
aV4
p69
aasI6
(lp70
I8
a(lp71
I2
ag7
(I255
I255
I255
I255
tp72
Rp73
aV1
p74
ag7
(I0
I0
I0
I255
tp75
Rp76
aV4
p77
aasI7
(lp78
I1
a(lp79
g7
(I255
I255
I255
I255
tp80
Rp81
aasI8
(lp82
I8
a(lp83
I2
ag7
(I255
I0
I255
I255
tp84
Rp85
aV1
p86
ag7
(I0
I0
I0
I255
tp87
Rp88
aV4
p89
aasI9
(lp90
I8
a(lp91
I2
ag7
(I0
I0
I255
I255
tp92
Rp93
aV1
p94
ag7
(I0
I0
I0
I255
tp95
Rp96
aV4
p97
aasI10
(lp98
I8
a(lp99
I2
ag7
(I0
I255
I0
I255
tp100
Rp101
aV1
p102
ag7
(I0
I0
I0
I255
tp103
Rp104
aV4
p105
aasI11
(lp106
I8
a(lp107
I2
ag7
(I255
I0
I0
I255
tp108
Rp109
aV1
p110
ag7
(I0
I0
I0
I255
tp111
Rp112
aV4
p113
aassg21
V00:01 070ms
p114
sba(ieffectgroup
EffectGroup
p115
(dp116
g3
(dp117
I0
(lp118
I11
a(lp119
I6
ag7
(I255
I255
I255
I255
tp120
Rp121
aV1
p122
ag7
(I255
I0
I0
I255
tp123
Rp124
aV1
p125
ag7
(I0
I0
I255
I255
tp126
Rp127
aV1
p128
ag7
(I0
I255
I0
I255
tp129
Rp130
aV1
p131
ag7
(I0
I0
I0
I255
tp132
Rp133
aV1
p134
ag7
(I0
I0
I0
I255
tp135
Rp136
aV1
p137
aasI1
(lp138
I11
a(lp139
I6
ag7
(I255
I255
I255
I255
tp140
Rp141
aV1
p142
ag7
(I255
I0
I0
I255
tp143
Rp144
aV1
p145
ag7
(I0
I0
I255
I255
tp146
Rp147
aV1
p148
ag7
(I0
I255
I0
I255
tp149
Rp150
aV1
p151
ag7
(I0
I0
I0
I255
tp152
Rp153
aV1
p154
ag7
(I0
I0
I0
I255
tp155
Rp156
aV1
p157
aasI2
(lp158
I11
a(lp159
I6
ag7
(I255
I255
I255
I255
tp160
Rp161
aV1
p162
ag7
(I255
I0
I0
I255
tp163
Rp164
aV1
p165
ag7
(I0
I0
I255
I255
tp166
Rp167
aV1
p168
ag7
(I0
I255
I0
I255
tp169
Rp170
aV1
p171
ag7
(I0
I0
I0
I255
tp172
Rp173
aV1
p174
ag7
(I0
I0
I0
I255
tp175
Rp176
aV1
p177
aasI3
(lp178
I11
a(lp179
I6
ag7
(I255
I255
I255
I255
tp180
Rp181
aV1
p182
ag7
(I255
I0
I0
I255
tp183
Rp184
aV1
p185
ag7
(I0
I0
I255
I255
tp186
Rp187
aV1
p188
ag7
(I0
I255
I0
I255
tp189
Rp190
aV1
p191
ag7
(I0
I0
I0
I255
tp192
Rp193
aV1
p194
ag7
(I0
I0
I0
I255
tp195
Rp196
aV1
p197
aasI4
(lp198
I11
a(lp199
I6
ag7
(I255
I255
I255
I255
tp200
Rp201
aV4
p202
ag7
(I0
I255
I0
I255
tp203
Rp204
aV4
p205
ag7
(I0
I0
I255
I255
tp206
Rp207
aV4
p208
ag7
(I255
I0
I0
I255
tp209
Rp210
aV4
p211
ag7
(I0
I0
I0
I255
tp212
Rp213
aV16
p214
ag7
(I0
I0
I0
I255
tp215
Rp216
aV1
p217
aasI5
(lp218
I-1
a(lp219
asI6
(lp220
I-1
a(lp221
asI7
(lp222
I11
a(lp223
I6
ag7
(I255
I255
I255
I255
tp224
Rp225
aV4
p226
ag7
(I0
I255
I0
I255
tp227
Rp228
aV4
p229
ag7
(I0
I0
I255
I255
tp230
Rp231
aV4
p232
ag7
(I255
I0
I0
I255
tp233
Rp234
aV4
p235
ag7
(I0
I0
I0
I255
tp236
Rp237
aV16
p238
ag7
(I0
I0
I0
I255
tp239
Rp240
aV1
p241
aasI8
(lp242
I11
a(lp243
I6
ag7
(I255
I255
I255
I255
tp244
Rp245
aV1
p246
ag7
(I255
I0
I0
I255
tp247
Rp248
aV1
p249
ag7
(I0
I0
I255
I255
tp250
Rp251
aV1
p252
ag7
(I0
I255
I0
I255
tp253
Rp254
aV1
p255
ag7
(I0
I0
I0
I255
tp256
Rp257
aV1
p258
ag7
(I0
I0
I0
I255
tp259
Rp260
aV1
p261
aasI9
(lp262
I11
a(lp263
I6
ag7
(I255
I255
I255
I255
tp264
Rp265
aV1
p266
ag7
(I255
I0
I0
I255
tp267
Rp268
aV1
p269
ag7
(I0
I0
I255
I255
tp270
Rp271
aV1
p272
ag7
(I0
I255
I0
I255
tp273
Rp274
aV1
p275
ag7
(I0
I0
I0
I255
tp276
Rp277
aV1
p278
ag7
(I0
I0
I0
I255
tp279
Rp280
aV1
p281
aasI10
(lp282
I11
a(lp283
I6
ag7
(I255
I255
I255
I255
tp284
Rp285
aV1
p286
ag7
(I255
I0
I0
I255
tp287
Rp288
aV1
p289
ag7
(I0
I0
I255
I255
tp290
Rp291
aV1
p292
ag7
(I0
I255
I0
I255
tp293
Rp294
aV1
p295
ag7
(I0
I0
I0
I255
tp296
Rp297
aV1
p298
ag7
(I0
I0
I0
I255
tp299
Rp300
aV1
p301
aasI11
(lp302
I11
a(lp303
I6
ag7
(I255
I255
I255
I255
tp304
Rp305
aV1
p306
ag7
(I255
I0
I0
I255
tp307
Rp308
aV1
p309
ag7
(I0
I0
I255
I255
tp310
Rp311
aV1
p312
ag7
(I0
I255
I0
I255
tp313
Rp314
aV1
p315
ag7
(I0
I0
I0
I255
tp316
Rp317
aV1
p318
ag7
(I0
I0
I0
I255
tp319
Rp320
aV1
p321
aassg21
V00:01 080ms
p322
sba(ieffectgroup
EffectGroup
p323
(dp324
g3
(dp325
I0
(lp326
I12
a(lp327
I8
ag7
(I255
I0
I0
I255
tp328
Rp329
aV1
p330
ag7
(I0
I0
I0
I255
tp331
Rp332
aV1
p333
ag7
(I255
I30
I0
I255
tp334
Rp335
aV1
p336
ag7
(I0
I0
I0
I255
tp337
Rp338
aV1
p339
ag7
(I255
I60
I0
I255
tp340
Rp341
aV1
p342
ag7
(I0
I0
I0
I255
tp343
Rp344
aV1
p345
ag7
(I255
I0
I30
I255
tp346
Rp347
aV1
p348
ag7
(I0
I0
I0
I255
tp349
Rp350
aV1
p351
aasI1
(lp352
I12
a(lp353
I8
ag7
(I255
I0
I0
I255
tp354
Rp355
aV1
p356
ag7
(I0
I0
I0
I255
tp357
Rp358
aV1
p359
ag7
(I255
I30
I0
I255
tp360
Rp361
aV1
p362
ag7
(I0
I0
I0
I255
tp363
Rp364
aV1
p365
ag7
(I255
I60
I0
I255
tp366
Rp367
aV1
p368
ag7
(I0
I0
I0
I255
tp369
Rp370
aV1
p371
ag7
(I255
I0
I30
I255
tp372
Rp373
aV1
p374
ag7
(I0
I0
I0
I255
tp375
Rp376
aV1
p377
aasI2
(lp378
I12
a(lp379
I8
ag7
(I255
I0
I0
I255
tp380
Rp381
aV1
p382
ag7
(I0
I0
I0
I255
tp383
Rp384
aV1
p385
ag7
(I255
I30
I0
I255
tp386
Rp387
aV1
p388
ag7
(I0
I0
I0
I255
tp389
Rp390
aV1
p391
ag7
(I255
I60
I0
I255
tp392
Rp393
aV1
p394
ag7
(I0
I0
I0
I255
tp395
Rp396
aV1
p397
ag7
(I255
I0
I30
I255
tp398
Rp399
aV1
p400
ag7
(I0
I0
I0
I255
tp401
Rp402
aV1
p403
aasI3
(lp404
I12
a(lp405
I8
ag7
(I255
I0
I0
I255
tp406
Rp407
aV1
p408
ag7
(I0
I0
I0
I255
tp409
Rp410
aV1
p411
ag7
(I255
I30
I0
I255
tp412
Rp413
aV1
p414
ag7
(I0
I0
I0
I255
tp415
Rp416
aV1
p417
ag7
(I255
I60
I0
I255
tp418
Rp419
aV1
p420
ag7
(I0
I0
I0
I255
tp421
Rp422
aV1
p423
ag7
(I255
I0
I30
I255
tp424
Rp425
aV1
p426
ag7
(I0
I0
I0
I255
tp427
Rp428
aV1
p429
aasI4
(lp430
I10
a(lp431
I4
ag7
(I255
I30
I0
I255
tp432
Rp433
aV16
p434
ag7
(I0
I0
I0
I255
tp435
Rp436
aV16
p437
ag7
(I255
I0
I0
I255
tp438
Rp439
aV8
p440
ag7
(I0
I0
I0
I255
tp441
Rp442
aV16
p443
aasI5
(lp444
I-1
a(lp445
asI6
(lp446
I-1
a(lp447
asI7
(lp448
I10
a(lp449
I4
ag7
(I255
I30
I0
I255
tp450
Rp451
aV16
p452
ag7
(I0
I0
I0
I255
tp453
Rp454
aV16
p455
ag7
(I255
I0
I0
I255
tp456
Rp457
aV8
p458
ag7
(I0
I0
I0
I255
tp459
Rp460
aV16
p461
aasI8
(lp462
I12
a(lp463
I8
ag7
(I255
I0
I0
I255
tp464
Rp465
aV1
p466
ag7
(I0
I0
I0
I255
tp467
Rp468
aV1
p469
ag7
(I255
I30
I0
I255
tp470
Rp471
aV1
p472
ag7
(I0
I0
I0
I255
tp473
Rp474
aV1
p475
ag7
(I255
I60
I0
I255
tp476
Rp477
aV1
p478
ag7
(I0
I0
I0
I255
tp479
Rp480
aV1
p481
ag7
(I255
I0
I30
I255
tp482
Rp483
aV1
p484
ag7
(I0
I0
I0
I255
tp485
Rp486
aV1
p487
aasI9
(lp488
I12
a(lp489
I8
ag7
(I255
I0
I0
I255
tp490
Rp491
aV1
p492
ag7
(I0
I0
I0
I255
tp493
Rp494
aV1
p495
ag7
(I255
I30
I0
I255
tp496
Rp497
aV1
p498
ag7
(I0
I0
I0
I255
tp499
Rp500
aV1
p501
ag7
(I255
I60
I0
I255
tp502
Rp503
aV1
p504
ag7
(I0
I0
I0
I255
tp505
Rp506
aV1
p507
ag7
(I255
I0
I30
I255
tp508
Rp509
aV1
p510
ag7
(I0
I0
I0
I255
tp511
Rp512
aV1
p513
aasI10
(lp514
I12
a(lp515
I8
ag7
(I255
I0
I0
I255
tp516
Rp517
aV1
p518
ag7
(I0
I0
I0
I255
tp519
Rp520
aV1
p521
ag7
(I255
I30
I0
I255
tp522
Rp523
aV1
p524
ag7
(I0
I0
I0
I255
tp525
Rp526
aV1
p527
ag7
(I255
I60
I0
I255
tp528
Rp529
aV1
p530
ag7
(I0
I0
I0
I255
tp531
Rp532
aV1
p533
ag7
(I255
I0
I30
I255
tp534
Rp535
aV1
p536
ag7
(I0
I0
I0
I255
tp537
Rp538
aV1
p539
aasI11
(lp540
I12
a(lp541
I8
ag7
(I255
I0
I0
I255
tp542
Rp543
aV1
p544
ag7
(I0
I0
I0
I255
tp545
Rp546
aV1
p547
ag7
(I255
I30
I0
I255
tp548
Rp549
aV1
p550
ag7
(I0
I0
I0
I255
tp551
Rp552
aV1
p553
ag7
(I255
I60
I0
I255
tp554
Rp555
aV1
p556
ag7
(I0
I0
I0
I255
tp557
Rp558
aV1
p559
ag7
(I255
I0
I30
I255
tp560
Rp561
aV1
p562
ag7
(I0
I0
I0
I255
tp563
Rp564
aV1
p565
aassg21
V00:01 090ms
p566
sba(ieffectgroup
EffectGroup
p567
(dp568
g3
(dp569
I0
(lp570
I5
a(lp571
g7
(I255
I0
I0
I255
tp572
Rp573
ag7
(I0
I0
I255
I255
tp574
Rp575
aV100
p576
aV2
p577
aV12
p578
aasI1
(lp579
I5
a(lp580
g7
(I255
I0
I0
I255
tp581
Rp582
ag7
(I255
I255
I0
I255
tp583
Rp584
aV100
p585
aV2
p586
aV12
p587
aasI2
(lp588
I5
a(lp589
g7
(I255
I0
I0
I255
tp590
Rp591
ag7
(I0
I0
I255
I255
tp592
Rp593
aV100
p594
aV2
p595
aV12
p596
aasI3
(lp597
I5
a(lp598
g7
(I255
I0
I0
I255
tp599
Rp600
ag7
(I255
I255
I0
I255
tp601
Rp602
aV100
p603
aV2
p604
aV12
p605
aasI4
(lp606
I1
a(lp607
g7
(I255
I0
I0
I255
tp608
Rp609
aasI5
(lp610
I-1
aNasI6
(lp611
I-1
aNasI7
(lp612
I1
a(lp613
g7
(I255
I0
I0
I255
tp614
Rp615
aasI8
(lp616
I5
a(lp617
g7
(I255
I0
I0
I255
tp618
Rp619
ag7
(I255
I255
I0
I255
tp620
Rp621
aV100
p622
aV2
p623
aV12
p624
aasI9
(lp625
I5
a(lp626
g7
(I255
I0
I0
I255
tp627
Rp628
ag7
(I0
I0
I255
I255
tp629
Rp630
aV100
p631
aV2
p632
aV12
p633
aasI10
(lp634
I5
a(lp635
g7
(I255
I0
I0
I255
tp636
Rp637
ag7
(I255
I255
I0
I255
tp638
Rp639
aV100
p640
aV2
p641
aV12
p642
aasI11
(lp643
I5
a(lp644
g7
(I255
I0
I0
I255
tp645
Rp646
ag7
(I0
I0
I255
I255
tp647
Rp648
aV100
p649
aV2
p650
aV12
p651
aassg21
V00:01 110ms
p652
sba(ieffectgroup
EffectGroup
p653
(dp654
g3
(dp655
I0
(lp656
I11
a(lp657
I6
ag7
(I0
I255
I255
I255
tp658
Rp659
aV1
p660
ag7
(I0
I0
I0
I255
tp661
Rp662
aV1
p663
ag7
(I255
I0
I60
I255
tp664
Rp665
aV1
p666
ag7
(I0
I0
I0
I255
tp667
Rp668
aV1
p669
ag7
(I0
I30
I255
I255
tp670
Rp671
aV1
p672
ag7
(I0
I0
I0
I255
tp673
Rp674
aV1
p675
aasI1
(lp676
I11
a(lp677
I6
ag7
(I0
I255
I255
I255
tp678
Rp679
aV1
p680
ag7
(I0
I0
I0
I255
tp681
Rp682
aV1
p683
ag7
(I0
I30
I255
I255
tp684
Rp685
aV1
p686
ag7
(I0
I0
I0
I255
tp687
Rp688
aV1
p689
ag7
(I255
I0
I60
I255
tp690
Rp691
aV1
p692
ag7
(I0
I0
I0
I255
tp693
Rp694
aV1
p695
aasI2
(lp696
I11
a(lp697
I6
ag7
(I0
I255
I255
I255
tp698
Rp699
aV1
p700
ag7
(I0
I0
I0
I255
tp701
Rp702
aV1
p703
ag7
(I0
I30
I255
I255
tp704
Rp705
aV1
p706
ag7
(I0
I0
I0
I255
tp707
Rp708
aV1
p709
ag7
(I255
I0
I60
I255
tp710
Rp711
aV1
p712
ag7
(I0
I0
I0
I255
tp713
Rp714
aV1
p715
aasI3
(lp716
I11
a(lp717
I6
ag7
(I0
I255
I255
I255
tp718
Rp719
aV1
p720
ag7
(I0
I0
I0
I255
tp721
Rp722
aV1
p723
ag7
(I0
I30
I255
I255
tp724
Rp725
aV1
p726
ag7
(I0
I0
I0
I255
tp727
Rp728
aV1
p729
ag7
(I255
I0
I60
I255
tp730
Rp731
aV1
p732
ag7
(I0
I0
I0
I255
tp733
Rp734
aV1
p735
aasI4
(lp736
I10
a(lp737
I4
ag7
(I0
I255
I255
I255
tp738
Rp739
aV16
p740
ag7
(I0
I0
I0
I255
tp741
Rp742
aV32
p743
ag7
(I0
I0
I255
I255
tp744
Rp745
aV16
p746
ag7
(I0
I0
I0
I255
tp747
Rp748
aV32
p749
aasI5
(lp750
I10
a(lp751
I4
ag7
(I0
I255
I255
I255
tp752
Rp753
aV4
p754
ag7
(I0
I0
I0
I255
tp755
Rp756
aV16
p757
ag7
(I0
I30
I255
I255
tp758
Rp759
aV4
p760
ag7
(I0
I0
I0
I255
tp761
Rp762
aV16
p763
aasI6
(lp764
I10
a(lp765
I4
ag7
(I0
I255
I255
I255
tp766
Rp767
aV4
p768
ag7
(I0
I0
I0
I255
tp769
Rp770
aV16
p771
ag7
(I0
I30
I255
I255
tp772
Rp773
aV4
p774
ag7
(I0
I0
I0
I255
tp775
Rp776
aV16
p777
aasI7
(lp778
I10
a(lp779
I4
ag7
(I0
I255
I255
I255
tp780
Rp781
aV16
p782
ag7
(I0
I0
I0
I255
tp783
Rp784
aV32
p785
ag7
(I0
I0
I255
I255
tp786
Rp787
aV16
p788
ag7
(I0
I0
I0
I255
tp789
Rp790
aV32
p791
aasI8
(lp792
I11
a(lp793
I6
ag7
(I0
I255
I255
I255
tp794
Rp795
aV1
p796
ag7
(I0
I0
I0
I255
tp797
Rp798
aV1
p799
ag7
(I0
I0
I255
I255
tp800
Rp801
aV1
p802
ag7
(I0
I0
I0
I255
tp803
Rp804
aV1
p805
ag7
(I255
I70
I70
I255
tp806
Rp807
aV1
p808
ag7
(I0
I0
I0
I255
tp809
Rp810
aV1
p811
aasI9
(lp812
I11
a(lp813
I6
ag7
(I0
I255
I255
I255
tp814
Rp815
aV1
p816
ag7
(I0
I0
I0
I255
tp817
Rp818
aV1
p819
ag7
(I0
I30
I255
I255
tp820
Rp821
aV1
p822
ag7
(I0
I0
I0
I255
tp823
Rp824
aV1
p825
ag7
(I255
I70
I70
I255
tp826
Rp827
aV1
p828
ag7
(I0
I0
I0
I255
tp829
Rp830
aV1
p831
aasI10
(lp832
I11
a(lp833
I6
ag7
(I0
I255
I255
I255
tp834
Rp835
aV1
p836
ag7
(I0
I0
I0
I255
tp837
Rp838
aV1
p839
ag7
(I0
I30
I255
I255
tp840
Rp841
aV1
p842
ag7
(I0
I0
I0
I255
tp843
Rp844
aV1
p845
ag7
(I255
I72
I72
I255
tp846
Rp847
aV1
p848
ag7
(I0
I0
I0
I255
tp849
Rp850
aV1
p851
aasI11
(lp852
I11
a(lp853
I6
ag7
(I0
I255
I255
I255
tp854
Rp855
aV1
p856
ag7
(I0
I0
I0
I255
tp857
Rp858
aV1
p859
ag7
(I0
I30
I255
I255
tp860
Rp861
aV1
p862
ag7
(I0
I0
I0
I255
tp863
Rp864
aV1
p865
ag7
(I255
I70
I70
I255
tp866
Rp867
aV1
p868
ag7
(I0
I0
I0
I255
tp869
Rp870
aV1
p871
aassg21
V00:01 120ms
p872
sba(ieffectgroup
EffectGroup
p873
(dp874
g3
(dp875
I0
(lp876
I10
a(lp877
I4
ag7
(I255
I0
I128
I255
tp878
Rp879
aV1
p880
ag7
(I0
I0
I0
I255
tp881
Rp882
aV1
p883
ag7
(I0
I255
I0
I255
tp884
Rp885
aV1
p886
ag7
(I0
I0
I0
I255
tp887
Rp888
aV1
p889
aasI1
(lp890
I10
a(lp891
I4
ag7
(I255
I0
I128
I255
tp892
Rp893
aV1
p894
ag7
(I0
I0
I0
I255
tp895
Rp896
aV1
p897
ag7
(I0
I255
I0
I255
tp898
Rp899
aV1
p900
ag7
(I0
I0
I0
I255
tp901
Rp902
aV1
p903
aasI2
(lp904
I10
a(lp905
I4
ag7
(I255
I0
I128
I255
tp906
Rp907
aV1
p908
ag7
(I0
I0
I0
I255
tp909
Rp910
aV1
p911
ag7
(I0
I255
I0
I255
tp912
Rp913
aV1
p914
ag7
(I0
I0
I0
I255
tp915
Rp916
aV1
p917
aasI3
(lp918
I10
a(lp919
I4
ag7
(I255
I0
I128
I255
tp920
Rp921
aV1
p922
ag7
(I0
I0
I0
I255
tp923
Rp924
aV1
p925
ag7
(I0
I255
I0
I255
tp926
Rp927
aV1
p928
ag7
(I0
I0
I0
I255
tp929
Rp930
aV1
p931
aasI4
(lp932
I10
a(lp933
I4
ag7
(I0
I0
I255
I255
tp934
Rp935
aV8
p936
ag7
(I0
I0
I0
I255
tp937
Rp938
aV16
p939
ag7
(I0
I255
I0
I255
tp940
Rp941
aV8
p942
ag7
(I0
I0
I0
I255
tp943
Rp944
aV16
p945
aasI5
(lp946
I3
a(lp947
g7
(I255
I0
I128
I255
tp948
Rp949
aV1
p950
aV16
p951
aasI6
(lp952
I3
a(lp953
g7
(I255
I0
I128
I255
tp954
Rp955
aV1
p956
aV16
p957
aasI7
(lp958
I10
a(lp959
I4
ag7
(I0
I0
I255
I255
tp960
Rp961
aV8
p962
ag7
(I0
I0
I0
I255
tp963
Rp964
aV16
p965
ag7
(I0
I255
I0
I255
tp966
Rp967
aV8
p968
ag7
(I0
I0
I0
I255
tp969
Rp970
aV16
p971
aasI8
(lp972
I10
a(lp973
I4
ag7
(I255
I0
I128
I255
tp974
Rp975
aV1
p976
ag7
(I0
I0
I0
I255
tp977
Rp978
aV1
p979
ag7
(I0
I255
I0
I255
tp980
Rp981
aV1
p982
ag7
(I0
I0
I0
I255
tp983
Rp984
aV1
p985
aasI9
(lp986
I10
a(lp987
I4
ag7
(I255
I0
I128
I255
tp988
Rp989
aV1
p990
ag7
(I0
I0
I0
I255
tp991
Rp992
aV1
p993
ag7
(I0
I255
I0
I255
tp994
Rp995
aV1
p996
ag7
(I0
I0
I0
I255
tp997
Rp998
aV1
p999
aasI10
(lp1000
I10
a(lp1001
I4
ag7
(I255
I0
I128
I255
tp1002
Rp1003
aV1
p1004
ag7
(I0
I0
I0
I255
tp1005
Rp1006
aV1
p1007
ag7
(I0
I255
I0
I255
tp1008
Rp1009
aV1
p1010
ag7
(I0
I0
I0
I255
tp1011
Rp1012
aV1
p1013
aasI11
(lp1014
I10
a(lp1015
I4
ag7
(I255
I0
I128
I255
tp1016
Rp1017
aV1
p1018
ag7
(I0
I0
I0
I255
tp1019
Rp1020
aV1
p1021
ag7
(I0
I255
I0
I255
tp1022
Rp1023
aV1
p1024
ag7
(I0
I0
I0
I255
tp1025
Rp1026
aV1
p1027
aassg21
V00:01 160ms
p1028
sba(ieffectgroup
EffectGroup
p1029
(dp1030
g3
(dp1031
I0
(lp1032
I10
a(lp1033
I4
ag7
(I255
I0
I128
I255
tp1034
Rp1035
aV1
p1036
ag7
(I0
I0
I0
I255
tp1037
Rp1038
aV1
p1039
ag7
(I0
I0
I255
I255
tp1040
Rp1041
aV1
p1042
ag7
(I0
I0
I0
I255
tp1043
Rp1044
aV4
p1045
aasI1
(lp1046
I10
a(lp1047
I4
ag7
(I255
I0
I128
I255
tp1048
Rp1049
aV1
p1050
ag7
(I0
I0
I0
I255
tp1051
Rp1052
aV1
p1053
ag7
(I0
I0
I255
I255
tp1054
Rp1055
aV1
p1056
ag7
(I0
I0
I0
I255
tp1057
Rp1058
aV4
p1059
aasI2
(lp1060
I10
a(lp1061
I4
ag7
(I255
I0
I128
I255
tp1062
Rp1063
aV1
p1064
ag7
(I0
I0
I0
I255
tp1065
Rp1066
aV1
p1067
ag7
(I0
I0
I255
I255
tp1068
Rp1069
aV1
p1070
ag7
(I0
I0
I0
I255
tp1071
Rp1072
aV4
p1073
aasI3
(lp1074
I10
a(lp1075
I4
ag7
(I255
I0
I128
I255
tp1076
Rp1077
aV1
p1078
ag7
(I0
I0
I0
I255
tp1079
Rp1080
aV1
p1081
ag7
(I0
I0
I255
I255
tp1082
Rp1083
aV1
p1084
ag7
(I0
I0
I0
I255
tp1085
Rp1086
aV4
p1087
aasI4
(lp1088
I10
a(lp1089
I4
ag7
(I255
I0
I0
I255
tp1090
Rp1091
aV8
p1092
ag7
(I0
I0
I0
I255
tp1093
Rp1094
aV16
p1095
ag7
(I0
I0
I255
I255
tp1096
Rp1097
aV8
p1098
ag7
(I0
I0
I0
I255
tp1099
Rp1100
aV16
p1101
aasI5
(lp1102
I3
a(lp1103
g7
(I255
I0
I0
I255
tp1104
Rp1105
aV1
p1106
aV16
p1107
aasI6
(lp1108
I3
a(lp1109
g7
(I255
I0
I0
I255
tp1110
Rp1111
aV1
p1112
aV16
p1113
aasI7
(lp1114
I10
a(lp1115
I4
ag7
(I0
I0
I255
I255
tp1116
Rp1117
aV8
p1118
ag7
(I0
I0
I0
I255
tp1119
Rp1120
aV16
p1121
ag7
(I255
I0
I0
I255
tp1122
Rp1123
aV8
p1124
ag7
(I0
I0
I0
I255
tp1125
Rp1126
aV16
p1127
aasI8
(lp1128
I10
a(lp1129
I4
ag7
(I255
I0
I128
I255
tp1130
Rp1131
aV1
p1132
ag7
(I0
I0
I0
I255
tp1133
Rp1134
aV1
p1135
ag7
(I0
I0
I255
I255
tp1136
Rp1137
aV1
p1138
ag7
(I0
I0
I0
I255
tp1139
Rp1140
aV4
p1141
aasI9
(lp1142
I10
a(lp1143
I4
ag7
(I255
I0
I128
I255
tp1144
Rp1145
aV1
p1146
ag7
(I0
I0
I0
I255
tp1147
Rp1148
aV1
p1149
ag7
(I0
I0
I255
I255
tp1150
Rp1151
aV1
p1152
ag7
(I0
I0
I0
I255
tp1153
Rp1154
aV4
p1155
aasI10
(lp1156
I10
a(lp1157
I4
ag7
(I255
I0
I128
I255
tp1158
Rp1159
aV1
p1160
ag7
(I0
I0
I0
I255
tp1161
Rp1162
aV1
p1163
ag7
(I0
I0
I255
I255
tp1164
Rp1165
aV1
p1166
ag7
(I0
I0
I0
I255
tp1167
Rp1168
aV4
p1169
aasI11
(lp1170
I10
a(lp1171
I4
ag7
(I255
I0
I128
I255
tp1172
Rp1173
aV1
p1174
ag7
(I0
I0
I0
I255
tp1175
Rp1176
aV1
p1177
ag7
(I0
I0
I255
I255
tp1178
Rp1179
aV1
p1180
ag7
(I0
I0
I0
I255
tp1181
Rp1182
aV4
p1183
aassg21
V00:01 200ms
p1184
sba(ieffectgroup
EffectGroup
p1185
(dp1186
g3
(dp1187
I0
(lp1188
I10
a(lp1189
I4
ag7
(I255
I0
I0
I255
tp1190
Rp1191
aV1
p1192
ag7
(I0
I0
I0
I255
tp1193
Rp1194
aV1
p1195
ag7
(I255
I255
I255
I255
tp1196
Rp1197
aV1
p1198
ag7
(I0
I0
I0
I255
tp1199
Rp1200
aV1
p1201
aasI1
(lp1202
I10
a(lp1203
I4
ag7
(I255
I0
I0
I255
tp1204
Rp1205
aV1
p1206
ag7
(I0
I0
I0
I255
tp1207
Rp1208
aV1
p1209
ag7
(I255
I255
I255
I255
tp1210
Rp1211
aV1
p1212
ag7
(I0
I0
I0
I255
tp1213
Rp1214
aV1
p1215
aasI2
(lp1216
I10
a(lp1217
I4
ag7
(I255
I0
I0
I255
tp1218
Rp1219
aV1
p1220
ag7
(I0
I0
I0
I255
tp1221
Rp1222
aV1
p1223
ag7
(I255
I255
I255
I255
tp1224
Rp1225
aV1
p1226
ag7
(I0
I0
I0
I255
tp1227
Rp1228
aV1
p1229
aasI3
(lp1230
I10
a(lp1231
I4
ag7
(I255
I0
I0
I255
tp1232
Rp1233
aV1
p1234
ag7
(I0
I0
I0
I255
tp1235
Rp1236
aV1
p1237
ag7
(I255
I255
I255
I255
tp1238
Rp1239
aV1
p1240
ag7
(I0
I0
I0
I255
tp1241
Rp1242
aV1
p1243
aasI4
(lp1244
I8
a(lp1245
I2
ag7
(I128
I0
I255
I255
tp1246
Rp1247
aV16
p1248
ag7
(I0
I0
I0
I255
tp1249
Rp1250
aV32
p1251
aasI5
(lp1252
I-1
a(lp1253
asI6
(lp1254
I-1
a(lp1255
asI7
(lp1256
I8
a(lp1257
I2
ag7
(I128
I0
I255
I255
tp1258
Rp1259
aV16
p1260
ag7
(I0
I0
I0
I255
tp1261
Rp1262
aV32
p1263
aasI8
(lp1264
I10
a(lp1265
I4
ag7
(I255
I0
I0
I255
tp1266
Rp1267
aV1
p1268
ag7
(I0
I0
I0
I255
tp1269
Rp1270
aV1
p1271
ag7
(I255
I255
I255
I255
tp1272
Rp1273
aV1
p1274
ag7
(I0
I0
I0
I255
tp1275
Rp1276
aV1
p1277
aasI9
(lp1278
I10
a(lp1279
I4
ag7
(I255
I0
I0
I255
tp1280
Rp1281
aV1
p1282
ag7
(I0
I0
I0
I255
tp1283
Rp1284
aV1
p1285
ag7
(I255
I255
I255
I255
tp1286
Rp1287
aV1
p1288
ag7
(I0
I0
I0
I255
tp1289
Rp1290
aV1
p1291
aasI10
(lp1292
I10
a(lp1293
I4
ag7
(I255
I0
I0
I255
tp1294
Rp1295
aV1
p1296
ag7
(I0
I0
I0
I255
tp1297
Rp1298
aV1
p1299
ag7
(I255
I255
I255
I255
tp1300
Rp1301
aV1
p1302
ag7
(I0
I0
I0
I255
tp1303
Rp1304
aV1
p1305
aasI11
(lp1306
I10
a(lp1307
I4
ag7
(I255
I0
I0
I255
tp1308
Rp1309
aV1
p1310
ag7
(I0
I0
I0
I255
tp1311
Rp1312
aV1
p1313
ag7
(I255
I255
I255
I255
tp1314
Rp1315
aV1
p1316
ag7
(I0
I0
I0
I255
tp1317
Rp1318
aV1
p1319
aassg21
V00:01 350ms
p1320
sba(ieffectgroup
EffectGroup
p1321
(dp1322
g3
(dp1323
I0
(lp1324
I5
a(lp1325
g7
(I255
I0
I0
I255
tp1326
Rp1327
ag7
(I0
I0
I255
I255
tp1328
Rp1329
aV100
p1330
aV3
p1331
aV5
p1332
aasI1
(lp1333
I5
a(lp1334
g7
(I255
I0
I0
I255
tp1335
Rp1336
ag7
(I0
I0
I255
I255
tp1337
Rp1338
aV100
p1339
aV3
p1340
aV5
p1341
aasI2
(lp1342
I5
a(lp1343
g7
(I255
I0
I0
I255
tp1344
Rp1345
ag7
(I0
I0
I255
I255
tp1346
Rp1347
aV100
p1348
aV3
p1349
aV5
p1350
aasI3
(lp1351
I5
a(lp1352
g7
(I255
I0
I0
I255
tp1353
Rp1354
ag7
(I0
I0
I255
I255
tp1355
Rp1356
aV100
p1357
aV3
p1358
aV5
p1359
aasI4
(lp1360
I10
a(lp1361
I4
ag7
(I255
I0
I0
I255
tp1362
Rp1363
aV32
p1364
ag7
(I0
I0
I0
I255
tp1365
Rp1366
aV16
p1367
ag7
(I255
I255
I255
I255
tp1368
Rp1369
aV32
p1370
ag7
(I0
I0
I0
I255
tp1371
Rp1372
aV16
p1373
aasI5
(lp1374
I-1
aNasI6
(lp1375
I-1
a(lp1376
asI7
(lp1377
I10
a(lp1378
I4
ag7
(I255
I0
I0
I255
tp1379
Rp1380
aV32
p1381
ag7
(I0
I0
I0
I255
tp1382
Rp1383
aV16
p1384
ag7
(I255
I255
I255
I255
tp1385
Rp1386
aV32
p1387
ag7
(I0
I0
I0
I255
tp1388
Rp1389
aV16
p1390
aasI8
(lp1391
I5
a(lp1392
g7
(I255
I0
I0
I255
tp1393
Rp1394
ag7
(I0
I0
I255
I255
tp1395
Rp1396
aV100
p1397
aV3
p1398
aV5
p1399
aasI9
(lp1400
I5
a(lp1401
g7
(I255
I0
I0
I255
tp1402
Rp1403
ag7
(I0
I0
I255
I255
tp1404
Rp1405
aV100
p1406
aV3
p1407
aV5
p1408
aasI10
(lp1409
I5
a(lp1410
g7
(I255
I0
I0
I255
tp1411
Rp1412
ag7
(I0
I0
I255
I255
tp1413
Rp1414
aV100
p1415
aV3
p1416
aV5
p1417
aasI11
(lp1418
I5
a(lp1419
g7
(I255
I0
I0
I255
tp1420
Rp1421
ag7
(I0
I0
I255
I255
tp1422
Rp1423
aV100
p1424
aV3
p1425
aV5
p1426
aassg21
V00:01 360ms
p1427
sba(ieffectgroup
EffectGroup
p1428
(dp1429
g3
(dp1430
I0
(lp1431
I11
a(lp1432
I6
ag7
(I0
I0
I255
I255
tp1433
Rp1434
aV1
p1435
ag7
(I0
I0
I0
I255
tp1436
Rp1437
aV1
p1438
ag7
(I255
I255
I255
I255
tp1439
Rp1440
aV1
p1441
ag7
(I0
I0
I0
I255
tp1442
Rp1443
aV1
p1444
ag7
(I128
I0
I255
I255
tp1445
Rp1446
aV1
p1447
ag7
(I0
I0
I0
I255
tp1448
Rp1449
aV1
p1450
aasI1
(lp1451
I11
a(lp1452
I6
ag7
(I128
I0
I255
I255
tp1453
Rp1454
aV1
p1455
ag7
(I0
I0
I0
I255
tp1456
Rp1457
aV1
p1458
ag7
(I0
I0
I255
I255
tp1459
Rp1460
aV1
p1461
ag7
(I0
I0
I0
I255
tp1462
Rp1463
aV1
p1464
ag7
(I255
I255
I255
I255
tp1465
Rp1466
aV1
p1467
ag7
(I0
I0
I0
I255
tp1468
Rp1469
aV1
p1470
aasI2
(lp1471
I11
a(lp1472
I6
ag7
(I255
I255
I255
I255
tp1473
Rp1474
aV1
p1475
ag7
(I0
I0
I0
I255
tp1476
Rp1477
aV1
p1478
ag7
(I128
I0
I255
I255
tp1479
Rp1480
aV1
p1481
ag7
(I0
I0
I0
I255
tp1482
Rp1483
aV1
p1484
ag7
(I0
I0
I255
I255
tp1485
Rp1486
aV1
p1487
ag7
(I0
I0
I0
I255
tp1488
Rp1489
aV1
p1490
aasI3
(lp1491
I11
a(lp1492
I6
ag7
(I128
I0
I255
I255
tp1493
Rp1494
aV1
p1495
ag7
(I0
I0
I0
I255
tp1496
Rp1497
aV1
p1498
ag7
(I0
I0
I255
I255
tp1499
Rp1500
aV1
p1501
ag7
(I0
I0
I0
I255
tp1502
Rp1503
aV1
p1504
ag7
(I255
I255
I255
I255
tp1505
Rp1506
aV1
p1507
ag7
(I0
I0
I0
I255
tp1508
Rp1509
aV1
p1510
aasI4
(lp1511
I9
a(lp1512
I3
ag7
(I0
I255
I255
I255
tp1513
Rp1514
aV8
p1515
ag7
(I255
I0
I128
I255
tp1516
Rp1517
aV8
p1518
ag7
(I0
I0
I0
I255
tp1519
Rp1520
aV32
p1521
aasI5
(lp1522
I3
a(lp1523
g7
(I128
I0
I255
I255
tp1524
Rp1525
aV1
p1526
aV16
p1527
aasI6
(lp1528
I3
a(lp1529
g7
(I128
I0
I255
I255
tp1530
Rp1531
aV1
p1532
aV16
p1533
aasI7
(lp1534
I9
a(lp1535
I3
ag7
(I0
I255
I255
I255
tp1536
Rp1537
aV8
p1538
ag7
(I255
I0
I128
I255
tp1539
Rp1540
aV8
p1541
ag7
(I0
I0
I0
I255
tp1542
Rp1543
aV32
p1544
aasI8
(lp1545
I11
a(lp1546
I6
ag7
(I0
I0
I255
I255
tp1547
Rp1548
aV1
p1549
ag7
(I0
I0
I0
I255
tp1550
Rp1551
aV1
p1552
ag7
(I128
I0
I255
I255
tp1553
Rp1554
aV1
p1555
ag7
(I0
I0
I0
I255
tp1556
Rp1557
aV1
p1558
ag7
(I255
I255
I255
I255
tp1559
Rp1560
aV1
p1561
ag7
(I0
I0
I0
I255
tp1562
Rp1563
aV1
p1564
aasI9
(lp1565
I11
a(lp1566
I6
ag7
(I0
I0
I255
I255
tp1567
Rp1568
aV1
p1569
ag7
(I0
I0
I0
I255
tp1570
Rp1571
aV1
p1572
ag7
(I128
I0
I255
I255
tp1573
Rp1574
aV1
p1575
ag7
(I0
I0
I0
I255
tp1576
Rp1577
aV1
p1578
ag7
(I255
I255
I255
I255
tp1579
Rp1580
aV1
p1581
ag7
(I0
I0
I0
I255
tp1582
Rp1583
aV1
p1584
aasI10
(lp1585
I11
a(lp1586
I6
ag7
(I0
I0
I255
I255
tp1587
Rp1588
aV1
p1589
ag7
(I0
I0
I0
I255
tp1590
Rp1591
aV1
p1592
ag7
(I255
I255
I255
I255
tp1593
Rp1594
aV1
p1595
ag7
(I0
I0
I0
I255
tp1596
Rp1597
aV1
p1598
ag7
(I128
I0
I255
I255
tp1599
Rp1600
aV1
p1601
ag7
(I0
I0
I0
I255
tp1602
Rp1603
aV1
p1604
aasI11
(lp1605
I11
a(lp1606
I6
ag7
(I255
I255
I255
I255
tp1607
Rp1608
aV1
p1609
ag7
(I0
I0
I0
I255
tp1610
Rp1611
aV1
p1612
ag7
(I0
I0
I255
I255
tp1613
Rp1614
aV1
p1615
ag7
(I0
I0
I0
I255
tp1616
Rp1617
aV1
p1618
ag7
(I128
I0
I255
I255
tp1619
Rp1620
aV1
p1621
ag7
(I0
I0
I0
I255
tp1622
Rp1623
aV1
p1624
aassg21
V00:01 370ms
p1625
sba(ieffectgroup
EffectGroup
p1626
(dp1627
g3
(dp1628
I0
(lp1629
I10
a(lp1630
I4
ag7
(I0
I255
I0
I255
tp1631
Rp1632
aV1
p1633
ag7
(I0
I0
I0
I255
tp1634
Rp1635
aV2
p1636
ag7
(I0
I255
I90
I255
tp1637
Rp1638
aV1
p1639
ag7
(I0
I0
I0
I255
tp1640
Rp1641
aV2
p1642
aasI1
(lp1643
I11
a(lp1644
I6
ag7
(I0
I255
I0
I255
tp1645
Rp1646
aV2
p1647
ag7
(I0
I0
I0
I255
tp1648
Rp1649
aV2
p1650
ag7
(I255
I255
I255
I255
tp1651
Rp1652
aV2
p1653
ag7
(I0
I0
I0
I255
tp1654
Rp1655
aV2
p1656
ag7
(I0
I255
I90
I255
tp1657
Rp1658
aV2
p1659
ag7
(I0
I0
I0
I255
tp1660
Rp1661
aV2
p1662
aasI2
(lp1663
I11
a(lp1664
I6
ag7
(I0
I255
I0
I255
tp1665
Rp1666
aV2
p1667
ag7
(I0
I0
I0
I255
tp1668
Rp1669
aV2
p1670
ag7
(I255
I255
I255
I255
tp1671
Rp1672
aV2
p1673
ag7
(I0
I0
I0
I255
tp1674
Rp1675
aV2
p1676
ag7
(I0
I255
I90
I255
tp1677
Rp1678
aV2
p1679
ag7
(I0
I0
I0
I255
tp1680
Rp1681
aV2
p1682
aasI3
(lp1683
I10
a(lp1684
I4
ag7
(I0
I255
I0
I255
tp1685
Rp1686
aV2
p1687
ag7
(I0
I0
I0
I255
tp1688
Rp1689
aV2
p1690
ag7
(I0
I255
I90
I255
tp1691
Rp1692
aV2
p1693
ag7
(I0
I0
I0
I255
tp1694
Rp1695
aV2
p1696
aasI4
(lp1697
I8
a(lp1698
I2
ag7
(I255
I255
I255
I255
tp1699
Rp1700
aV8
p1701
ag7
(I0
I0
I0
I255
tp1702
Rp1703
aV32
p1704
aasI5
(lp1705
I-1
a(lp1706
asI6
(lp1707
I-1
a(lp1708
asI7
(lp1709
I8
a(lp1710
I2
ag7
(I255
I255
I255
I255
tp1711
Rp1712
aV8
p1713
ag7
(I0
I0
I0
I255
tp1714
Rp1715
aV32
p1716
aasI8
(lp1717
I10
a(lp1718
I4
ag7
(I0
I255
I0
I255
tp1719
Rp1720
aV2
p1721
ag7
(I0
I0
I0
I255
tp1722
Rp1723
aV2
p1724
ag7
(I0
I255
I90
I255
tp1725
Rp1726
aV2
p1727
ag7
(I0
I0
I0
I255
tp1728
Rp1729
aV2
p1730
aasI9
(lp1731
I11
a(lp1732
I6
ag7
(I0
I255
I0
I255
tp1733
Rp1734
aV2
p1735
ag7
(I0
I0
I0
I255
tp1736
Rp1737
aV2
p1738
ag7
(I255
I255
I255
I255
tp1739
Rp1740
aV2
p1741
ag7
(I0
I0
I0
I255
tp1742
Rp1743
aV2
p1744
ag7
(I0
I255
I90
I255
tp1745
Rp1746
aV2
p1747
ag7
(I0
I0
I0
I255
tp1748
Rp1749
aV2
p1750
aasI10
(lp1751
I11
a(lp1752
I6
ag7
(I0
I255
I0
I255
tp1753
Rp1754
aV2
p1755
ag7
(I0
I0
I0
I255
tp1756
Rp1757
aV2
p1758
ag7
(I255
I255
I255
I255
tp1759
Rp1760
aV2
p1761
ag7
(I0
I0
I0
I255
tp1762
Rp1763
aV2
p1764
ag7
(I0
I255
I90
I255
tp1765
Rp1766
aV2
p1767
ag7
(I0
I0
I0
I255
tp1768
Rp1769
aV2
p1770
aasI11
(lp1771
I10
a(lp1772
I4
ag7
(I0
I255
I0
I255
tp1773
Rp1774
aV2
p1775
ag7
(I0
I0
I0
I255
tp1776
Rp1777
aV2
p1778
ag7
(I0
I255
I90
I255
tp1779
Rp1780
aV2
p1781
ag7
(I0
I0
I0
I255
tp1782
Rp1783
aV2
p1784
aassg21
V00:01 400ms
p1785
sba(ieffectgroup
EffectGroup
p1786
(dp1787
g3
(dp1788
I0
(lp1789
I9
a(lp1790
I3
ag7
(I128
I0
I255
I255
tp1791
Rp1792
aV1
p1793
ag7
(I255
I0
I0
I255
tp1794
Rp1795
aV1
p1796
ag7
(I0
I0
I0
I255
tp1797
Rp1798
aV2
p1799
aasI1
(lp1800
I9
a(lp1801
I3
ag7
(I128
I0
I255
I255
tp1802
Rp1803
aV1
p1804
ag7
(I255
I0
I0
I255
tp1805
Rp1806
aV1
p1807
ag7
(I0
I0
I0
I255
tp1808
Rp1809
aV2
p1810
aasI2
(lp1811
I9
a(lp1812
I3
ag7
(I128
I0
I255
I255
tp1813
Rp1814
aV1
p1815
ag7
(I255
I0
I0
I255
tp1816
Rp1817
aV1
p1818
ag7
(I0
I0
I0
I255
tp1819
Rp1820
aV2
p1821
aasI3
(lp1822
I9
a(lp1823
I3
ag7
(I128
I0
I255
I255
tp1824
Rp1825
aV1
p1826
ag7
(I255
I0
I0
I255
tp1827
Rp1828
aV1
p1829
ag7
(I0
I0
I0
I255
tp1830
Rp1831
aV2
p1832
aasI4
(lp1833
I8
a(lp1834
I2
ag7
(I0
I255
I255
I255
tp1835
Rp1836
aV16
p1837
ag7
(I0
I0
I0
I255
tp1838
Rp1839
aV32
p1840
aasI5
(lp1841
I-1
a(lp1842
asI6
(lp1843
I-1
a(lp1844
asI7
(lp1845
I8
a(lp1846
I2
ag7
(I0
I255
I255
I255
tp1847
Rp1848
aV16
p1849
ag7
(I0
I0
I0
I255
tp1850
Rp1851
aV32
p1852
aasI8
(lp1853
I9
a(lp1854
I3
ag7
(I128
I0
I255
I255
tp1855
Rp1856
aV1
p1857
ag7
(I255
I0
I0
I255
tp1858
Rp1859
aV1
p1860
ag7
(I0
I0
I0
I255
tp1861
Rp1862
aV2
p1863
aasI9
(lp1864
I9
a(lp1865
I3
ag7
(I128
I0
I255
I255
tp1866
Rp1867
aV1
p1868
ag7
(I255
I0
I0
I255
tp1869
Rp1870
aV1
p1871
ag7
(I0
I0
I0
I255
tp1872
Rp1873
aV2
p1874
aasI10
(lp1875
I9
a(lp1876
I3
ag7
(I128
I0
I255
I255
tp1877
Rp1878
aV1
p1879
ag7
(I255
I0
I0
I255
tp1880
Rp1881
aV1
p1882
ag7
(I0
I0
I0
I255
tp1883
Rp1884
aV2
p1885
aasI11
(lp1886
I9
a(lp1887
I3
ag7
(I128
I0
I255
I255
tp1888
Rp1889
aV1
p1890
ag7
(I255
I0
I0
I255
tp1891
Rp1892
aV1
p1893
ag7
(I0
I0
I0
I255
tp1894
Rp1895
aV2
p1896
aassg21
V00:01 600ms
p1897
sba(ieffectgroup
EffectGroup
p1898
(dp1899
g3
(dp1900
I0
(lp1901
I10
a(lp1902
I4
ag7
(I51
I51
I255
I255
tp1903
Rp1904
aV1
p1905
ag7
(I0
I0
I0
I255
tp1906
Rp1907
aV1
p1908
ag7
(I255
I200
I0
I255
tp1909
Rp1910
aV1
p1911
ag7
(I0
I0
I0
I255
tp1912
Rp1913
aV1
p1914
aasI1
(lp1915
I10
a(lp1916
I4
ag7
(I255
I200
I0
I255
tp1917
Rp1918
aV1
p1919
ag7
(I0
I0
I0
I255
tp1920
Rp1921
aV1
p1922
ag7
(I50
I50
I255
I255
tp1923
Rp1924
aV1
p1925
ag7
(I0
I0
I0
I255
tp1926
Rp1927
aV1
p1928
aasI2
(lp1929
I10
a(lp1930
I4
ag7
(I50
I50
I255
I255
tp1931
Rp1932
aV1
p1933
ag7
(I0
I0
I0
I255
tp1934
Rp1935
aV1
p1936
ag7
(I255
I200
I0
I255
tp1937
Rp1938
aV1
p1939
ag7
(I0
I0
I0
I255
tp1940
Rp1941
aV1
p1942
aasI3
(lp1943
I10
a(lp1944
I4
ag7
(I255
I200
I0
I255
tp1945
Rp1946
aV1
p1947
ag7
(I0
I0
I0
I255
tp1948
Rp1949
aV1
p1950
ag7
(I50
I50
I255
I255
tp1951
Rp1952
aV1
p1953
ag7
(I0
I0
I0
I255
tp1954
Rp1955
aV1
p1956
aasI4
(lp1957
I8
a(lp1958
I2
ag7
(I255
I255
I255
I255
tp1959
Rp1960
aV16
p1961
ag7
(I0
I0
I0
I255
tp1962
Rp1963
aV32
p1964
aasI5
(lp1965
I8
a(lp1966
I2
ag7
(I255
I255
I255
I255
tp1967
Rp1968
aV16
p1969
ag7
(I0
I0
I0
I255
tp1970
Rp1971
aV32
p1972
aasI6
(lp1973
I8
a(lp1974
I2
ag7
(I255
I255
I255
I255
tp1975
Rp1976
aV16
p1977
ag7
(I0
I0
I0
I255
tp1978
Rp1979
aV32
p1980
aasI7
(lp1981
I8
a(lp1982
I2
ag7
(I255
I255
I255
I255
tp1983
Rp1984
aV16
p1985
ag7
(I0
I0
I0
I255
tp1986
Rp1987
aV32
p1988
aasI8
(lp1989
I10
a(lp1990
I4
ag7
(I255
I200
I0
I255
tp1991
Rp1992
aV1
p1993
ag7
(I0
I0
I0
I255
tp1994
Rp1995
aV1
p1996
ag7
(I50
I50
I255
I255
tp1997
Rp1998
aV1
p1999
ag7
(I0
I0
I0
I255
tp2000
Rp2001
aV1
p2002
aasI9
(lp2003
I10
a(lp2004
I4
ag7
(I50
I50
I255
I255
tp2005
Rp2006
aV1
p2007
ag7
(I0
I0
I0
I255
tp2008
Rp2009
aV1
p2010
ag7
(I255
I200
I0
I255
tp2011
Rp2012
aV1
p2013
ag7
(I0
I0
I0
I255
tp2014
Rp2015
aV1
p2016
aasI10
(lp2017
I10
a(lp2018
I4
ag7
(I255
I200
I0
I255
tp2019
Rp2020
aV1
p2021
ag7
(I0
I0
I0
I255
tp2022
Rp2023
aV1
p2024
ag7
(I50
I50
I255
I255
tp2025
Rp2026
aV1
p2027
ag7
(I0
I0
I0
I255
tp2028
Rp2029
aV1
p2030
aasI11
(lp2031
I10
a(lp2032
I4
ag7
(I50
I50
I255
I255
tp2033
Rp2034
aV1
p2035
ag7
(I0
I0
I0
I255
tp2036
Rp2037
aV1
p2038
ag7
(I255
I200
I0
I255
tp2039
Rp2040
aV1
p2041
ag7
(I0
I0
I0
I255
tp2042
Rp2043
aV1
p2044
aassg21
V00:01 700ms
p2045
sba(ieffectgroup
EffectGroup
p2046
(dp2047
g3
(dp2048
I0
(lp2049
I13
a(lp2050
I10
ag7
(I255
I0
I0
I255
tp2051
Rp2052
aV1
p2053
ag7
(I0
I0
I0
I255
tp2054
Rp2055
aV1
p2056
ag7
(I0
I0
I255
I255
tp2057
Rp2058
aV1
p2059
ag7
(I0
I0
I0
I255
tp2060
Rp2061
aV1
p2062
ag7
(I0
I255
I0
I255
tp2063
Rp2064
aV1
p2065
ag7
(I0
I0
I0
I255
tp2066
Rp2067
aV1
p2068
ag7
(I0
I0
I255
I255
tp2069
Rp2070
aV1
p2071
ag7
(I0
I0
I0
I255
tp2072
Rp2073
aV1
p2074
ag7
(I0
I255
I0
I255
tp2075
Rp2076
aV1
p2077
ag7
(I0
I0
I0
I255
tp2078
Rp2079
aV1
p2080
aasI1
(lp2081
I13
a(lp2082
I10
ag7
(I255
I0
I0
I255
tp2083
Rp2084
aV1
p2085
ag7
(I0
I0
I0
I255
tp2086
Rp2087
aV1
p2088
ag7
(I0
I0
I255
I255
tp2089
Rp2090
aV1
p2091
ag7
(I0
I0
I0
I255
tp2092
Rp2093
aV1
p2094
ag7
(I0
I255
I0
I255
tp2095
Rp2096
aV1
p2097
ag7
(I0
I0
I0
I255
tp2098
Rp2099
aV1
p2100
ag7
(I0
I0
I255
I255
tp2101
Rp2102
aV1
p2103
ag7
(I0
I0
I0
I255
tp2104
Rp2105
aV1
p2106
ag7
(I0
I255
I0
I255
tp2107
Rp2108
aV1
p2109
ag7
(I0
I0
I0
I255
tp2110
Rp2111
aV1
p2112
aasI2
(lp2113
I13
a(lp2114
I10
ag7
(I255
I0
I0
I255
tp2115
Rp2116
aV1
p2117
ag7
(I0
I0
I0
I255
tp2118
Rp2119
aV1
p2120
ag7
(I0
I0
I255
I255
tp2121
Rp2122
aV1
p2123
ag7
(I0
I0
I0
I255
tp2124
Rp2125
aV1
p2126
ag7
(I0
I255
I0
I255
tp2127
Rp2128
aV1
p2129
ag7
(I0
I0
I0
I255
tp2130
Rp2131
aV1
p2132
ag7
(I0
I0
I255
I255
tp2133
Rp2134
aV1
p2135
ag7
(I0
I0
I0
I255
tp2136
Rp2137
aV1
p2138
ag7
(I0
I255
I0
I255
tp2139
Rp2140
aV1
p2141
ag7
(I0
I0
I0
I255
tp2142
Rp2143
aV1
p2144
aasI3
(lp2145
I13
a(lp2146
I10
ag7
(I255
I0
I0
I255
tp2147
Rp2148
aV1
p2149
ag7
(I0
I0
I0
I255
tp2150
Rp2151
aV1
p2152
ag7
(I0
I0
I255
I255
tp2153
Rp2154
aV1
p2155
ag7
(I0
I0
I0
I255
tp2156
Rp2157
aV1
p2158
ag7
(I0
I255
I0
I255
tp2159
Rp2160
aV1
p2161
ag7
(I0
I0
I0
I255
tp2162
Rp2163
aV1
p2164
ag7
(I0
I0
I255
I255
tp2165
Rp2166
aV1
p2167
ag7
(I0
I0
I0
I255
tp2168
Rp2169
aV1
p2170
ag7
(I0
I255
I0
I255
tp2171
Rp2172
aV1
p2173
ag7
(I0
I0
I0
I255
tp2174
Rp2175
aV1
p2176
aasI4
(lp2177
I13
a(lp2178
I10
ag7
(I255
I0
I0
I255
tp2179
Rp2180
aV4
p2181
ag7
(I0
I0
I0
I255
tp2182
Rp2183
aV16
p2184
ag7
(I0
I0
I255
I255
tp2185
Rp2186
aV4
p2187
ag7
(I0
I0
I0
I255
tp2188
Rp2189
aV16
p2190
ag7
(I0
I255
I0
I255
tp2191
Rp2192
aV4
p2193
ag7
(I0
I0
I0
I255
tp2194
Rp2195
aV6
p2196
ag7
(I0
I0
I255
I255
tp2197
Rp2198
aV4
p2199
ag7
(I0
I0
I0
I255
tp2200
Rp2201
aV16
p2202
ag7
(I0
I255
I0
I255
tp2203
Rp2204
aV4
p2205
ag7
(I0
I0
I0
I255
tp2206
Rp2207
aV16
p2208
aasI5
(lp2209
I-1
a(lp2210
asI6
(lp2211
I-1
a(lp2212
asI7
(lp2213
I13
a(lp2214
I10
ag7
(I255
I0
I0
I255
tp2215
Rp2216
aV4
p2217
ag7
(I0
I0
I0
I255
tp2218
Rp2219
aV16
p2220
ag7
(I0
I255
I0
I255
tp2221
Rp2222
aV4
p2223
ag7
(I0
I0
I0
I255
tp2224
Rp2225
aV16
p2226
ag7
(I0
I0
I255
I255
tp2227
Rp2228
aV4
p2229
ag7
(I0
I0
I0
I255
tp2230
Rp2231
aV16
p2232
ag7
(I0
I255
I0
I255
tp2233
Rp2234
aV4
p2235
ag7
(I0
I0
I0
I255
tp2236
Rp2237
aV16
p2238
ag7
(I0
I0
I255
I255
tp2239
Rp2240
aV4
p2241
ag7
(I0
I0
I0
I255
tp2242
Rp2243
aV16
p2244
aasI8
(lp2245
I13
a(lp2246
I10
ag7
(I255
I0
I0
I255
tp2247
Rp2248
aV1
p2249
ag7
(I0
I0
I0
I255
tp2250
Rp2251
aV1
p2252
ag7
(I0
I0
I255
I255
tp2253
Rp2254
aV1
p2255
ag7
(I0
I0
I0
I255
tp2256
Rp2257
aV1
p2258
ag7
(I0
I255
I0
I255
tp2259
Rp2260
aV1
p2261
ag7
(I0
I0
I0
I255
tp2262
Rp2263
aV1
p2264
ag7
(I0
I0
I255
I255
tp2265
Rp2266
aV1
p2267
ag7
(I0
I0
I0
I255
tp2268
Rp2269
aV1
p2270
ag7
(I0
I255
I0
I255
tp2271
Rp2272
aV1
p2273
ag7
(I0
I0
I0
I255
tp2274
Rp2275
aV1
p2276
aasI9
(lp2277
I13
a(lp2278
I10
ag7
(I255
I0
I0
I255
tp2279
Rp2280
aV1
p2281
ag7
(I0
I0
I0
I255
tp2282
Rp2283
aV1
p2284
ag7
(I0
I0
I255
I255
tp2285
Rp2286
aV1
p2287
ag7
(I0
I0
I0
I255
tp2288
Rp2289
aV1
p2290
ag7
(I0
I255
I0
I255
tp2291
Rp2292
aV1
p2293
ag7
(I0
I0
I0
I255
tp2294
Rp2295
aV1
p2296
ag7
(I0
I0
I255
I255
tp2297
Rp2298
aV1
p2299
ag7
(I0
I0
I0
I255
tp2300
Rp2301
aV1
p2302
ag7
(I0
I255
I0
I255
tp2303
Rp2304
aV1
p2305
ag7
(I0
I0
I0
I255
tp2306
Rp2307
aV1
p2308
aasI10
(lp2309
I13
a(lp2310
I10
ag7
(I255
I0
I0
I255
tp2311
Rp2312
aV1
p2313
ag7
(I0
I0
I0
I255
tp2314
Rp2315
aV1
p2316
ag7
(I0
I0
I255
I255
tp2317
Rp2318
aV1
p2319
ag7
(I0
I0
I0
I255
tp2320
Rp2321
aV1
p2322
ag7
(I0
I255
I0
I255
tp2323
Rp2324
aV1
p2325
ag7
(I0
I0
I0
I255
tp2326
Rp2327
aV1
p2328
ag7
(I0
I0
I255
I255
tp2329
Rp2330
aV1
p2331
ag7
(I0
I0
I0
I255
tp2332
Rp2333
aV1
p2334
ag7
(I0
I255
I0
I255
tp2335
Rp2336
aV1
p2337
ag7
(I0
I0
I0
I255
tp2338
Rp2339
aV1
p2340
aasI11
(lp2341
I13
a(lp2342
I10
ag7
(I255
I0
I0
I255
tp2343
Rp2344
aV1
p2345
ag7
(I0
I0
I0
I255
tp2346
Rp2347
aV1
p2348
ag7
(I0
I0
I255
I255
tp2349
Rp2350
aV1
p2351
ag7
(I0
I0
I0
I255
tp2352
Rp2353
aV1
p2354
ag7
(I0
I255
I0
I255
tp2355
Rp2356
aV1
p2357
ag7
(I0
I0
I0
I255
tp2358
Rp2359
aV1
p2360
ag7
(I0
I0
I255
I255
tp2361
Rp2362
aV1
p2363
ag7
(I0
I0
I0
I255
tp2364
Rp2365
aV1
p2366
ag7
(I0
I255
I0
I255
tp2367
Rp2368
aV1
p2369
ag7
(I0
I0
I0
I255
tp2370
Rp2371
aV1
p2372
aassg21
V00:01 750ms
p2373
sba(ieffectgroup
EffectGroup
p2374
(dp2375
g3
(dp2376
I0
(lp2377
I11
a(lp2378
I6
ag7
(I255
I255
I255
I255
tp2379
Rp2380
aV1
p2381
ag7
(I0
I0
I0
I255
tp2382
Rp2383
aV3
p2384
ag7
(I0
I0
I0
I255
tp2385
Rp2386
aV1
p2387
ag7
(I255
I0
I0
I255
tp2388
Rp2389
aV1
p2390
ag7
(I0
I0
I255
I255
tp2391
Rp2392
aV1
p2393
ag7
(I0
I0
I0
I255
tp2394
Rp2395
aV1
p2396
aasI1
(lp2397
I11
a(lp2398
I6
ag7
(I255
I255
I255
I255
tp2399
Rp2400
aV1
p2401
ag7
(I0
I0
I0
I255
tp2402
Rp2403
aV3
p2404
ag7
(I0
I0
I0
I255
tp2405
Rp2406
aV1
p2407
ag7
(I0
I0
I255
I255
tp2408
Rp2409
aV1
p2410
ag7
(I255
I0
I0
I255
tp2411
Rp2412
aV1
p2413
ag7
(I0
I0
I0
I255
tp2414
Rp2415
aV1
p2416
aasI2
(lp2417
I11
a(lp2418
I6
ag7
(I255
I255
I255
I255
tp2419
Rp2420
aV1
p2421
ag7
(I0
I0
I0
I255
tp2422
Rp2423
aV3
p2424
ag7
(I0
I0
I0
I255
tp2425
Rp2426
aV1
p2427
ag7
(I255
I0
I0
I255
tp2428
Rp2429
aV1
p2430
ag7
(I0
I0
I255
I255
tp2431
Rp2432
aV1
p2433
ag7
(I0
I0
I0
I255
tp2434
Rp2435
aV1
p2436
aasI3
(lp2437
I11
a(lp2438
I6
ag7
(I255
I255
I255
I255
tp2439
Rp2440
aV1
p2441
ag7
(I0
I0
I0
I255
tp2442
Rp2443
aV3
p2444
ag7
(I0
I0
I0
I255
tp2445
Rp2446
aV1
p2447
ag7
(I0
I0
I255
I255
tp2448
Rp2449
aV1
p2450
ag7
(I255
I0
I0
I255
tp2451
Rp2452
aV1
p2453
ag7
(I0
I0
I0
I255
tp2454
Rp2455
aV1
p2456
aasI4
(lp2457
I10
a(lp2458
I4
ag7
(I255
I0
I0
I255
tp2459
Rp2460
aV16
p2461
ag7
(I0
I0
I0
I255
tp2462
Rp2463
aV64
p2464
ag7
(I0
I0
I255
I255
tp2465
Rp2466
aV16
p2467
ag7
(I0
I0
I0
I255
tp2468
Rp2469
aV64
p2470
aasI5
(lp2471
I-1
a(lp2472
asI6
(lp2473
I-1
a(lp2474
asI7
(lp2475
I10
a(lp2476
I4
ag7
(I0
I0
I255
I255
tp2477
Rp2478
aV16
p2479
ag7
(I0
I0
I0
I255
tp2480
Rp2481
aV64
p2482
ag7
(I255
I0
I0
I255
tp2483
Rp2484
aV16
p2485
ag7
(I0
I0
I0
I255
tp2486
Rp2487
aV64
p2488
aasI8
(lp2489
I11
a(lp2490
I6
ag7
(I255
I255
I255
I255
tp2491
Rp2492
aV1
p2493
ag7
(I0
I0
I0
I255
tp2494
Rp2495
aV3
p2496
ag7
(I0
I0
I0
I255
tp2497
Rp2498
aV1
p2499
ag7
(I0
I0
I255
I255
tp2500
Rp2501
aV1
p2502
ag7
(I255
I0
I0
I255
tp2503
Rp2504
aV1
p2505
ag7
(I0
I0
I0
I255
tp2506
Rp2507
aV1
p2508
aasI9
(lp2509
I11
a(lp2510
I6
ag7
(I255
I255
I255
I255
tp2511
Rp2512
aV1
p2513
ag7
(I0
I0
I0
I255
tp2514
Rp2515
aV3
p2516
ag7
(I0
I0
I0
I255
tp2517
Rp2518
aV1
p2519
ag7
(I255
I0
I0
I255
tp2520
Rp2521
aV1
p2522
ag7
(I0
I0
I255
I255
tp2523
Rp2524
aV1
p2525
ag7
(I0
I0
I0
I255
tp2526
Rp2527
aV1
p2528
aasI10
(lp2529
I11
a(lp2530
I6
ag7
(I255
I255
I255
I255
tp2531
Rp2532
aV1
p2533
ag7
(I0
I0
I0
I255
tp2534
Rp2535
aV3
p2536
ag7
(I0
I0
I0
I255
tp2537
Rp2538
aV1
p2539
ag7
(I0
I0
I255
I255
tp2540
Rp2541
aV1
p2542
ag7
(I255
I0
I0
I255
tp2543
Rp2544
aV1
p2545
ag7
(I0
I0
I0
I255
tp2546
Rp2547
aV1
p2548
aasI11
(lp2549
I11
a(lp2550
I6
ag7
(I255
I255
I255
I255
tp2551
Rp2552
aV1
p2553
ag7
(I0
I0
I0
I255
tp2554
Rp2555
aV3
p2556
ag7
(I0
I0
I0
I255
tp2557
Rp2558
aV1
p2559
ag7
(I255
I0
I0
I255
tp2560
Rp2561
aV1
p2562
ag7
(I0
I0
I255
I255
tp2563
Rp2564
aV1
p2565
ag7
(I0
I0
I0
I255
tp2566
Rp2567
aV1
p2568
aassg21
V00:01 800ms
p2569
sba(ieffectgroup
EffectGroup
p2570
(dp2571
g3
(dp2572
I0
(lp2573
I10
a(lp2574
I4
ag7
(I64
I0
I128
I255
tp2575
Rp2576
aV1
p2577
ag7
(I0
I0
I0
I255
tp2578
Rp2579
aV1
p2580
ag7
(I255
I255
I255
I255
tp2581
Rp2582
aV1
p2583
ag7
(I0
I0
I0
I255
tp2584
Rp2585
aV1
p2586
aasI1
(lp2587
I10
a(lp2588
I4
ag7
(I64
I0
I128
I255
tp2589
Rp2590
aV1
p2591
ag7
(I0
I0
I0
I255
tp2592
Rp2593
aV1
p2594
ag7
(I255
I255
I255
I255
tp2595
Rp2596
aV1
p2597
ag7
(I0
I0
I0
I255
tp2598
Rp2599
aV1
p2600
aasI2
(lp2601
I10
a(lp2602
I4
ag7
(I64
I0
I128
I255
tp2603
Rp2604
aV1
p2605
ag7
(I0
I0
I0
I255
tp2606
Rp2607
aV1
p2608
ag7
(I255
I255
I255
I255
tp2609
Rp2610
aV1
p2611
ag7
(I0
I0
I0
I255
tp2612
Rp2613
aV1
p2614
aasI3
(lp2615
I10
a(lp2616
I4
ag7
(I64
I0
I128
I255
tp2617
Rp2618
aV1
p2619
ag7
(I0
I0
I0
I255
tp2620
Rp2621
aV1
p2622
ag7
(I255
I255
I255
I255
tp2623
Rp2624
aV1
p2625
ag7
(I0
I0
I0
I255
tp2626
Rp2627
aV1
p2628
aasI4
(lp2629
I12
a(lp2630
I8
ag7
(I128
I0
I255
I255
tp2631
Rp2632
aV16
p2633
ag7
(I0
I0
I0
I255
tp2634
Rp2635
aV32
p2636
ag7
(I255
I0
I0
I255
tp2637
Rp2638
aV16
p2639
ag7
(I0
I0
I0
I255
tp2640
Rp2641
aV32
p2642
ag7
(I255
I30
I0
I255
tp2643
Rp2644
aV16
p2645
ag7
(I0
I0
I0
I255
tp2646
Rp2647
aV32
p2648
ag7
(I255
I60
I0
I255
tp2649
Rp2650
aV16
p2651
ag7
(I0
I0
I0
I255
tp2652
Rp2653
aV32
p2654
aasI5
(lp2655
I3
a(lp2656
g7
(I255
I0
I128
I255
tp2657
Rp2658
aV1
p2659
aV16
p2660
aasI6
(lp2661
I3
a(lp2662
g7
(I255
I0
I128
I255
tp2663
Rp2664
aV1
p2665
aV16
p2666
aasI7
(lp2667
I12
a(lp2668
I8
ag7
(I128
I0
I255
I255
tp2669
Rp2670
aV16
p2671
ag7
(I0
I0
I0
I255
tp2672
Rp2673
aV32
p2674
ag7
(I255
I0
I0
I255
tp2675
Rp2676
aV16
p2677
ag7
(I0
I0
I0
I255
tp2678
Rp2679
aV32
p2680
ag7
(I255
I30
I0
I255
tp2681
Rp2682
aV16
p2683
ag7
(I0
I0
I0
I255
tp2684
Rp2685
aV32
p2686
ag7
(I255
I60
I0
I255
tp2687
Rp2688
aV16
p2689
ag7
(I0
I0
I0
I255
tp2690
Rp2691
aV32
p2692
aasI8
(lp2693
I10
a(lp2694
I4
ag7
(I128
I0
I255
I255
tp2695
Rp2696
aV1
p2697
ag7
(I0
I0
I0
I255
tp2698
Rp2699
aV1
p2700
ag7
(I255
I255
I255
I255
tp2701
Rp2702
aV1
p2703
ag7
(I0
I0
I0
I255
tp2704
Rp2705
aV1
p2706
aasI9
(lp2707
I10
a(lp2708
I4
ag7
(I128
I0
I255
I255
tp2709
Rp2710
aV1
p2711
ag7
(I0
I0
I0
I255
tp2712
Rp2713
aV1
p2714
ag7
(I255
I255
I255
I255
tp2715
Rp2716
aV1
p2717
ag7
(I0
I0
I0
I255
tp2718
Rp2719
aV1
p2720
aasI10
(lp2721
I10
a(lp2722
I4
ag7
(I128
I0
I255
I255
tp2723
Rp2724
aV1
p2725
ag7
(I0
I0
I0
I255
tp2726
Rp2727
aV1
p2728
ag7
(I255
I255
I255
I255
tp2729
Rp2730
aV1
p2731
ag7
(I0
I0
I0
I255
tp2732
Rp2733
aV1
p2734
aasI11
(lp2735
I10
a(lp2736
I4
ag7
(I128
I0
I255
I255
tp2737
Rp2738
aV1
p2739
ag7
(I0
I0
I0
I255
tp2740
Rp2741
aV1
p2742
ag7
(I255
I255
I255
I255
tp2743
Rp2744
aV1
p2745
ag7
(I0
I0
I0
I255
tp2746
Rp2747
aV1
p2748
aassg21
V00:01 810ms
p2749
sba(ieffectgroup
EffectGroup
p2750
(dp2751
g3
(dp2752
I0
(lp2753
I11
a(lp2754
I6
ag7
(I128
I0
I255
I255
tp2755
Rp2756
aV1
p2757
ag7
(I0
I0
I0
I255
tp2758
Rp2759
aV1
p2760
ag7
(I0
I0
I255
I255
tp2761
Rp2762
aV1
p2763
ag7
(I0
I0
I0
I255
tp2764
Rp2765
aV1
p2766
ag7
(I0
I255
I0
I255
tp2767
Rp2768
aV1
p2769
ag7
(I0
I0
I0
I255
tp2770
Rp2771
aV1
p2772
aasI1
(lp2773
I11
a(lp2774
I6
ag7
(I128
I0
I255
I255
tp2775
Rp2776
aV1
p2777
ag7
(I0
I0
I0
I255
tp2778
Rp2779
aV1
p2780
ag7
(I0
I0
I255
I255
tp2781
Rp2782
aV1
p2783
ag7
(I0
I0
I0
I255
tp2784
Rp2785
aV1
p2786
ag7
(I0
I255
I0
I255
tp2787
Rp2788
aV1
p2789
ag7
(I0
I0
I0
I255
tp2790
Rp2791
aV1
p2792
aasI2
(lp2793
I11
a(lp2794
I6
ag7
(I128
I0
I255
I255
tp2795
Rp2796
aV1
p2797
ag7
(I0
I0
I0
I255
tp2798
Rp2799
aV1
p2800
ag7
(I0
I0
I255
I255
tp2801
Rp2802
aV1
p2803
ag7
(I0
I0
I0
I255
tp2804
Rp2805
aV1
p2806
ag7
(I0
I255
I0
I255
tp2807
Rp2808
aV1
p2809
ag7
(I0
I0
I0
I255
tp2810
Rp2811
aV1
p2812
aasI3
(lp2813
I11
a(lp2814
I6
ag7
(I128
I0
I255
I255
tp2815
Rp2816
aV1
p2817
ag7
(I0
I0
I1
I255
tp2818
Rp2819
aV1
p2820
ag7
(I0
I0
I255
I255
tp2821
Rp2822
aV1
p2823
ag7
(I0
I0
I1
I255
tp2824
Rp2825
aV1
p2826
ag7
(I0
I255
I0
I255
tp2827
Rp2828
aV1
p2829
ag7
(I0
I0
I1
I255
tp2830
Rp2831
aV1
p2832
aasI4
(lp2833
I3
a(lp2834
g7
(I128
I0
I255
I255
tp2835
Rp2836
aV1
p2837
aV16
p2838
aasI5
(lp2839
I8
a(lp2840
I2
ag7
(I128
I0
I255
I255
tp2841
Rp2842
aV4
p2843
ag7
(I0
I0
I0
I255
tp2844
Rp2845
aV16
p2846
aasI6
(lp2847
I8
a(lp2848
I2
ag7
(I128
I0
I255
I255
tp2849
Rp2850
aV4
p2851
ag7
(I0
I0
I0
I255
tp2852
Rp2853
aV16
p2854
aasI7
(lp2855
I3
a(lp2856
g7
(I128
I0
I255
I255
tp2857
Rp2858
aV1
p2859
aV16
p2860
aasI8
(lp2861
I11
a(lp2862
I6
ag7
(I128
I0
I255
I255
tp2863
Rp2864
aV1
p2865
ag7
(I0
I0
I1
I255
tp2866
Rp2867
aV1
p2868
ag7
(I0
I0
I255
I255
tp2869
Rp2870
aV1
p2871
ag7
(I0
I0
I1
I255
tp2872
Rp2873
aV1
p2874
ag7
(I0
I255
I0
I255
tp2875
Rp2876
aV1
p2877
ag7
(I0
I0
I1
I255
tp2878
Rp2879
aV1
p2880
aasI9
(lp2881
I11
a(lp2882
I6
ag7
(I128
I0
I255
I255
tp2883
Rp2884
aV1
p2885
ag7
(I0
I0
I0
I255
tp2886
Rp2887
aV1
p2888
ag7
(I0
I0
I255
I255
tp2889
Rp2890
aV1
p2891
ag7
(I0
I0
I0
I255
tp2892
Rp2893
aV1
p2894
ag7
(I0
I255
I0
I255
tp2895
Rp2896
aV1
p2897
ag7
(I0
I0
I0
I255
tp2898
Rp2899
aV1
p2900
aasI10
(lp2901
I11
a(lp2902
I6
ag7
(I128
I0
I255
I255
tp2903
Rp2904
aV1
p2905
ag7
(I0
I0
I0
I255
tp2906
Rp2907
aV1
p2908
ag7
(I0
I0
I255
I255
tp2909
Rp2910
aV1
p2911
ag7
(I0
I0
I0
I255
tp2912
Rp2913
aV1
p2914
ag7
(I0
I255
I0
I255
tp2915
Rp2916
aV1
p2917
ag7
(I0
I0
I0
I255
tp2918
Rp2919
aV1
p2920
aasI11
(lp2921
I11
a(lp2922
I6
ag7
(I128
I0
I255
I255
tp2923
Rp2924
aV1
p2925
ag7
(I0
I0
I0
I255
tp2926
Rp2927
aV1
p2928
ag7
(I0
I0
I255
I255
tp2929
Rp2930
aV1
p2931
ag7
(I0
I0
I0
I255
tp2932
Rp2933
aV1
p2934
ag7
(I0
I255
I0
I255
tp2935
Rp2936
aV1
p2937
ag7
(I0
I0
I0
I255
tp2938
Rp2939
aV1
p2940
aassg21
V00:01 900ms
p2941
sba(ieffectgroup
EffectGroup
p2942
(dp2943
g3
(dp2944
I0
(lp2945
I8
a(lp2946
I2
ag7
(I255
I30
I0
I255
tp2947
Rp2948
aV1
p2949
ag7
(I0
I5
I5
I255
tp2950
Rp2951
aV8
p2952
aasI1
(lp2953
I8
a(lp2954
I2
ag7
(I0
I255
I255
I255
tp2955
Rp2956
aV1
p2957
ag7
(I0
I0
I0
I255
tp2958
Rp2959
aV1
p2960
aasI2
(lp2961
I8
a(lp2962
I2
ag7
(I0
I255
I255
I255
tp2963
Rp2964
aV1
p2965
ag7
(I0
I0
I0
I255
tp2966
Rp2967
aV1
p2968
aasI3
(lp2969
I8
a(lp2970
I2
ag7
(I255
I30
I0
I255
tp2971
Rp2972
aV1
p2973
ag7
(I0
I5
I5
I255
tp2974
Rp2975
aV8
p2976
aasI4
(lp2977
I8
a(lp2978
I2
ag7
(I0
I0
I255
I255
tp2979
Rp2980
aV16
p2981
ag7
(I0
I0
I0
I255
tp2982
Rp2983
aV32
p2984
aasI5
(lp2985
I-1
a(lp2986
asI6
(lp2987
I-1
a(lp2988
asI7
(lp2989
I8
a(lp2990
I2
ag7
(I0
I0
I255
I255
tp2991
Rp2992
aV16
p2993
ag7
(I0
I0
I0
I255
tp2994
Rp2995
aV32
p2996
aasI8
(lp2997
I8
a(lp2998
I2
ag7
(I255
I30
I0
I255
tp2999
Rp3000
aV1
p3001
ag7
(I0
I5
I5
I255
tp3002
Rp3003
aV8
p3004
aasI9
(lp3005
I8
a(lp3006
I2
ag7
(I0
I255
I255
I255
tp3007
Rp3008
aV1
p3009
ag7
(I0
I0
I0
I255
tp3010
Rp3011
aV1
p3012
aasI10
(lp3013
I8
a(lp3014
I2
ag7
(I0
I255
I255
I255
tp3015
Rp3016
aV1
p3017
ag7
(I0
I0
I0
I255
tp3018
Rp3019
aV1
p3020
aasI11
(lp3021
I8
a(lp3022
I2
ag7
(I255
I30
I0
I255
tp3023
Rp3024
aV1
p3025
ag7
(I0
I5
I5
I255
tp3026
Rp3027
aV8
p3028
aassg21
V00:05 100ms
p3029
sba(ieffectgroup
EffectGroup
p3030
(dp3031
g3
(dp3032
I0
(lp3033
I8
a(lp3034
I2
ag7
(I0
I255
I255
I255
tp3035
Rp3036
aV2
p3037
ag7
(I0
I0
I0
I255
tp3038
Rp3039
aV2
p3040
aasI1
(lp3041
I8
a(lp3042
I2
ag7
(I0
I255
I255
I255
tp3043
Rp3044
aV2
p3045
ag7
(I0
I1
I1
I255
tp3046
Rp3047
aV2
p3048
aasI2
(lp3049
I3
a(lp3050
g7
(I0
I255
I255
I255
tp3051
Rp3052
aV1
p3053
aV16
p3054
aasI3
(lp3055
I10
a(lp3056
I4
ag7
(I0
I255
I255
I255
tp3057
Rp3058
aV1
p3059
ag7
(I0
I0
I0
I255
tp3060
Rp3061
aV1
p3062
ag7
(I0
I0
I255
I255
tp3063
Rp3064
aV1
p3065
ag7
(I0
I0
I0
I255
tp3066
Rp3067
aV16
p3068
aasI4
(lp3069
I8
a(lp3070
I2
ag7
(I0
I255
I255
I255
tp3071
Rp3072
aV16
p3073
ag7
(I0
I0
I0
I255
tp3074
Rp3075
aV32
p3076
aasI5
(lp3077
I-1
a(lp3078
asI6
(lp3079
I-1
a(lp3080
asI7
(lp3081
I8
a(lp3082
I2
ag7
(I0
I0
I255
I255
tp3083
Rp3084
aV16
p3085
ag7
(I0
I0
I0
I255
tp3086
Rp3087
aV32
p3088
aasI8
(lp3089
I10
a(lp3090
I4
ag7
(I0
I255
I255
I255
tp3091
Rp3092
aV1
p3093
ag7
(I0
I0
I0
I255
tp3094
Rp3095
aV1
p3096
ag7
(I0
I0
I255
I255
tp3097
Rp3098
aV1
p3099
ag7
(I0
I0
I0
I255
tp3100
Rp3101
aV16
p3102
aasI9
(lp3103
I3
a(lp3104
g7
(I0
I0
I255
I255
tp3105
Rp3106
aV1
p3107
aV16
p3108
aasI10
(lp3109
I8
a(lp3110
I2
ag7
(I0
I0
I255
I255
tp3111
Rp3112
aV2
p3113
ag7
(I0
I0
I1
I255
tp3114
Rp3115
aV2
p3116
aasI11
(lp3117
I8
a(lp3118
I2
ag7
(I0
I0
I255
I255
tp3119
Rp3120
aV2
p3121
ag7
(I0
I0
I0
I255
tp3122
Rp3123
aV2
p3124
aassg21
V00:05 300ms
p3125
sba(ieffectgroup
EffectGroup
p3126
(dp3127
g3
(dp3128
I0
(lp3129
I8
a(lp3130
I2
ag7
(I0
I255
I255
I255
tp3131
Rp3132
aV1
p3133
ag7
(I0
I0
I0
I255
tp3134
Rp3135
aV1
p3136
aasI1
(lp3137
I8
a(lp3138
I2
ag7
(I0
I255
I255
I255
tp3139
Rp3140
aV1
p3141
ag7
(I0
I1
I1
I255
tp3142
Rp3143
aV1
p3144
aasI2
(lp3145
I3
a(lp3146
g7
(I0
I255
I255
I255
tp3147
Rp3148
aV1
p3149
aV16
p3150
aasI3
(lp3151
I10
a(lp3152
I4
ag7
(I0
I255
I255
I255
tp3153
Rp3154
aV1
p3155
ag7
(I0
I0
I0
I255
tp3156
Rp3157
aV1
p3158
ag7
(I255
I255
I0
I255
tp3159
Rp3160
aV1
p3161
ag7
(I0
I0
I0
I255
tp3162
Rp3163
aV1
p3164
aasI4
(lp3165
I8
a(lp3166
I2
ag7
(I0
I255
I255
I255
tp3167
Rp3168
aV16
p3169
ag7
(I0
I0
I0
I255
tp3170
Rp3171
aV32
p3172
aasI5
(lp3173
I-1
a(lp3174
asI6
(lp3175
I-1
a(lp3176
asI7
(lp3177
I8
a(lp3178
I2
ag7
(I255
I255
I0
I255
tp3179
Rp3180
aV16
p3181
ag7
(I0
I0
I0
I255
tp3182
Rp3183
aV32
p3184
aasI8
(lp3185
I10
a(lp3186
I4
ag7
(I0
I255
I255
I255
tp3187
Rp3188
aV1
p3189
ag7
(I0
I0
I0
I255
tp3190
Rp3191
aV1
p3192
ag7
(I255
I255
I0
I255
tp3193
Rp3194
aV1
p3195
ag7
(I0
I0
I0
I255
tp3196
Rp3197
aV1
p3198
aasI9
(lp3199
I3
a(lp3200
g7
(I255
I255
I0
I255
tp3201
Rp3202
aV1
p3203
aV16
p3204
aasI10
(lp3205
I8
a(lp3206
I2
ag7
(I255
I255
I0
I255
tp3207
Rp3208
aV1
p3209
ag7
(I1
I1
I0
I255
tp3210
Rp3211
aV1
p3212
aasI11
(lp3213
I8
a(lp3214
I2
ag7
(I255
I255
I0
I255
tp3215
Rp3216
aV1
p3217
ag7
(I0
I0
I0
I255
tp3218
Rp3219
aV1
p3220
aassg21
V00:05 400ms
p3221
sba(ieffectgroup
EffectGroup
p3222
(dp3223
g3
(dp3224
I0
(lp3225
I8
a(lp3226
I2
ag7
(I255
I0
I128
I255
tp3227
Rp3228
aV1
p3229
ag7
(I0
I0
I0
I255
tp3230
Rp3231
aV1
p3232
aasI1
(lp3233
I8
a(lp3234
I2
ag7
(I255
I0
I128
I255
tp3235
Rp3236
aV1
p3237
ag7
(I2
I0
I1
I255
tp3238
Rp3239
aV1
p3240
aasI2
(lp3241
I3
a(lp3242
g7
(I255
I0
I128
I255
tp3243
Rp3244
aV1
p3245
aV16
p3246
aasI3
(lp3247
I10
a(lp3248
I4
ag7
(I255
I0
I128
I255
tp3249
Rp3250
aV1
p3251
ag7
(I0
I0
I0
I255
tp3252
Rp3253
aV1
p3254
ag7
(I255
I255
I0
I255
tp3255
Rp3256
aV1
p3257
ag7
(I0
I0
I0
I255
tp3258
Rp3259
aV1
p3260
aasI4
(lp3261
I8
a(lp3262
I2
ag7
(I255
I0
I128
I255
tp3263
Rp3264
aV16
p3265
ag7
(I0
I0
I0
I255
tp3266
Rp3267
aV32
p3268
aasI5
(lp3269
I-1
a(lp3270
asI6
(lp3271
I-1
a(lp3272
asI7
(lp3273
I8
a(lp3274
I2
ag7
(I255
I255
I0
I255
tp3275
Rp3276
aV16
p3277
ag7
(I0
I0
I0
I255
tp3278
Rp3279
aV32
p3280
aasI8
(lp3281
I10
a(lp3282
I4
ag7
(I255
I0
I128
I255
tp3283
Rp3284
aV1
p3285
ag7
(I0
I0
I0
I255
tp3286
Rp3287
aV1
p3288
ag7
(I255
I255
I0
I255
tp3289
Rp3290
aV1
p3291
ag7
(I0
I0
I0
I255
tp3292
Rp3293
aV1
p3294
aasI9
(lp3295
I3
a(lp3296
g7
(I255
I255
I0
I255
tp3297
Rp3298
aV1
p3299
aV16
p3300
aasI10
(lp3301
I8
a(lp3302
I2
ag7
(I255
I255
I0
I255
tp3303
Rp3304
aV1
p3305
ag7
(I1
I1
I0
I255
tp3306
Rp3307
aV1
p3308
aasI11
(lp3309
I8
a(lp3310
I2
ag7
(I255
I255
I0
I255
tp3311
Rp3312
aV1
p3313
ag7
(I0
I0
I0
I255
tp3314
Rp3315
aV1
p3316
aassg21
V00:05 500ms
p3317
sba(ieffectgroup
EffectGroup
p3318
(dp3319
g3
(dp3320
I0
(lp3321
I8
a(lp3322
I2
ag7
(I255
I0
I128
I255
tp3323
Rp3324
aV1
p3325
ag7
(I0
I0
I0
I255
tp3326
Rp3327
aV1
p3328
aasI1
(lp3329
I8
a(lp3330
I2
ag7
(I255
I0
I128
I255
tp3331
Rp3332
aV1
p3333
ag7
(I2
I0
I1
I255
tp3334
Rp3335
aV1
p3336
aasI2
(lp3337
I3
a(lp3338
g7
(I255
I0
I128
I255
tp3339
Rp3340
aV1
p3341
aV16
p3342
aasI3
(lp3343
I10
a(lp3344
I4
ag7
(I255
I0
I0
I255
tp3345
Rp3346
aV1
p3347
ag7
(I0
I0
I0
I255
tp3348
Rp3349
aV1
p3350
ag7
(I255
I0
I128
I255
tp3351
Rp3352
aV1
p3353
ag7
(I0
I0
I0
I255
tp3354
Rp3355
aV1
p3356
aasI4
(lp3357
I8
a(lp3358
I2
ag7
(I255
I0
I128
I255
tp3359
Rp3360
aV16
p3361
ag7
(I0
I0
I0
I255
tp3362
Rp3363
aV32
p3364
aasI5
(lp3365
I-1
a(lp3366
asI6
(lp3367
I-1
a(lp3368
asI7
(lp3369
I8
a(lp3370
I2
ag7
(I255
I0
I0
I255
tp3371
Rp3372
aV16
p3373
ag7
(I0
I0
I0
I255
tp3374
Rp3375
aV32
p3376
aasI8
(lp3377
I10
a(lp3378
I4
ag7
(I255
I0
I0
I255
tp3379
Rp3380
aV1
p3381
ag7
(I0
I0
I0
I255
tp3382
Rp3383
aV1
p3384
ag7
(I255
I0
I128
I255
tp3385
Rp3386
aV1
p3387
ag7
(I0
I0
I0
I255
tp3388
Rp3389
aV1
p3390
aasI9
(lp3391
I3
a(lp3392
g7
(I255
I0
I0
I255
tp3393
Rp3394
aV1
p3395
aV16
p3396
aasI10
(lp3397
I8
a(lp3398
I2
ag7
(I255
I0
I0
I255
tp3399
Rp3400
aV1
p3401
ag7
(I1
I0
I0
I255
tp3402
Rp3403
aV1
p3404
aasI11
(lp3405
I8
a(lp3406
I2
ag7
(I255
I0
I0
I255
tp3407
Rp3408
aV1
p3409
ag7
(I0
I0
I0
I255
tp3410
Rp3411
aV1
p3412
aassg21
V00:05 600ms
p3413
sba(ieffectgroup
EffectGroup
p3414
(dp3415
g3
(dp3416
I0
(lp3417
I8
a(lp3418
I2
ag7
(I0
I255
I255
I255
tp3419
Rp3420
aV1
p3421
ag7
(I0
I0
I0
I255
tp3422
Rp3423
aV0
p3424
aasI1
(lp3425
I8
a(lp3426
I2
ag7
(I0
I255
I255
I255
tp3427
Rp3428
aV1
p3429
ag7
(I0
I0
I0
I255
tp3430
Rp3431
aV1
p3432
aasI2
(lp3433
I8
a(lp3434
I2
ag7
(I0
I255
I255
I255
tp3435
Rp3436
aV1
p3437
ag7
(I0
I0
I0
I255
tp3438
Rp3439
aV1
p3440
aasI3
(lp3441
I10
a(lp3442
I4
ag7
(I0
I255
I64
I255
tp3443
Rp3444
aV8
p3445
ag7
(I0
I0
I255
I255
tp3446
Rp3447
aV8
p3448
ag7
(I255
I255
I255
I255
tp3449
Rp3450
aV2
p3451
ag7
(I0
I0
I0
I255
tp3452
Rp3453
aV24
p3454
aasI4
(lp3455
I-1
aNasI5
(lp3456
I-1
a(lp3457
asI6
(lp3458
I-1
aNasI7
(lp3459
I-1
a(lp3460
asI8
(lp3461
I10
a(lp3462
I4
ag7
(I0
I255
I64
I255
tp3463
Rp3464
aV8
p3465
ag7
(I0
I0
I255
I255
tp3466
Rp3467
aV8
p3468
ag7
(I255
I255
I255
I255
tp3469
Rp3470
aV2
p3471
ag7
(I0
I0
I0
I255
tp3472
Rp3473
aV24
p3474
aasI9
(lp3475
I8
a(lp3476
I2
ag7
(I0
I255
I255
I255
tp3477
Rp3478
aV1
p3479
ag7
(I0
I0
I0
I255
tp3480
Rp3481
aV1
p3482
aasI10
(lp3483
I8
a(lp3484
I2
ag7
(I0
I255
I255
I255
tp3485
Rp3486
aV1
p3487
ag7
(I0
I0
I0
I255
tp3488
Rp3489
aV1
p3490
aasI11
(lp3491
I8
a(lp3492
I2
ag7
(I0
I255
I255
I255
tp3493
Rp3494
aV1
p3495
ag7
(I0
I0
I0
I255
tp3496
Rp3497
aV1
p3498
aassg21
V00:06 000ms
p3499
sba(ieffectgroup
EffectGroup
p3500
(dp3501
g3
(dp3502
I0
(lp3503
I11
a(lp3504
I6
ag7
(I0
I255
I255
I255
tp3505
Rp3506
aV1
p3507
ag7
(I0
I0
I0
I255
tp3508
Rp3509
aV1
p3510
ag7
(I255
I255
I0
I255
tp3511
Rp3512
aV1
p3513
ag7
(I0
I0
I0
I255
tp3514
Rp3515
aV1
p3516
ag7
(I255
I0
I255
I255
tp3517
Rp3518
aV1
p3519
ag7
(I0
I0
I0
I255
tp3520
Rp3521
aV1
p3522
aasI1
(lp3523
I11
a(lp3524
I6
ag7
(I0
I255
I255
I255
tp3525
Rp3526
aV1
p3527
ag7
(I0
I0
I0
I255
tp3528
Rp3529
aV1
p3530
ag7
(I255
I255
I0
I255
tp3531
Rp3532
aV1
p3533
ag7
(I0
I0
I0
I255
tp3534
Rp3535
aV1
p3536
ag7
(I255
I0
I128
I255
tp3537
Rp3538
aV1
p3539
ag7
(I0
I0
I0
I255
tp3540
Rp3541
aV1
p3542
aasI2
(lp3543
I11
a(lp3544
I6
ag7
(I0
I255
I255
I255
tp3545
Rp3546
aV1
p3547
ag7
(I0
I0
I0
I255
tp3548
Rp3549
aV1
p3550
ag7
(I255
I255
I0
I255
tp3551
Rp3552
aV1
p3553
ag7
(I0
I0
I0
I255
tp3554
Rp3555
aV1
p3556
ag7
(I255
I0
I128
I255
tp3557
Rp3558
aV1
p3559
ag7
(I0
I0
I0
I255
tp3560
Rp3561
aV1
p3562
aasI3
(lp3563
I11
a(lp3564
I6
ag7
(I0
I255
I255
I255
tp3565
Rp3566
aV1
p3567
ag7
(I0
I0
I0
I255
tp3568
Rp3569
aV1
p3570
ag7
(I255
I255
I0
I255
tp3571
Rp3572
aV1
p3573
ag7
(I0
I0
I0
I255
tp3574
Rp3575
aV1
p3576
ag7
(I255
I0
I255
I255
tp3577
Rp3578
aV1
p3579
ag7
(I0
I0
I0
I255
tp3580
Rp3581
aV1
p3582
aasI4
(lp3583
I11
a(lp3584
I6
ag7
(I255
I0
I0
I255
tp3585
Rp3586
aV16
p3587
ag7
(I0
I0
I0
I255
tp3588
Rp3589
aV32
p3590
ag7
(I0
I255
I0
I255
tp3591
Rp3592
aV16
p3593
ag7
(I0
I0
I0
I255
tp3594
Rp3595
aV32
p3596
ag7
(I0
I0
I255
I255
tp3597
Rp3598
aV16
p3599
ag7
(I0
I0
I0
I255
tp3600
Rp3601
aV32
p3602
aasI5
(lp3603
I-1
a(lp3604
asI6
(lp3605
I-1
a(lp3606
asI7
(lp3607
I11
a(lp3608
I6
ag7
(I255
I0
I0
I255
tp3609
Rp3610
aV16
p3611
ag7
(I0
I0
I0
I255
tp3612
Rp3613
aV32
p3614
ag7
(I0
I255
I0
I255
tp3615
Rp3616
aV16
p3617
ag7
(I0
I0
I0
I255
tp3618
Rp3619
aV32
p3620
ag7
(I0
I0
I255
I255
tp3621
Rp3622
aV16
p3623
ag7
(I0
I0
I0
I255
tp3624
Rp3625
aV32
p3626
aasI8
(lp3627
I11
a(lp3628
I6
ag7
(I0
I255
I255
I255
tp3629
Rp3630
aV1
p3631
ag7
(I0
I0
I0
I255
tp3632
Rp3633
aV1
p3634
ag7
(I255
I255
I0
I255
tp3635
Rp3636
aV1
p3637
ag7
(I0
I0
I0
I255
tp3638
Rp3639
aV1
p3640
ag7
(I255
I0
I255
I255
tp3641
Rp3642
aV1
p3643
ag7
(I0
I0
I0
I255
tp3644
Rp3645
aV1
p3646
aasI9
(lp3647
I11
a(lp3648
I6
ag7
(I0
I255
I255
I255
tp3649
Rp3650
aV1
p3651
ag7
(I0
I0
I0
I255
tp3652
Rp3653
aV1
p3654
ag7
(I255
I255
I0
I255
tp3655
Rp3656
aV1
p3657
ag7
(I0
I0
I0
I255
tp3658
Rp3659
aV1
p3660
ag7
(I255
I0
I255
I255
tp3661
Rp3662
aV1
p3663
ag7
(I0
I0
I0
I255
tp3664
Rp3665
aV1
p3666
aasI10
(lp3667
I11
a(lp3668
I6
ag7
(I0
I255
I255
I255
tp3669
Rp3670
aV1
p3671
ag7
(I0
I0
I0
I255
tp3672
Rp3673
aV1
p3674
ag7
(I255
I255
I0
I255
tp3675
Rp3676
aV1
p3677
ag7
(I0
I0
I0
I255
tp3678
Rp3679
aV1
p3680
ag7
(I255
I0
I255
I255
tp3681
Rp3682
aV1
p3683
ag7
(I0
I0
I0
I255
tp3684
Rp3685
aV1
p3686
aasI11
(lp3687
I11
a(lp3688
I6
ag7
(I0
I255
I255
I255
tp3689
Rp3690
aV1
p3691
ag7
(I0
I0
I0
I255
tp3692
Rp3693
aV1
p3694
ag7
(I255
I255
I0
I255
tp3695
Rp3696
aV1
p3697
ag7
(I0
I0
I0
I255
tp3698
Rp3699
aV1
p3700
ag7
(I255
I0
I255
I255
tp3701
Rp3702
aV1
p3703
ag7
(I0
I0
I0
I255
tp3704
Rp3705
aV1
p3706
aassg21
V00:07 000ms
p3707
sba(ieffectgroup
EffectGroup
p3708
(dp3709
g3
(dp3710
I0
(lp3711
I11
a(lp3712
I6
ag7
(I255
I0
I0
I255
tp3713
Rp3714
aV1
p3715
ag7
(I0
I0
I255
I255
tp3716
Rp3717
aV1
p3718
ag7
(I0
I0
I0
I255
tp3719
Rp3720
aV8
p3721
ag7
(I175
I96
I96
I255
tp3722
Rp3723
aV1
p3724
ag7
(I0
I0
I0
I255
tp3725
Rp3726
aV8
p3727
ag7
(I0
I0
I0
I255
tp3728
Rp3729
aV1
p3730
aasI1
(lp3731
I11
a(lp3732
I6
ag7
(I255
I0
I0
I255
tp3733
Rp3734
aV1
p3735
ag7
(I0
I0
I255
I255
tp3736
Rp3737
aV1
p3738
ag7
(I0
I0
I0
I255
tp3739
Rp3740
aV8
p3741
ag7
(I175
I96
I96
I255
tp3742
Rp3743
aV1
p3744
ag7
(I0
I0
I0
I255
tp3745
Rp3746
aV8
p3747
ag7
(I0
I0
I0
I255
tp3748
Rp3749
aV1
p3750
aasI2
(lp3751
I11
a(lp3752
I6
ag7
(I255
I0
I0
I255
tp3753
Rp3754
aV1
p3755
ag7
(I0
I0
I255
I255
tp3756
Rp3757
aV1
p3758
ag7
(I0
I0
I0
I255
tp3759
Rp3760
aV8
p3761
ag7
(I175
I96
I96
I255
tp3762
Rp3763
aV1
p3764
ag7
(I0
I0
I0
I255
tp3765
Rp3766
aV8
p3767
ag7
(I0
I0
I0
I255
tp3768
Rp3769
aV1
p3770
aasI3
(lp3771
I11
a(lp3772
I6
ag7
(I255
I0
I0
I255
tp3773
Rp3774
aV1
p3775
ag7
(I0
I0
I255
I255
tp3776
Rp3777
aV1
p3778
ag7
(I0
I0
I0
I255
tp3779
Rp3780
aV8
p3781
ag7
(I175
I96
I96
I255
tp3782
Rp3783
aV1
p3784
ag7
(I0
I0
I0
I255
tp3785
Rp3786
aV8
p3787
ag7
(I0
I0
I0
I255
tp3788
Rp3789
aV1
p3790
aasI4
(lp3791
I-1
a(lp3792
asI5
(lp3793
I5
a(lp3794
g7
(I255
I0
I0
I255
tp3795
Rp3796
ag7
(I0
I0
I255
I255
tp3797
Rp3798
aV10
p3799
aV20
p3800
aV75
p3801
aasI6
(lp3802
I5
a(lp3803
g7
(I255
I0
I0
I255
tp3804
Rp3805
ag7
(I0
I0
I255
I255
tp3806
Rp3807
aV10
p3808
aV20
p3809
aV75
p3810
aasI7
(lp3811
I-1
a(lp3812
asI8
(lp3813
I11
a(lp3814
I6
ag7
(I255
I0
I0
I255
tp3815
Rp3816
aV1
p3817
ag7
(I0
I0
I255
I255
tp3818
Rp3819
aV1
p3820
ag7
(I0
I0
I0
I255
tp3821
Rp3822
aV8
p3823
ag7
(I175
I96
I96
I255
tp3824
Rp3825
aV1
p3826
ag7
(I0
I0
I0
I255
tp3827
Rp3828
aV8
p3829
ag7
(I0
I0
I0
I255
tp3830
Rp3831
aV1
p3832
aasI9
(lp3833
I11
a(lp3834
I6
ag7
(I255
I0
I0
I255
tp3835
Rp3836
aV1
p3837
ag7
(I0
I0
I255
I255
tp3838
Rp3839
aV1
p3840
ag7
(I0
I0
I0
I255
tp3841
Rp3842
aV8
p3843
ag7
(I175
I96
I96
I255
tp3844
Rp3845
aV1
p3846
ag7
(I0
I0
I0
I255
tp3847
Rp3848
aV8
p3849
ag7
(I0
I0
I0
I255
tp3850
Rp3851
aV1
p3852
aasI10
(lp3853
I11
a(lp3854
I6
ag7
(I255
I0
I0
I255
tp3855
Rp3856
aV1
p3857
ag7
(I0
I0
I255
I255
tp3858
Rp3859
aV1
p3860
ag7
(I0
I0
I0
I255
tp3861
Rp3862
aV8
p3863
ag7
(I175
I96
I96
I255
tp3864
Rp3865
aV1
p3866
ag7
(I0
I0
I0
I255
tp3867
Rp3868
aV8
p3869
ag7
(I0
I0
I0
I255
tp3870
Rp3871
aV1
p3872
aasI11
(lp3873
I11
a(lp3874
I6
ag7
(I255
I0
I0
I255
tp3875
Rp3876
aV1
p3877
ag7
(I0
I0
I255
I255
tp3878
Rp3879
aV1
p3880
ag7
(I0
I0
I0
I255
tp3881
Rp3882
aV8
p3883
ag7
(I175
I96
I96
I255
tp3884
Rp3885
aV1
p3886
ag7
(I0
I0
I0
I255
tp3887
Rp3888
aV8
p3889
ag7
(I0
I0
I0
I255
tp3890
Rp3891
aV1
p3892
aassg21
V00:12 000ms
p3893
sba(ieffectgroup
EffectGroup
p3894
(dp3895
g3
(dp3896
I0
(lp3897
I9
a(lp3898
I3
ag7
(I255
I255
I255
I255
tp3899
Rp3900
aV1
p3901
ag7
(I255
I0
I0
I255
tp3902
Rp3903
aV1
p3904
ag7
(I0
I0
I0
I255
tp3905
Rp3906
aV12
p3907
aasI1
(lp3908
I9
a(lp3909
I3
ag7
(I255
I255
I255
I255
tp3910
Rp3911
aV1
p3912
ag7
(I255
I0
I0
I255
tp3913
Rp3914
aV1
p3915
ag7
(I0
I0
I0
I255
tp3916
Rp3917
aV12
p3918
aasI2
(lp3919
I9
a(lp3920
I3
ag7
(I255
I255
I255
I255
tp3921
Rp3922
aV1
p3923
ag7
(I255
I0
I0
I255
tp3924
Rp3925
aV1
p3926
ag7
(I0
I0
I0
I255
tp3927
Rp3928
aV12
p3929
aasI3
(lp3930
I9
a(lp3931
I3
ag7
(I255
I255
I255
I255
tp3932
Rp3933
aV1
p3934
ag7
(I255
I0
I0
I255
tp3935
Rp3936
aV1
p3937
ag7
(I0
I0
I0
I255
tp3938
Rp3939
aV12
p3940
aasI4
(lp3941
I-1
aNasI5
(lp3942
I10
a(lp3943
I4
ag7
(I64
I0
I128
I255
tp3944
Rp3945
aV6
p3946
ag7
(I0
I0
I0
I255
tp3947
Rp3948
aV32
p3949
ag7
(I0
I0
I255
I255
tp3950
Rp3951
aV6
p3952
ag7
(I0
I0
I0
I255
tp3953
Rp3954
aV32
p3955
aasI6
(lp3956
I10
a(lp3957
I4
ag7
(I64
I0
I128
I255
tp3958
Rp3959
aV6
p3960
ag7
(I0
I0
I0
I255
tp3961
Rp3962
aV32
p3963
ag7
(I0
I0
I255
I255
tp3964
Rp3965
aV6
p3966
ag7
(I0
I0
I0
I255
tp3967
Rp3968
aV32
p3969
aasI7
(lp3970
I-1
aNasI8
(lp3971
I9
a(lp3972
I3
ag7
(I255
I255
I255
I255
tp3973
Rp3974
aV1
p3975
ag7
(I255
I0
I0
I255
tp3976
Rp3977
aV1
p3978
ag7
(I0
I0
I0
I255
tp3979
Rp3980
aV12
p3981
aasI9
(lp3982
I9
a(lp3983
I3
ag7
(I255
I255
I255
I255
tp3984
Rp3985
aV1
p3986
ag7
(I255
I0
I0
I255
tp3987
Rp3988
aV1
p3989
ag7
(I0
I0
I0
I255
tp3990
Rp3991
aV12
p3992
aasI10
(lp3993
I9
a(lp3994
I3
ag7
(I255
I255
I255
I255
tp3995
Rp3996
aV1
p3997
ag7
(I255
I0
I0
I255
tp3998
Rp3999
aV1
p4000
ag7
(I0
I0
I0
I255
tp4001
Rp4002
aV12
p4003
aasI11
(lp4004
I9
a(lp4005
I3
ag7
(I255
I255
I255
I255
tp4006
Rp4007
aV1
p4008
ag7
(I255
I0
I0
I255
tp4009
Rp4010
aV1
p4011
ag7
(I0
I0
I0
I255
tp4012
Rp4013
aV12
p4014
aassg21
V00:12 600ms
p4015
sba(ieffectgroup
EffectGroup
p4016
(dp4017
g3
(dp4018
I0
(lp4019
I13
a(lp4020
I10
ag7
(I64
I0
I128
I255
tp4021
Rp4022
aV1
p4023
ag7
(I0
I255
I0
I255
tp4024
Rp4025
aV1
p4026
ag7
(I0
I0
I0
I255
tp4027
Rp4028
aV12
p4029
ag7
(I0
I255
I0
I255
tp4030
Rp4031
aV1
p4032
ag7
(I0
I0
I255
I255
tp4033
Rp4034
aV1
p4035
ag7
(I0
I0
I0
I255
tp4036
Rp4037
aV12
p4038
ag7
(I0
I0
I255
I255
tp4039
Rp4040
aV1
p4041
ag7
(I64
I0
I128
I255
tp4042
Rp4043
aV1
p4044
ag7
(I0
I0
I0
I255
tp4045
Rp4046
aV20
p4047
ag7
(I0
I0
I0
I255
tp4048
Rp4049
aV1
p4050
aasI1
(lp4051
I13
a(lp4052
I10
ag7
(I64
I0
I128
I255
tp4053
Rp4054
aV2
p4055
ag7
(I0
I255
I0
I255
tp4056
Rp4057
aV1
p4058
ag7
(I0
I0
I0
I255
tp4059
Rp4060
aV12
p4061
ag7
(I0
I255
I0
I255
tp4062
Rp4063
aV1
p4064
ag7
(I0
I0
I255
I255
tp4065
Rp4066
aV1
p4067
ag7
(I0
I0
I0
I255
tp4068
Rp4069
aV12
p4070
ag7
(I0
I0
I255
I255
tp4071
Rp4072
aV1
p4073
ag7
(I128
I0
I255
I255
tp4074
Rp4075
aV2
p4076
ag7
(I0
I0
I0
I255
tp4077
Rp4078
aV20
p4079
ag7
(I0
I0
I0
I255
tp4080
Rp4081
aV1
p4082
aasI2
(lp4083
I13
a(lp4084
I10
ag7
(I64
I0
I128
I255
tp4085
Rp4086
aV1
p4087
ag7
(I0
I255
I0
I255
tp4088
Rp4089
aV1
p4090
ag7
(I0
I0
I0
I255
tp4091
Rp4092
aV12
p4093
ag7
(I0
I255
I0
I255
tp4094
Rp4095
aV1
p4096
ag7
(I0
I0
I255
I255
tp4097
Rp4098
aV1
p4099
ag7
(I0
I0
I0
I255
tp4100
Rp4101
aV12
p4102
ag7
(I0
I0
I255
I255
tp4103
Rp4104
aV1
p4105
ag7
(I64
I0
I128
I255
tp4106
Rp4107
aV2
p4108
ag7
(I0
I0
I0
I255
tp4109
Rp4110
aV20
p4111
ag7
(I0
I0
I0
I255
tp4112
Rp4113
aV1
p4114
aasI3
(lp4115
I13
a(lp4116
I10
ag7
(I64
I0
I128
I255
tp4117
Rp4118
aV1
p4119
ag7
(I0
I255
I0
I255
tp4120
Rp4121
aV1
p4122
ag7
(I0
I0
I0
I255
tp4123
Rp4124
aV12
p4125
ag7
(I0
I255
I0
I255
tp4126
Rp4127
aV1
p4128
ag7
(I0
I0
I255
I255
tp4129
Rp4130
aV1
p4131
ag7
(I0
I0
I0
I255
tp4132
Rp4133
aV12
p4134
ag7
(I0
I0
I255
I255
tp4135
Rp4136
aV1
p4137
ag7
(I64
I0
I128
I255
tp4138
Rp4139
aV2
p4140
ag7
(I0
I0
I0
I255
tp4141
Rp4142
aV20
p4143
ag7
(I0
I0
I0
I255
tp4144
Rp4145
aV1
p4146
aasI4
(lp4147
I-1
a(lp4148
asI5
(lp4149
I10
a(lp4150
I4
ag7
(I0
I255
I0
I255
tp4151
Rp4152
aV32
p4153
ag7
(I0
I0
I0
I255
tp4154
Rp4155
aV32
p4156
ag7
(I0
I0
I255
I255
tp4157
Rp4158
aV32
p4159
ag7
(I0
I0
I0
I255
tp4160
Rp4161
aV32
p4162
aasI6
(lp4163
I10
a(lp4164
I4
ag7
(I0
I255
I0
I255
tp4165
Rp4166
aV32
p4167
ag7
(I0
I0
I0
I255
tp4168
Rp4169
aV32
p4170
ag7
(I0
I0
I255
I255
tp4171
Rp4172
aV32
p4173
ag7
(I0
I0
I0
I255
tp4174
Rp4175
aV32
p4176
aasI7
(lp4177
I-1
aNasI8
(lp4178
I13
a(lp4179
I10
ag7
(I64
I0
I128
I255
tp4180
Rp4181
aV1
p4182
ag7
(I0
I255
I0
I255
tp4183
Rp4184
aV1
p4185
ag7
(I0
I0
I0
I255
tp4186
Rp4187
aV12
p4188
ag7
(I0
I255
I0
I255
tp4189
Rp4190
aV1
p4191
ag7
(I0
I0
I255
I255
tp4192
Rp4193
aV1
p4194
ag7
(I0
I0
I0
I255
tp4195
Rp4196
aV12
p4197
ag7
(I0
I0
I255
I255
tp4198
Rp4199
aV1
p4200
ag7
(I64
I0
I128
I255
tp4201
Rp4202
aV2
p4203
ag7
(I0
I0
I0
I255
tp4204
Rp4205
aV20
p4206
ag7
(I0
I0
I0
I255
tp4207
Rp4208
aV1
p4209
aasI9
(lp4210
I13
a(lp4211
I10
ag7
(I64
I0
I128
I255
tp4212
Rp4213
aV1
p4214
ag7
(I0
I255
I0
I255
tp4215
Rp4216
aV1
p4217
ag7
(I0
I0
I0
I255
tp4218
Rp4219
aV12
p4220
ag7
(I0
I255
I0
I255
tp4221
Rp4222
aV1
p4223
ag7
(I0
I0
I255
I255
tp4224
Rp4225
aV1
p4226
ag7
(I0
I0
I0
I255
tp4227
Rp4228
aV12
p4229
ag7
(I0
I0
I255
I255
tp4230
Rp4231
aV1
p4232
ag7
(I64
I0
I128
I255
tp4233
Rp4234
aV2
p4235
ag7
(I0
I0
I0
I255
tp4236
Rp4237
aV20
p4238
ag7
(I0
I0
I0
I255
tp4239
Rp4240
aV1
p4241
aasI10
(lp4242
I13
a(lp4243
I10
ag7
(I64
I0
I128
I255
tp4244
Rp4245
aV1
p4246
ag7
(I0
I255
I0
I255
tp4247
Rp4248
aV1
p4249
ag7
(I0
I0
I0
I255
tp4250
Rp4251
aV12
p4252
ag7
(I0
I255
I0
I255
tp4253
Rp4254
aV1
p4255
ag7
(I0
I0
I255
I255
tp4256
Rp4257
aV1
p4258
ag7
(I0
I0
I0
I255
tp4259
Rp4260
aV12
p4261
ag7
(I0
I0
I255
I255
tp4262
Rp4263
aV1
p4264
ag7
(I64
I0
I128
I255
tp4265
Rp4266
aV2
p4267
ag7
(I0
I0
I0
I255
tp4268
Rp4269
aV20
p4270
ag7
(I0
I0
I0
I255
tp4271
Rp4272
aV1
p4273
aasI11
(lp4274
I13
a(lp4275
I10
ag7
(I64
I0
I128
I255
tp4276
Rp4277
aV1
p4278
ag7
(I0
I255
I0
I255
tp4279
Rp4280
aV1
p4281
ag7
(I0
I0
I0
I255
tp4282
Rp4283
aV12
p4284
ag7
(I0
I255
I0
I255
tp4285
Rp4286
aV1
p4287
ag7
(I0
I0
I255
I255
tp4288
Rp4289
aV1
p4290
ag7
(I0
I0
I0
I255
tp4291
Rp4292
aV12
p4293
ag7
(I0
I0
I255
I255
tp4294
Rp4295
aV1
p4296
ag7
(I64
I0
I128
I255
tp4297
Rp4298
aV2
p4299
ag7
(I0
I0
I0
I255
tp4300
Rp4301
aV20
p4302
ag7
(I0
I0
I0
I255
tp4303
Rp4304
aV1
p4305
aassg21
V00:13 000ms
p4306
sba(ieffectgroup
EffectGroup
p4307
(dp4308
g3
(dp4309
I0
(lp4310
I9
a(lp4311
I3
ag7
(I0
I0
I255
I255
tp4312
Rp4313
aV1
p4314
ag7
(I0
I255
I0
I255
tp4315
Rp4316
aV1
p4317
ag7
(I0
I0
I0
I255
tp4318
Rp4319
aV2
p4320
aasI1
(lp4321
I8
a(lp4322
I2
ag7
(I128
I0
I255
I255
tp4323
Rp4324
aV1
p4325
ag7
(I0
I0
I0
I255
tp4326
Rp4327
aV1
p4328
aasI2
(lp4329
I8
a(lp4330
I2
ag7
(I128
I0
I255
I255
tp4331
Rp4332
aV1
p4333
ag7
(I0
I0
I0
I255
tp4334
Rp4335
aV1
p4336
aasI3
(lp4337
I9
a(lp4338
I3
ag7
(I0
I0
I255
I255
tp4339
Rp4340
aV1
p4341
ag7
(I0
I255
I0
I255
tp4342
Rp4343
aV1
p4344
ag7
(I0
I0
I0
I255
tp4345
Rp4346
aV2
p4347
aasI4
(lp4348
I-1
aNasI5
(lp4349
I-1
a(lp4350
asI6
(lp4351
I-1
a(lp4352
asI7
(lp4353
I-1
aNasI8
(lp4354
I9
a(lp4355
I3
ag7
(I0
I0
I255
I255
tp4356
Rp4357
aV1
p4358
ag7
(I0
I255
I0
I255
tp4359
Rp4360
aV1
p4361
ag7
(I0
I0
I0
I255
tp4362
Rp4363
aV2
p4364
aasI9
(lp4365
I8
a(lp4366
I2
ag7
(I128
I0
I255
I255
tp4367
Rp4368
aV1
p4369
ag7
(I0
I0
I0
I255
tp4370
Rp4371
aV1
p4372
aasI10
(lp4373
I8
a(lp4374
I2
ag7
(I128
I0
I255
I255
tp4375
Rp4376
aV1
p4377
ag7
(I0
I0
I0
I255
tp4378
Rp4379
aV1
p4380
aasI11
(lp4381
I9
a(lp4382
I3
ag7
(I0
I0
I255
I255
tp4383
Rp4384
aV1
p4385
ag7
(I0
I255
I0
I255
tp4386
Rp4387
aV1
p4388
ag7
(I0
I0
I0
I255
tp4389
Rp4390
aV2
p4391
aassg21
V00:13 500ms
p4392
sba(ieffectgroup
EffectGroup
p4393
(dp4394
g3
(dp4395
I0
(lp4396
I12
a(lp4397
I8
ag7
(I255
I0
I0
I255
tp4398
Rp4399
aV1
p4400
ag7
(I0
I0
I0
I255
tp4401
Rp4402
aV1
p4403
ag7
(I255
I30
I0
I255
tp4404
Rp4405
aV1
p4406
ag7
(I0
I0
I0
I255
tp4407
Rp4408
aV1
p4409
ag7
(I255
I60
I0
I255
tp4410
Rp4411
aV1
p4412
ag7
(I0
I0
I0
I255
tp4413
Rp4414
aV1
p4415
ag7
(I30
I0
I255
I255
tp4416
Rp4417
aV1
p4418
ag7
(I0
I0
I0
I255
tp4419
Rp4420
aV1
p4421
aasI1
(lp4422
I12
a(lp4423
I8
ag7
(I255
I0
I0
I255
tp4424
Rp4425
aV1
p4426
ag7
(I0
I0
I0
I255
tp4427
Rp4428
aV1
p4429
ag7
(I255
I30
I0
I255
tp4430
Rp4431
aV1
p4432
ag7
(I0
I0
I0
I255
tp4433
Rp4434
aV1
p4435
ag7
(I255
I60
I0
I255
tp4436
Rp4437
aV1
p4438
ag7
(I0
I0
I0
I255
tp4439
Rp4440
aV1
p4441
ag7
(I30
I0
I255
I255
tp4442
Rp4443
aV1
p4444
ag7
(I0
I0
I0
I255
tp4445
Rp4446
aV1
p4447
aasI2
(lp4448
I12
a(lp4449
I8
ag7
(I255
I0
I0
I255
tp4450
Rp4451
aV1
p4452
ag7
(I0
I0
I0
I255
tp4453
Rp4454
aV1
p4455
ag7
(I255
I30
I0
I255
tp4456
Rp4457
aV1
p4458
ag7
(I0
I0
I0
I255
tp4459
Rp4460
aV1
p4461
ag7
(I255
I60
I0
I255
tp4462
Rp4463
aV1
p4464
ag7
(I0
I0
I0
I255
tp4465
Rp4466
aV1
p4467
ag7
(I30
I0
I255
I255
tp4468
Rp4469
aV1
p4470
ag7
(I0
I0
I0
I255
tp4471
Rp4472
aV1
p4473
aasI3
(lp4474
I12
a(lp4475
I8
ag7
(I255
I0
I0
I255
tp4476
Rp4477
aV1
p4478
ag7
(I0
I0
I0
I255
tp4479
Rp4480
aV1
p4481
ag7
(I255
I30
I0
I255
tp4482
Rp4483
aV1
p4484
ag7
(I0
I0
I0
I255
tp4485
Rp4486
aV1
p4487
ag7
(I255
I60
I0
I255
tp4488
Rp4489
aV1
p4490
ag7
(I0
I0
I0
I255
tp4491
Rp4492
aV1
p4493
ag7
(I30
I0
I255
I255
tp4494
Rp4495
aV1
p4496
ag7
(I0
I0
I0
I255
tp4497
Rp4498
aV1
p4499
aasI4
(lp4500
I3
a(lp4501
g7
(I0
I0
I255
I255
tp4502
Rp4503
aV1
p4504
aV16
p4505
aasI5
(lp4506
I-1
a(lp4507
asI6
(lp4508
I-1
a(lp4509
asI7
(lp4510
I3
a(lp4511
g7
(I0
I255
I0
I255
tp4512
Rp4513
aV1
p4514
aV16
p4515
aasI8
(lp4516
I12
a(lp4517
I8
ag7
(I255
I0
I0
I255
tp4518
Rp4519
aV1
p4520
ag7
(I0
I0
I0
I255
tp4521
Rp4522
aV1
p4523
ag7
(I255
I30
I0
I255
tp4524
Rp4525
aV1
p4526
ag7
(I0
I0
I0
I255
tp4527
Rp4528
aV1
p4529
ag7
(I255
I60
I0
I255
tp4530
Rp4531
aV1
p4532
ag7
(I0
I0
I0
I255
tp4533
Rp4534
aV1
p4535
ag7
(I0
I255
I0
I255
tp4536
Rp4537
aV1
p4538
ag7
(I0
I0
I0
I255
tp4539
Rp4540
aV1
p4541
aasI9
(lp4542
I12
a(lp4543
I8
ag7
(I255
I0
I0
I255
tp4544
Rp4545
aV1
p4546
ag7
(I0
I0
I0
I255
tp4547
Rp4548
aV1
p4549
ag7
(I255
I30
I0
I255
tp4550
Rp4551
aV1
p4552
ag7
(I0
I0
I0
I255
tp4553
Rp4554
aV1
p4555
ag7
(I255
I60
I0
I255
tp4556
Rp4557
aV1
p4558
ag7
(I0
I0
I0
I255
tp4559
Rp4560
aV1
p4561
ag7
(I0
I255
I0
I255
tp4562
Rp4563
aV1
p4564
ag7
(I0
I0
I0
I255
tp4565
Rp4566
aV1
p4567
aasI10
(lp4568
I12
a(lp4569
I8
ag7
(I255
I0
I0
I255
tp4570
Rp4571
aV1
p4572
ag7
(I0
I0
I0
I255
tp4573
Rp4574
aV1
p4575
ag7
(I255
I30
I0
I255
tp4576
Rp4577
aV1
p4578
ag7
(I0
I0
I0
I255
tp4579
Rp4580
aV1
p4581
ag7
(I255
I60
I0
I255
tp4582
Rp4583
aV1
p4584
ag7
(I0
I0
I0
I255
tp4585
Rp4586
aV1
p4587
ag7
(I0
I255
I0
I255
tp4588
Rp4589
aV1
p4590
ag7
(I0
I0
I0
I255
tp4591
Rp4592
aV1
p4593
aasI11
(lp4594
I12
a(lp4595
I8
ag7
(I255
I0
I0
I255
tp4596
Rp4597
aV1
p4598
ag7
(I0
I0
I0
I255
tp4599
Rp4600
aV1
p4601
ag7
(I255
I30
I0
I255
tp4602
Rp4603
aV1
p4604
ag7
(I0
I0
I0
I255
tp4605
Rp4606
aV1
p4607
ag7
(I255
I60
I0
I255
tp4608
Rp4609
aV1
p4610
ag7
(I0
I0
I0
I255
tp4611
Rp4612
aV1
p4613
ag7
(I0
I255
I0
I255
tp4614
Rp4615
aV1
p4616
ag7
(I0
I0
I0
I255
tp4617
Rp4618
aV1
p4619
aassg21
V00:34 500ms
p4620
sba(ieffectgroup
EffectGroup
p4621
(dp4622
g3
(dp4623
I0
(lp4624
I10
a(lp4625
I4
ag7
(I128
I0
I255
I255
tp4626
Rp4627
aV1
p4628
ag7
(I0
I0
I0
I255
tp4629
Rp4630
aV1
p4631
ag7
(I255
I0
I0
I255
tp4632
Rp4633
aV1
p4634
ag7
(I0
I0
I0
I255
tp4635
Rp4636
aV1
p4637
aasI1
(lp4638
I8
a(lp4639
I2
ag7
(I128
I0
I255
I255
tp4640
Rp4641
aV1
p4642
ag7
(I0
I0
I0
I255
tp4643
Rp4644
aV1
p4645
aasI2
(lp4646
I8
a(lp4647
I2
ag7
(I128
I0
I255
I255
tp4648
Rp4649
aV1
p4650
ag7
(I0
I0
I0
I255
tp4651
Rp4652
aV1
p4653
aasI3
(lp4654
I8
a(lp4655
I2
ag7
(I128
I0
I255
I255
tp4656
Rp4657
aV1
p4658
ag7
(I0
I0
I0
I255
tp4659
Rp4660
aV1
p4661
aasI4
(lp4662
I-1
aNasI5
(lp4663
I9
a(lp4664
I3
ag7
(I255
I0
I0
I255
tp4665
Rp4666
aV8
p4667
ag7
(I128
I0
I255
I255
tp4668
Rp4669
aV8
p4670
ag7
(I0
I0
I0
I255
tp4671
Rp4672
aV32
p4673
aasI6
(lp4674
I9
a(lp4675
I3
ag7
(I255
I0
I0
I255
tp4676
Rp4677
aV8
p4678
ag7
(I128
I0
I255
I255
tp4679
Rp4680
aV8
p4681
ag7
(I0
I0
I0
I255
tp4682
Rp4683
aV32
p4684
aasI7
(lp4685
I-1
aNasI8
(lp4686
I8
a(lp4687
I2
ag7
(I128
I0
I255
I255
tp4688
Rp4689
aV1
p4690
ag7
(I0
I0
I0
I255
tp4691
Rp4692
aV1
p4693
aasI9
(lp4694
I8
a(lp4695
I2
ag7
(I128
I0
I255
I255
tp4696
Rp4697
aV1
p4698
ag7
(I0
I0
I0
I255
tp4699
Rp4700
aV1
p4701
aasI10
(lp4702
I8
a(lp4703
I2
ag7
(I128
I0
I255
I255
tp4704
Rp4705
aV1
p4706
ag7
(I0
I0
I0
I255
tp4707
Rp4708
aV1
p4709
aasI11
(lp4710
I10
a(lp4711
I4
ag7
(I128
I0
I255
I255
tp4712
Rp4713
aV1
p4714
ag7
(I0
I0
I0
I255
tp4715
Rp4716
aV1
p4717
ag7
(I255
I0
I0
I255
tp4718
Rp4719
aV1
p4720
ag7
(I0
I0
I0
I255
tp4721
Rp4722
aV1
p4723
aassg21
V00:50 110ms
p4724
sba(ieffectgroup
EffectGroup
p4725
(dp4726
g3
(dp4727
I0
(lp4728
I-1
aNasI1
(lp4729
I-1
aNasI2
(lp4730
I-1
aNasI3
(lp4731
I-1
aNasI4
(lp4732
I-1
aNasI5
(lp4733
I-1
aNasI6
(lp4734
I-1
aNasI7
(lp4735
I-1
aNasI8
(lp4736
I-1
aNasI9
(lp4737
I-1
aNasI10
(lp4738
I-1
aNasI11
(lp4739
I-1
aNassg21
V00:51 000ms
p4740
sba.