(lp0
(ieffectgroup
EffectGroup
p1
(dp2
S'm_effects'
p3
(dp4
I0
(lp5
I10
a(lp6
I4
acwx._gdi
Colour
p7
(I125
I0
I255
I255
tp8
Rp9
aV1
p10
ag7
(I0
I0
I0
I255
tp11
Rp12
aV2
p13
ag7
(I255
I255
I255
I255
tp14
Rp15
aV1
p16
ag7
(I0
I0
I0
I255
tp17
Rp18
aV2
p19
aasI1
(lp20
I10
a(lp21
I4
ag7
(I125
I0
I255
I255
tp22
Rp23
aV1
p24
ag7
(I0
I0
I0
I255
tp25
Rp26
aV2
p27
ag7
(I255
I255
I255
I255
tp28
Rp29
aV1
p30
ag7
(I0
I0
I0
I255
tp31
Rp32
aV2
p33
aasI2
(lp34
I10
a(lp35
I4
ag7
(I128
I0
I255
I255
tp36
Rp37
aV1
p38
ag7
(I0
I0
I0
I255
tp39
Rp40
aV2
p41
ag7
(I255
I255
I255
I255
tp42
Rp43
aV1
p44
ag7
(I0
I0
I0
I255
tp45
Rp46
aV2
p47
aasI3
(lp48
I10
a(lp49
I4
ag7
(I128
I0
I255
I255
tp50
Rp51
aV1
p52
ag7
(I0
I0
I0
I255
tp53
Rp54
aV2
p55
ag7
(I255
I255
I255
I255
tp56
Rp57
aV1
p58
ag7
(I0
I0
I0
I255
tp59
Rp60
aV2
p61
aasI4
(lp62
I12
a(lp63
I8
ag7
(I128
I0
I255
I255
tp64
Rp65
aV1
p66
ag7
(I0
I0
I0
I255
tp67
Rp68
aV8
p69
ag7
(I255
I0
I0
I255
tp70
Rp71
aV1
p72
ag7
(I0
I0
I0
I255
tp73
Rp74
aV8
p75
ag7
(I128
I128
I0
I255
tp76
Rp77
aV1
p78
ag7
(I0
I0
I0
I255
tp79
Rp80
aV8
p81
ag7
(I255
I255
I0
I255
tp82
Rp83
aV1
p84
ag7
(I0
I0
I0
I255
tp85
Rp86
aV8
p87
aasI5
(lp88
I-1
a(lp89
asI6
(lp90
I-1
a(lp91
asI7
(lp92
I12
a(lp93
I8
ag7
(I128
I0
I255
I255
tp94
Rp95
aV1
p96
ag7
(I0
I0
I0
I255
tp97
Rp98
aV8
p99
ag7
(I255
I0
I0
I255
tp100
Rp101
aV1
p102
ag7
(I0
I0
I0
I255
tp103
Rp104
aV8
p105
ag7
(I128
I128
I0
I255
tp106
Rp107
aV1
p108
ag7
(I0
I0
I0
I255
tp109
Rp110
aV8
p111
ag7
(I255
I255
I0
I255
tp112
Rp113
aV1
p114
ag7
(I0
I0
I0
I255
tp115
Rp116
aV8
p117
aasI8
(lp118
I10
a(lp119
I4
ag7
(I64
I0
I128
I255
tp120
Rp121
aV1
p122
ag7
(I0
I0
I0
I255
tp123
Rp124
aV8
p125
ag7
(I96
I96
I96
I255
tp126
Rp127
aV1
p128
ag7
(I0
I0
I0
I255
tp129
Rp130
aV8
p131
aasI9
(lp132
I10
a(lp133
I4
ag7
(I64
I0
I128
I255
tp134
Rp135
aV1
p136
ag7
(I0
I0
I0
I255
tp137
Rp138
aV8
p139
ag7
(I96
I96
I96
I255
tp140
Rp141
aV1
p142
ag7
(I0
I0
I0
I255
tp143
Rp144
aV8
p145
aasI10
(lp146
I10
a(lp147
I4
ag7
(I64
I0
I128
I255
tp148
Rp149
aV1
p150
ag7
(I0
I0
I0
I255
tp151
Rp152
aV8
p153
ag7
(I96
I96
I96
I255
tp154
Rp155
aV1
p156
ag7
(I0
I0
I0
I255
tp157
Rp158
aV8
p159
aasI11
(lp160
I10
a(lp161
I4
ag7
(I64
I0
I128
I255
tp162
Rp163
aV1
p164
ag7
(I0
I0
I0
I255
tp165
Rp166
aV8
p167
ag7
(I96
I96
I96
I255
tp168
Rp169
aV1
p170
ag7
(I0
I0
I0
I255
tp171
Rp172
aV8
p173
aassS'm_time'
p174
V00:01 150ms
p175
sba(ieffectgroup
EffectGroup
p176
(dp177
g3
(dp178
I0
(lp179
I12
a(lp180
I8
ag7
(I255
I0
I0
I255
tp181
Rp182
aV1
p183
ag7
(I0
I0
I0
I255
tp184
Rp185
aV12
p186
ag7
(I255
I30
I0
I255
tp187
Rp188
aV1
p189
ag7
(I0
I0
I0
I255
tp190
Rp191
aV12
p192
ag7
(I255
I60
I0
I255
tp193
Rp194
aV1
p195
ag7
(I0
I0
I0
I255
tp196
Rp197
aV12
p198
ag7
(I255
I0
I30
I255
tp199
Rp200
aV1
p201
ag7
(I0
I0
I0
I255
tp202
Rp203
aV12
p204
aasI1
(lp205
I12
a(lp206
I8
ag7
(I255
I0
I0
I255
tp207
Rp208
aV1
p209
ag7
(I0
I0
I0
I255
tp210
Rp211
aV12
p212
ag7
(I255
I30
I0
I255
tp213
Rp214
aV1
p215
ag7
(I0
I0
I0
I255
tp216
Rp217
aV12
p218
ag7
(I255
I60
I0
I255
tp219
Rp220
aV1
p221
ag7
(I0
I0
I0
I255
tp222
Rp223
aV12
p224
ag7
(I255
I0
I30
I255
tp225
Rp226
aV1
p227
ag7
(I0
I0
I0
I255
tp228
Rp229
aV12
p230
aasI2
(lp231
I12
a(lp232
I8
ag7
(I255
I0
I0
I255
tp233
Rp234
aV1
p235
ag7
(I0
I0
I0
I255
tp236
Rp237
aV12
p238
ag7
(I255
I30
I0
I255
tp239
Rp240
aV1
p241
ag7
(I0
I0
I0
I255
tp242
Rp243
aV12
p244
ag7
(I255
I60
I0
I255
tp245
Rp246
aV1
p247
ag7
(I0
I0
I0
I255
tp248
Rp249
aV12
p250
ag7
(I255
I0
I30
I255
tp251
Rp252
aV1
p253
ag7
(I0
I0
I0
I255
tp254
Rp255
aV12
p256
aasI3
(lp257
I12
a(lp258
I8
ag7
(I255
I0
I0
I255
tp259
Rp260
aV1
p261
ag7
(I0
I0
I0
I255
tp262
Rp263
aV12
p264
ag7
(I255
I30
I0
I255
tp265
Rp266
aV1
p267
ag7
(I0
I0
I0
I255
tp268
Rp269
aV12
p270
ag7
(I255
I60
I0
I255
tp271
Rp272
aV1
p273
ag7
(I0
I0
I0
I255
tp274
Rp275
aV12
p276
ag7
(I255
I0
I30
I255
tp277
Rp278
aV1
p279
ag7
(I0
I0
I0
I255
tp280
Rp281
aV12
p282
aasI4
(lp283
I-1
aNasI5
(lp284
I10
a(lp285
I4
ag7
(I128
I64
I0
I255
tp286
Rp287
aV4
p288
ag7
(I0
I0
I0
I255
tp289
Rp290
aV32
p291
ag7
(I255
I0
I0
I255
tp292
Rp293
aV4
p294
ag7
(I0
I0
I0
I255
tp295
Rp296
aV32
p297
aasI6
(lp298
I10
a(lp299
I4
ag7
(I255
I0
I0
I255
tp300
Rp301
aV4
p302
ag7
(I0
I0
I0
I255
tp303
Rp304
aV32
p305
ag7
(I128
I30
I0
I255
tp306
Rp307
aV4
p308
ag7
(I0
I0
I0
I255
tp309
Rp310
aV32
p311
aasI7
(lp312
I-1
aNasI8
(lp313
I12
a(lp314
I8
ag7
(I255
I0
I0
I255
tp315
Rp316
aV1
p317
ag7
(I0
I0
I0
I255
tp318
Rp319
aV12
p320
ag7
(I255
I30
I0
I255
tp321
Rp322
aV1
p323
ag7
(I0
I0
I0
I255
tp324
Rp325
aV12
p326
ag7
(I255
I60
I0
I255
tp327
Rp328
aV1
p329
ag7
(I0
I0
I0
I255
tp330
Rp331
aV12
p332
ag7
(I255
I0
I30
I255
tp333
Rp334
aV1
p335
ag7
(I0
I0
I0
I255
tp336
Rp337
aV12
p338
aasI9
(lp339
I12
a(lp340
I8
ag7
(I255
I0
I0
I255
tp341
Rp342
aV1
p343
ag7
(I0
I0
I0
I255
tp344
Rp345
aV12
p346
ag7
(I255
I30
I0
I255
tp347
Rp348
aV1
p349
ag7
(I0
I0
I0
I255
tp350
Rp351
aV12
p352
ag7
(I255
I60
I0
I255
tp353
Rp354
aV1
p355
ag7
(I0
I0
I0
I255
tp356
Rp357
aV12
p358
ag7
(I255
I0
I30
I255
tp359
Rp360
aV1
p361
ag7
(I0
I0
I0
I255
tp362
Rp363
aV12
p364
aasI10
(lp365
I12
a(lp366
I8
ag7
(I255
I0
I0
I255
tp367
Rp368
aV1
p369
ag7
(I0
I0
I0
I255
tp370
Rp371
aV12
p372
ag7
(I255
I30
I0
I255
tp373
Rp374
aV1
p375
ag7
(I0
I0
I0
I255
tp376
Rp377
aV12
p378
ag7
(I255
I60
I0
I255
tp379
Rp380
aV1
p381
ag7
(I0
I0
I0
I255
tp382
Rp383
aV12
p384
ag7
(I255
I0
I30
I255
tp385
Rp386
aV1
p387
ag7
(I0
I0
I0
I255
tp388
Rp389
aV12
p390
aasI11
(lp391
I12
a(lp392
I8
ag7
(I255
I0
I0
I255
tp393
Rp394
aV1
p395
ag7
(I0
I0
I0
I255
tp396
Rp397
aV12
p398
ag7
(I255
I30
I0
I255
tp399
Rp400
aV1
p401
ag7
(I0
I0
I0
I255
tp402
Rp403
aV12
p404
ag7
(I255
I60
I0
I255
tp405
Rp406
aV1
p407
ag7
(I0
I0
I0
I255
tp408
Rp409
aV12
p410
ag7
(I255
I0
I30
I255
tp411
Rp412
aV1
p413
ag7
(I0
I0
I0
I255
tp414
Rp415
aV12
p416
aassg174
V00:01 170ms
p417
sba(ieffectgroup
EffectGroup
p418
(dp419
g3
(dp420
I0
(lp421
I10
a(lp422
I4
ag7
(I0
I255
I0
I255
tp423
Rp424
aV1
p425
ag7
(I0
I0
I0
I255
tp426
Rp427
aV16
p428
ag7
(I0
I255
I90
I255
tp429
Rp430
aV1
p431
ag7
(I0
I0
I0
I255
tp432
Rp433
aV16
p434
aasI1
(lp435
I11
a(lp436
I6
ag7
(I0
I255
I0
I255
tp437
Rp438
aV2
p439
ag7
(I0
I0
I0
I255
tp440
Rp441
aV16
p442
ag7
(I96
I96
I96
I255
tp443
Rp444
aV2
p445
ag7
(I0
I0
I0
I255
tp446
Rp447
aV32
p448
ag7
(I0
I255
I90
I255
tp449
Rp450
aV2
p451
ag7
(I0
I0
I0
I255
tp452
Rp453
aV16
p454
aasI2
(lp455
I11
a(lp456
I6
ag7
(I0
I255
I0
I255
tp457
Rp458
aV2
p459
ag7
(I0
I0
I0
I255
tp460
Rp461
aV16
p462
ag7
(I96
I96
I96
I255
tp463
Rp464
aV2
p465
ag7
(I0
I0
I0
I255
tp466
Rp467
aV32
p468
ag7
(I0
I255
I90
I255
tp469
Rp470
aV2
p471
ag7
(I0
I0
I0
I255
tp472
Rp473
aV16
p474
aasI3
(lp475
I10
a(lp476
I4
ag7
(I0
I255
I0
I255
tp477
Rp478
aV1
p479
ag7
(I0
I0
I0
I255
tp480
Rp481
aV16
p482
ag7
(I0
I255
I90
I255
tp483
Rp484
aV1
p485
ag7
(I0
I0
I0
I255
tp486
Rp487
aV16
p488
aasI4
(lp489
I-1
aNasI5
(lp490
I8
a(lp491
I2
ag7
(I96
I96
I96
I255
tp492
Rp493
aV8
p494
ag7
(I0
I0
I0
I255
tp495
Rp496
aV32
p497
aasI6
(lp498
I8
a(lp499
I2
ag7
(I100
I50
I0
I255
tp500
Rp501
aV8
p502
ag7
(I0
I0
I0
I255
tp503
Rp504
aV32
p505
aasI7
(lp506
I-1
aNasI8
(lp507
I10
a(lp508
I4
ag7
(I0
I255
I0
I255
tp509
Rp510
aV2
p511
ag7
(I0
I0
I0
I255
tp512
Rp513
aV16
p514
ag7
(I0
I255
I90
I255
tp515
Rp516
aV2
p517
ag7
(I0
I0
I0
I255
tp518
Rp519
aV16
p520
aasI9
(lp521
I11
a(lp522
I6
ag7
(I0
I255
I0
I255
tp523
Rp524
aV2
p525
ag7
(I0
I0
I0
I255
tp526
Rp527
aV16
p528
ag7
(I96
I96
I96
I255
tp529
Rp530
aV2
p531
ag7
(I0
I0
I0
I255
tp532
Rp533
aV32
p534
ag7
(I0
I255
I90
I255
tp535
Rp536
aV2
p537
ag7
(I0
I0
I0
I255
tp538
Rp539
aV16
p540
aasI10
(lp541
I11
a(lp542
I6
ag7
(I0
I255
I0
I255
tp543
Rp544
aV2
p545
ag7
(I0
I0
I0
I255
tp546
Rp547
aV16
p548
ag7
(I96
I96
I96
I255
tp549
Rp550
aV2
p551
ag7
(I0
I0
I0
I255
tp552
Rp553
aV32
p554
ag7
(I0
I255
I90
I255
tp555
Rp556
aV2
p557
ag7
(I0
I0
I0
I255
tp558
Rp559
aV16
p560
aasI11
(lp561
I10
a(lp562
I4
ag7
(I0
I255
I0
I255
tp563
Rp564
aV2
p565
ag7
(I0
I0
I0
I255
tp566
Rp567
aV16
p568
ag7
(I0
I255
I90
I255
tp569
Rp570
aV2
p571
ag7
(I0
I0
I0
I255
tp572
Rp573
aV16
p574
aassg174
V00:01 400ms
p575
sba(ieffectgroup
EffectGroup
p576
(dp577
g3
(dp578
I0
(lp579
I5
a(lp580
g7
(I0
I255
I0
I255
tp581
Rp582
ag7
(I0
I0
I255
I255
tp583
Rp584
aV50
p585
aV1
p586
aV32
p587
aasI1
(lp588
I5
a(lp589
g7
(I0
I255
I0
I255
tp590
Rp591
ag7
(I0
I0
I255
I255
tp592
Rp593
aV50
p594
aV1
p595
aV32
p596
aasI2
(lp597
I5
a(lp598
g7
(I0
I255
I0
I255
tp599
Rp600
ag7
(I0
I0
I255
I255
tp601
Rp602
aV50
p603
aV1
p604
aV32
p605
aasI3
(lp606
I5
a(lp607
g7
(I0
I255
I0
I255
tp608
Rp609
ag7
(I0
I0
I255
I255
tp610
Rp611
aV50
p612
aV1
p613
aV32
p614
aasI4
(lp615
I-1
aNasI5
(lp616
I5
a(lp617
g7
(I0
I0
I255
I255
tp618
Rp619
ag7
(I0
I255
I0
I255
tp620
Rp621
aV200
p622
aV1
p623
aV32
p624
aasI6
(lp625
I5
a(lp626
g7
(I0
I0
I255
I255
tp627
Rp628
ag7
(I0
I255
I0
I255
tp629
Rp630
aV200
p631
aV1
p632
aV32
p633
aasI7
(lp634
I-1
aNasI8
(lp635
I5
a(lp636
g7
(I0
I255
I0
I255
tp637
Rp638
ag7
(I0
I0
I255
I255
tp639
Rp640
aV50
p641
aV1
p642
aV32
p643
aasI9
(lp644
I5
a(lp645
g7
(I0
I255
I0
I255
tp646
Rp647
ag7
(I0
I0
I255
I255
tp648
Rp649
aV50
p650
aV1
p651
aV32
p652
aasI10
(lp653
I5
a(lp654
g7
(I0
I255
I0
I255
tp655
Rp656
ag7
(I0
I0
I255
I255
tp657
Rp658
aV50
p659
aV1
p660
aV32
p661
aasI11
(lp662
I5
a(lp663
g7
(I0
I255
I0
I255
tp664
Rp665
ag7
(I0
I0
I255
I255
tp666
Rp667
aV50
p668
aV1
p669
aV32
p670
aassg174
V00:01 500ms
p671
sba(ieffectgroup
EffectGroup
p672
(dp673
g3
(dp674
I0
(lp675
I9
a(lp676
I3
ag7
(I128
I0
I255
I255
tp677
Rp678
aV1
p679
ag7
(I255
I0
I0
I255
tp680
Rp681
aV1
p682
ag7
(I0
I0
I0
I255
tp683
Rp684
aV6
p685
aasI1
(lp686
I9
a(lp687
I3
ag7
(I128
I0
I255
I255
tp688
Rp689
aV1
p690
ag7
(I255
I0
I0
I255
tp691
Rp692
aV1
p693
ag7
(I0
I0
I0
I255
tp694
Rp695
aV6
p696
aasI2
(lp697
I9
a(lp698
I3
ag7
(I128
I0
I255
I255
tp699
Rp700
aV1
p701
ag7
(I255
I0
I0
I255
tp702
Rp703
aV1
p704
ag7
(I0
I0
I0
I255
tp705
Rp706
aV6
p707
aasI3
(lp708
I9
a(lp709
I3
ag7
(I128
I0
I255
I255
tp710
Rp711
aV1
p712
ag7
(I255
I0
I0
I255
tp713
Rp714
aV1
p715
ag7
(I0
I0
I0
I255
tp716
Rp717
aV6
p718
aasI4
(lp719
I-1
a(lp720
asI5
(lp721
I8
a(lp722
I2
ag7
(I0
I255
I255
I255
tp723
Rp724
aV16
p725
ag7
(I0
I0
I0
I255
tp726
Rp727
aV32
p728
aasI6
(lp729
I8
a(lp730
I2
ag7
(I0
I255
I255
I255
tp731
Rp732
aV16
p733
ag7
(I0
I0
I0
I255
tp734
Rp735
aV32
p736
aasI7
(lp737
I-1
aNasI8
(lp738
I9
a(lp739
I3
ag7
(I128
I0
I255
I255
tp740
Rp741
aV1
p742
ag7
(I255
I0
I0
I255
tp743
Rp744
aV1
p745
ag7
(I0
I0
I0
I255
tp746
Rp747
aV6
p748
aasI9
(lp749
I9
a(lp750
I3
ag7
(I128
I0
I255
I255
tp751
Rp752
aV1
p753
ag7
(I255
I0
I0
I255
tp754
Rp755
aV1
p756
ag7
(I0
I0
I0
I255
tp757
Rp758
aV6
p759
aasI10
(lp760
I9
a(lp761
I3
ag7
(I128
I0
I255
I255
tp762
Rp763
aV1
p764
ag7
(I255
I0
I0
I255
tp765
Rp766
aV1
p767
ag7
(I0
I0
I0
I255
tp768
Rp769
aV6
p770
aasI11
(lp771
I9
a(lp772
I3
ag7
(I128
I0
I255
I255
tp773
Rp774
aV1
p775
ag7
(I255
I0
I0
I255
tp776
Rp777
aV1
p778
ag7
(I0
I0
I0
I255
tp779
Rp780
aV6
p781
aassg174
V00:01 600ms
p782
sba(ieffectgroup
EffectGroup
p783
(dp784
g3
(dp785
I0
(lp786
I10
a(lp787
I4
ag7
(I51
I51
I255
I255
tp788
Rp789
aV1
p790
ag7
(I0
I0
I0
I255
tp791
Rp792
aV1
p793
ag7
(I255
I200
I0
I255
tp794
Rp795
aV1
p796
ag7
(I0
I0
I0
I255
tp797
Rp798
aV1
p799
aasI1
(lp800
I10
a(lp801
I4
ag7
(I255
I200
I0
I255
tp802
Rp803
aV1
p804
ag7
(I0
I0
I0
I255
tp805
Rp806
aV1
p807
ag7
(I50
I50
I255
I255
tp808
Rp809
aV1
p810
ag7
(I0
I0
I0
I255
tp811
Rp812
aV1
p813
aasI2
(lp814
I10
a(lp815
I4
ag7
(I50
I50
I255
I255
tp816
Rp817
aV1
p818
ag7
(I0
I0
I0
I255
tp819
Rp820
aV1
p821
ag7
(I255
I200
I0
I255
tp822
Rp823
aV1
p824
ag7
(I0
I0
I0
I255
tp825
Rp826
aV1
p827
aasI3
(lp828
I10
a(lp829
I4
ag7
(I255
I200
I0
I255
tp830
Rp831
aV1
p832
ag7
(I0
I0
I0
I255
tp833
Rp834
aV1
p835
ag7
(I50
I50
I255
I255
tp836
Rp837
aV1
p838
ag7
(I0
I0
I0
I255
tp839
Rp840
aV1
p841
aasI4
(lp842
I-1
aNasI5
(lp843
I8
a(lp844
I2
ag7
(I255
I255
I255
I255
tp845
Rp846
aV16
p847
ag7
(I0
I0
I0
I255
tp848
Rp849
aV32
p850
aasI6
(lp851
I8
a(lp852
I2
ag7
(I255
I255
I255
I255
tp853
Rp854
aV16
p855
ag7
(I0
I0
I0
I255
tp856
Rp857
aV32
p858
aasI7
(lp859
I-1
a(lp860
asI8
(lp861
I10
a(lp862
I4
ag7
(I255
I200
I0
I255
tp863
Rp864
aV1
p865
ag7
(I0
I0
I0
I255
tp866
Rp867
aV1
p868
ag7
(I50
I50
I255
I255
tp869
Rp870
aV1
p871
ag7
(I0
I0
I0
I255
tp872
Rp873
aV1
p874
aasI9
(lp875
I10
a(lp876
I4
ag7
(I50
I50
I255
I255
tp877
Rp878
aV1
p879
ag7
(I0
I0
I0
I255
tp880
Rp881
aV1
p882
ag7
(I255
I200
I0
I255
tp883
Rp884
aV1
p885
ag7
(I0
I0
I0
I255
tp886
Rp887
aV1
p888
aasI10
(lp889
I10
a(lp890
I4
ag7
(I255
I200
I0
I255
tp891
Rp892
aV1
p893
ag7
(I0
I0
I0
I255
tp894
Rp895
aV1
p896
ag7
(I50
I50
I255
I255
tp897
Rp898
aV1
p899
ag7
(I0
I0
I0
I255
tp900
Rp901
aV1
p902
aasI11
(lp903
I10
a(lp904
I4
ag7
(I50
I50
I255
I255
tp905
Rp906
aV1
p907
ag7
(I0
I0
I0
I255
tp908
Rp909
aV1
p910
ag7
(I255
I200
I0
I255
tp911
Rp912
aV1
p913
ag7
(I0
I0
I0
I255
tp914
Rp915
aV1
p916
aassg174
V00:01 700ms
p917
sba(ieffectgroup
EffectGroup
p918
(dp919
g3
(dp920
I0
(lp921
I13
a(lp922
I10
ag7
(I255
I0
I0
I255
tp923
Rp924
aV1
p925
ag7
(I0
I0
I0
I255
tp926
Rp927
aV1
p928
ag7
(I0
I0
I255
I255
tp929
Rp930
aV1
p931
ag7
(I0
I0
I0
I255
tp932
Rp933
aV1
p934
ag7
(I0
I255
I0
I255
tp935
Rp936
aV1
p937
ag7
(I0
I0
I0
I255
tp938
Rp939
aV1
p940
ag7
(I0
I0
I255
I255
tp941
Rp942
aV1
p943
ag7
(I0
I0
I0
I255
tp944
Rp945
aV1
p946
ag7
(I0
I255
I0
I255
tp947
Rp948
aV1
p949
ag7
(I0
I0
I0
I255
tp950
Rp951
aV1
p952
aasI1
(lp953
I13
a(lp954
I10
ag7
(I255
I0
I0
I255
tp955
Rp956
aV1
p957
ag7
(I0
I0
I0
I255
tp958
Rp959
aV1
p960
ag7
(I0
I0
I255
I255
tp961
Rp962
aV1
p963
ag7
(I0
I0
I0
I255
tp964
Rp965
aV1
p966
ag7
(I0
I255
I0
I255
tp967
Rp968
aV1
p969
ag7
(I0
I0
I0
I255
tp970
Rp971
aV1
p972
ag7
(I0
I0
I255
I255
tp973
Rp974
aV1
p975
ag7
(I0
I0
I0
I255
tp976
Rp977
aV1
p978
ag7
(I0
I255
I0
I255
tp979
Rp980
aV1
p981
ag7
(I0
I0
I0
I255
tp982
Rp983
aV1
p984
aasI2
(lp985
I13
a(lp986
I10
ag7
(I255
I0
I0
I255
tp987
Rp988
aV1
p989
ag7
(I0
I0
I0
I255
tp990
Rp991
aV1
p992
ag7
(I0
I0
I255
I255
tp993
Rp994
aV1
p995
ag7
(I0
I0
I0
I255
tp996
Rp997
aV1
p998
ag7
(I0
I255
I0
I255
tp999
Rp1000
aV1
p1001
ag7
(I0
I0
I0
I255
tp1002
Rp1003
aV1
p1004
ag7
(I0
I0
I255
I255
tp1005
Rp1006
aV1
p1007
ag7
(I0
I0
I0
I255
tp1008
Rp1009
aV1
p1010
ag7
(I0
I255
I0
I255
tp1011
Rp1012
aV1
p1013
ag7
(I0
I0
I0
I255
tp1014
Rp1015
aV1
p1016
aasI3
(lp1017
I13
a(lp1018
I10
ag7
(I255
I0
I0
I255
tp1019
Rp1020
aV1
p1021
ag7
(I0
I0
I0
I255
tp1022
Rp1023
aV1
p1024
ag7
(I0
I0
I255
I255
tp1025
Rp1026
aV1
p1027
ag7
(I0
I0
I0
I255
tp1028
Rp1029
aV1
p1030
ag7
(I0
I255
I0
I255
tp1031
Rp1032
aV1
p1033
ag7
(I0
I0
I0
I255
tp1034
Rp1035
aV1
p1036
ag7
(I0
I0
I255
I255
tp1037
Rp1038
aV1
p1039
ag7
(I0
I0
I0
I255
tp1040
Rp1041
aV1
p1042
ag7
(I0
I255
I0
I255
tp1043
Rp1044
aV1
p1045
ag7
(I0
I0
I0
I255
tp1046
Rp1047
aV1
p1048
aasI4
(lp1049
I-1
a(lp1050
asI5
(lp1051
I13
a(lp1052
I10
ag7
(I255
I0
I0
I255
tp1053
Rp1054
aV4
p1055
ag7
(I0
I0
I0
I255
tp1056
Rp1057
aV32
p1058
ag7
(I0
I0
I255
I255
tp1059
Rp1060
aV4
p1061
ag7
(I0
I0
I0
I255
tp1062
Rp1063
aV32
p1064
ag7
(I0
I255
I0
I255
tp1065
Rp1066
aV4
p1067
ag7
(I0
I0
I0
I255
tp1068
Rp1069
aV32
p1070
ag7
(I0
I0
I255
I255
tp1071
Rp1072
aV4
p1073
ag7
(I0
I0
I0
I255
tp1074
Rp1075
aV32
p1076
ag7
(I0
I255
I0
I255
tp1077
Rp1078
aV4
p1079
ag7
(I0
I0
I0
I255
tp1080
Rp1081
aV32
p1082
aasI6
(lp1083
I13
a(lp1084
I10
ag7
(I255
I0
I0
I255
tp1085
Rp1086
aV4
p1087
ag7
(I0
I0
I0
I255
tp1088
Rp1089
aV32
p1090
ag7
(I0
I0
I255
I255
tp1091
Rp1092
aV4
p1093
ag7
(I0
I0
I0
I255
tp1094
Rp1095
aV32
p1096
ag7
(I0
I255
I0
I255
tp1097
Rp1098
aV4
p1099
ag7
(I0
I0
I0
I255
tp1100
Rp1101
aV32
p1102
ag7
(I0
I0
I255
I255
tp1103
Rp1104
aV4
p1105
ag7
(I0
I0
I0
I255
tp1106
Rp1107
aV32
p1108
ag7
(I0
I255
I0
I255
tp1109
Rp1110
aV4
p1111
ag7
(I0
I0
I0
I255
tp1112
Rp1113
aV32
p1114
aasI7
(lp1115
I-1
aNasI8
(lp1116
I13
a(lp1117
I10
ag7
(I255
I0
I0
I255
tp1118
Rp1119
aV1
p1120
ag7
(I0
I0
I0
I255
tp1121
Rp1122
aV1
p1123
ag7
(I0
I0
I255
I255
tp1124
Rp1125
aV1
p1126
ag7
(I0
I0
I0
I255
tp1127
Rp1128
aV1
p1129
ag7
(I0
I255
I0
I255
tp1130
Rp1131
aV1
p1132
ag7
(I0
I0
I0
I255
tp1133
Rp1134
aV1
p1135
ag7
(I0
I0
I255
I255
tp1136
Rp1137
aV1
p1138
ag7
(I0
I0
I0
I255
tp1139
Rp1140
aV1
p1141
ag7
(I0
I255
I0
I255
tp1142
Rp1143
aV1
p1144
ag7
(I0
I0
I0
I255
tp1145
Rp1146
aV1
p1147
aasI9
(lp1148
I13
a(lp1149
I10
ag7
(I255
I0
I0
I255
tp1150
Rp1151
aV1
p1152
ag7
(I0
I0
I0
I255
tp1153
Rp1154
aV1
p1155
ag7
(I0
I0
I255
I255
tp1156
Rp1157
aV1
p1158
ag7
(I0
I0
I0
I255
tp1159
Rp1160
aV1
p1161
ag7
(I0
I255
I0
I255
tp1162
Rp1163
aV1
p1164
ag7
(I0
I0
I0
I255
tp1165
Rp1166
aV1
p1167
ag7
(I0
I0
I255
I255
tp1168
Rp1169
aV1
p1170
ag7
(I0
I0
I0
I255
tp1171
Rp1172
aV1
p1173
ag7
(I0
I255
I0
I255
tp1174
Rp1175
aV1
p1176
ag7
(I0
I0
I0
I255
tp1177
Rp1178
aV1
p1179
aasI10
(lp1180
I13
a(lp1181
I10
ag7
(I255
I0
I0
I255
tp1182
Rp1183
aV1
p1184
ag7
(I0
I0
I0
I255
tp1185
Rp1186
aV1
p1187
ag7
(I0
I0
I255
I255
tp1188
Rp1189
aV1
p1190
ag7
(I0
I0
I0
I255
tp1191
Rp1192
aV1
p1193
ag7
(I0
I255
I0
I255
tp1194
Rp1195
aV1
p1196
ag7
(I0
I0
I0
I255
tp1197
Rp1198
aV1
p1199
ag7
(I0
I0
I255
I255
tp1200
Rp1201
aV1
p1202
ag7
(I0
I0
I0
I255
tp1203
Rp1204
aV1
p1205
ag7
(I0
I255
I0
I255
tp1206
Rp1207
aV1
p1208
ag7
(I0
I0
I0
I255
tp1209
Rp1210
aV1
p1211
aasI11
(lp1212
I13
a(lp1213
I10
ag7
(I255
I0
I0
I255
tp1214
Rp1215
aV1
p1216
ag7
(I0
I0
I0
I255
tp1217
Rp1218
aV1
p1219
ag7
(I0
I0
I255
I255
tp1220
Rp1221
aV1
p1222
ag7
(I0
I0
I0
I255
tp1223
Rp1224
aV1
p1225
ag7
(I0
I255
I0
I255
tp1226
Rp1227
aV1
p1228
ag7
(I0
I0
I0
I255
tp1229
Rp1230
aV1
p1231
ag7
(I0
I0
I255
I255
tp1232
Rp1233
aV1
p1234
ag7
(I0
I0
I0
I255
tp1235
Rp1236
aV1
p1237
ag7
(I0
I255
I0
I255
tp1238
Rp1239
aV1
p1240
ag7
(I0
I0
I0
I255
tp1241
Rp1242
aV1
p1243
aassg174
V00:01 750ms
p1244
sba(ieffectgroup
EffectGroup
p1245
(dp1246
g3
(dp1247
I0
(lp1248
I11
a(lp1249
I6
ag7
(I255
I255
I255
I255
tp1250
Rp1251
aV1
p1252
ag7
(I0
I0
I0
I255
tp1253
Rp1254
aV8
p1255
ag7
(I0
I0
I0
I255
tp1256
Rp1257
aV1
p1258
ag7
(I255
I0
I0
I255
tp1259
Rp1260
aV1
p1261
ag7
(I0
I0
I255
I255
tp1262
Rp1263
aV1
p1264
ag7
(I0
I0
I0
I255
tp1265
Rp1266
aV1
p1267
aasI1
(lp1268
I11
a(lp1269
I6
ag7
(I255
I255
I255
I255
tp1270
Rp1271
aV1
p1272
ag7
(I0
I0
I0
I255
tp1273
Rp1274
aV8
p1275
ag7
(I0
I0
I0
I255
tp1276
Rp1277
aV1
p1278
ag7
(I0
I0
I255
I255
tp1279
Rp1280
aV1
p1281
ag7
(I255
I0
I0
I255
tp1282
Rp1283
aV1
p1284
ag7
(I0
I0
I0
I255
tp1285
Rp1286
aV1
p1287
aasI2
(lp1288
I11
a(lp1289
I6
ag7
(I255
I255
I255
I255
tp1290
Rp1291
aV1
p1292
ag7
(I0
I0
I0
I255
tp1293
Rp1294
aV8
p1295
ag7
(I0
I0
I0
I255
tp1296
Rp1297
aV1
p1298
ag7
(I255
I0
I0
I255
tp1299
Rp1300
aV1
p1301
ag7
(I0
I0
I255
I255
tp1302
Rp1303
aV1
p1304
ag7
(I0
I0
I0
I255
tp1305
Rp1306
aV1
p1307
aasI3
(lp1308
I11
a(lp1309
I6
ag7
(I255
I255
I255
I255
tp1310
Rp1311
aV1
p1312
ag7
(I0
I0
I0
I255
tp1313
Rp1314
aV8
p1315
ag7
(I0
I0
I0
I255
tp1316
Rp1317
aV1
p1318
ag7
(I0
I0
I255
I255
tp1319
Rp1320
aV1
p1321
ag7
(I255
I0
I0
I255
tp1322
Rp1323
aV1
p1324
ag7
(I0
I0
I0
I255
tp1325
Rp1326
aV1
p1327
aasI4
(lp1328
I-1
a(lp1329
asI5
(lp1330
I10
a(lp1331
I4
ag7
(I0
I0
I255
I255
tp1332
Rp1333
aV32
p1334
ag7
(I0
I0
I0
I255
tp1335
Rp1336
aV64
p1337
ag7
(I255
I0
I0
I255
tp1338
Rp1339
aV32
p1340
ag7
(I0
I0
I0
I255
tp1341
Rp1342
aV64
p1343
aasI6
(lp1344
I10
a(lp1345
I4
ag7
(I255
I0
I0
I255
tp1346
Rp1347
aV32
p1348
ag7
(I0
I0
I0
I255
tp1349
Rp1350
aV64
p1351
ag7
(I0
I0
I255
I255
tp1352
Rp1353
aV32
p1354
ag7
(I0
I0
I0
I255
tp1355
Rp1356
aV64
p1357
aasI7
(lp1358
I-1
a(lp1359
asI8
(lp1360
I11
a(lp1361
I6
ag7
(I255
I255
I255
I255
tp1362
Rp1363
aV1
p1364
ag7
(I0
I0
I0
I255
tp1365
Rp1366
aV8
p1367
ag7
(I0
I0
I0
I255
tp1368
Rp1369
aV1
p1370
ag7
(I0
I0
I255
I255
tp1371
Rp1372
aV1
p1373
ag7
(I255
I0
I0
I255
tp1374
Rp1375
aV1
p1376
ag7
(I0
I0
I0
I255
tp1377
Rp1378
aV1
p1379
aasI9
(lp1380
I11
a(lp1381
I6
ag7
(I255
I255
I255
I255
tp1382
Rp1383
aV1
p1384
ag7
(I0
I0
I0
I255
tp1385
Rp1386
aV8
p1387
ag7
(I0
I0
I0
I255
tp1388
Rp1389
aV1
p1390
ag7
(I255
I0
I0
I255
tp1391
Rp1392
aV1
p1393
ag7
(I0
I0
I255
I255
tp1394
Rp1395
aV1
p1396
ag7
(I0
I0
I0
I255
tp1397
Rp1398
aV1
p1399
aasI10
(lp1400
I11
a(lp1401
I6
ag7
(I255
I255
I255
I255
tp1402
Rp1403
aV1
p1404
ag7
(I0
I0
I0
I255
tp1405
Rp1406
aV8
p1407
ag7
(I0
I0
I0
I255
tp1408
Rp1409
aV1
p1410
ag7
(I0
I0
I255
I255
tp1411
Rp1412
aV1
p1413
ag7
(I255
I0
I0
I255
tp1414
Rp1415
aV1
p1416
ag7
(I0
I0
I0
I255
tp1417
Rp1418
aV1
p1419
aasI11
(lp1420
I11
a(lp1421
I6
ag7
(I255
I255
I255
I255
tp1422
Rp1423
aV1
p1424
ag7
(I0
I0
I0
I255
tp1425
Rp1426
aV8
p1427
ag7
(I0
I0
I0
I255
tp1428
Rp1429
aV1
p1430
ag7
(I255
I0
I0
I255
tp1431
Rp1432
aV1
p1433
ag7
(I0
I0
I255
I255
tp1434
Rp1435
aV1
p1436
ag7
(I0
I0
I0
I255
tp1437
Rp1438
aV1
p1439
aassg174
V00:01 800ms
p1440
sba(ieffectgroup
EffectGroup
p1441
(dp1442
g3
(dp1443
I0
(lp1444
I11
a(lp1445
I6
ag7
(I128
I0
I255
I255
tp1446
Rp1447
aV1
p1448
ag7
(I0
I0
I0
I255
tp1449
Rp1450
aV4
p1451
ag7
(I0
I0
I255
I255
tp1452
Rp1453
aV1
p1454
ag7
(I0
I0
I0
I255
tp1455
Rp1456
aV4
p1457
ag7
(I0
I255
I0
I255
tp1458
Rp1459
aV1
p1460
ag7
(I0
I0
I0
I255
tp1461
Rp1462
aV4
p1463
aasI1
(lp1464
I11
a(lp1465
I6
ag7
(I128
I0
I255
I255
tp1466
Rp1467
aV1
p1468
ag7
(I0
I0
I0
I255
tp1469
Rp1470
aV4
p1471
ag7
(I0
I0
I255
I255
tp1472
Rp1473
aV1
p1474
ag7
(I0
I0
I0
I255
tp1475
Rp1476
aV4
p1477
ag7
(I0
I255
I0
I255
tp1478
Rp1479
aV1
p1480
ag7
(I0
I0
I0
I255
tp1481
Rp1482
aV4
p1483
aasI2
(lp1484
I11
a(lp1485
I6
ag7
(I128
I0
I255
I255
tp1486
Rp1487
aV1
p1488
ag7
(I0
I0
I0
I255
tp1489
Rp1490
aV4
p1491
ag7
(I0
I0
I255
I255
tp1492
Rp1493
aV1
p1494
ag7
(I0
I0
I0
I255
tp1495
Rp1496
aV4
p1497
ag7
(I0
I255
I0
I255
tp1498
Rp1499
aV1
p1500
ag7
(I0
I0
I0
I255
tp1501
Rp1502
aV4
p1503
aasI3
(lp1504
I11
a(lp1505
I6
ag7
(I128
I0
I255
I255
tp1506
Rp1507
aV1
p1508
ag7
(I0
I0
I1
I255
tp1509
Rp1510
aV4
p1511
ag7
(I0
I0
I255
I255
tp1512
Rp1513
aV1
p1514
ag7
(I0
I0
I1
I255
tp1515
Rp1516
aV4
p1517
ag7
(I0
I255
I0
I255
tp1518
Rp1519
aV1
p1520
ag7
(I0
I0
I1
I255
tp1521
Rp1522
aV4
p1523
aasI4
(lp1524
I3
a(lp1525
g7
(I128
I0
I255
I255
tp1526
Rp1527
aV1
p1528
aV64
p1529
aasI5
(lp1530
I-1
aNasI6
(lp1531
I-1
aNasI7
(lp1532
I3
a(lp1533
g7
(I128
I0
I255
I255
tp1534
Rp1535
aV1
p1536
aV64
p1537
aasI8
(lp1538
I11
a(lp1539
I6
ag7
(I128
I0
I255
I255
tp1540
Rp1541
aV1
p1542
ag7
(I0
I0
I1
I255
tp1543
Rp1544
aV4
p1545
ag7
(I0
I0
I255
I255
tp1546
Rp1547
aV1
p1548
ag7
(I0
I0
I1
I255
tp1549
Rp1550
aV4
p1551
ag7
(I0
I255
I0
I255
tp1552
Rp1553
aV1
p1554
ag7
(I0
I0
I1
I255
tp1555
Rp1556
aV4
p1557
aasI9
(lp1558
I11
a(lp1559
I6
ag7
(I128
I0
I255
I255
tp1560
Rp1561
aV1
p1562
ag7
(I0
I0
I0
I255
tp1563
Rp1564
aV4
p1565
ag7
(I0
I0
I255
I255
tp1566
Rp1567
aV1
p1568
ag7
(I0
I0
I0
I255
tp1569
Rp1570
aV4
p1571
ag7
(I0
I255
I0
I255
tp1572
Rp1573
aV1
p1574
ag7
(I0
I0
I0
I255
tp1575
Rp1576
aV4
p1577
aasI10
(lp1578
I11
a(lp1579
I6
ag7
(I128
I0
I255
I255
tp1580
Rp1581
aV1
p1582
ag7
(I0
I0
I0
I255
tp1583
Rp1584
aV4
p1585
ag7
(I0
I0
I255
I255
tp1586
Rp1587
aV1
p1588
ag7
(I0
I0
I0
I255
tp1589
Rp1590
aV4
p1591
ag7
(I0
I255
I0
I255
tp1592
Rp1593
aV1
p1594
ag7
(I0
I0
I0
I255
tp1595
Rp1596
aV4
p1597
aasI11
(lp1598
I11
a(lp1599
I6
ag7
(I128
I0
I255
I255
tp1600
Rp1601
aV1
p1602
ag7
(I0
I0
I0
I255
tp1603
Rp1604
aV4
p1605
ag7
(I0
I0
I255
I255
tp1606
Rp1607
aV1
p1608
ag7
(I0
I0
I0
I255
tp1609
Rp1610
aV4
p1611
ag7
(I0
I255
I0
I255
tp1612
Rp1613
aV1
p1614
ag7
(I0
I0
I0
I255
tp1615
Rp1616
aV4
p1617
aassg174
V00:01 900ms
p1618
sba(ieffectgroup
EffectGroup
p1619
(dp1620
g3
(dp1621
I0
(lp1622
I3
a(lp1623
g7
(I64
I0
I128
I255
tp1624
Rp1625
aV1
p1626
aV4
p1627
aasI1
(lp1628
I8
a(lp1629
I2
ag7
(I64
I0
I128
I255
tp1630
Rp1631
aV1
p1632
ag7
(I0
I0
I0
I255
tp1633
Rp1634
aV8
p1635
aasI2
(lp1636
I9
a(lp1637
I3
ag7
(I64
I0
I128
I255
tp1638
Rp1639
aV4
p1640
ag7
(I100
I20
I0
I255
tp1641
Rp1642
aV4
p1643
ag7
(I2
I0
I1
I255
tp1644
Rp1645
aV24
p1646
aasI3
(lp1647
I8
a(lp1648
I2
ag7
(I64
I0
I128
I255
tp1649
Rp1650
aV25
p1651
ag7
(I100
I20
I0
I255
tp1652
Rp1653
aV25
p1654
aasI4
(lp1655
I-1
a(lp1656
asI5
(lp1657
I9
a(lp1658
I3
ag7
(I100
I0
I0
I255
tp1659
Rp1660
aV3
p1661
ag7
(I255
I60
I0
I255
tp1662
Rp1663
aV3
p1664
ag7
(I0
I0
I0
I255
tp1665
Rp1666
aV35
p1667
aasI6
(lp1668
I9
a(lp1669
I3
ag7
(I100
I0
I0
I255
tp1670
Rp1671
aV3
p1672
ag7
(I255
I60
I0
I255
tp1673
Rp1674
aV3
p1675
ag7
(I0
I0
I0
I255
tp1676
Rp1677
aV35
p1678
aasI7
(lp1679
I-1
aNasI8
(lp1680
I8
a(lp1681
I2
ag7
(I64
I0
I128
I255
tp1682
Rp1683
aV25
p1684
ag7
(I100
I20
I0
I255
tp1685
Rp1686
aV25
p1687
aasI9
(lp1688
I9
a(lp1689
I3
ag7
(I64
I0
I128
I255
tp1690
Rp1691
aV4
p1692
ag7
(I100
I20
I0
I255
tp1693
Rp1694
aV4
p1695
ag7
(I2
I0
I1
I255
tp1696
Rp1697
aV24
p1698
aasI10
(lp1699
I8
a(lp1700
I2
ag7
(I64
I0
I128
I255
tp1701
Rp1702
aV1
p1703
ag7
(I0
I0
I0
I255
tp1704
Rp1705
aV8
p1706
aasI11
(lp1707
I3
a(lp1708
g7
(I64
I0
I128
I255
tp1709
Rp1710
aV1
p1711
aV4
p1712
aassg174
V00:04 000ms
p1713
sba(ieffectgroup
EffectGroup
p1714
(dp1715
g3
(dp1716
I0
(lp1717
I9
a(lp1718
I3
ag7
(I200
I20
I0
I255
tp1719
Rp1720
aV4
p1721
ag7
(I0
I1
I1
I255
tp1722
Rp1723
aV32
p1724
ag7
(I0
I0
I0
I255
tp1725
Rp1726
aV4
p1727
aasI1
(lp1728
I3
a(lp1729
g7
(I0
I255
I255
I255
tp1730
Rp1731
aV1
p1732
aV12
p1733
aasI2
(lp1734
I3
a(lp1735
g7
(I0
I255
I255
I255
tp1736
Rp1737
aV1
p1738
aV12
p1739
aasI3
(lp1740
I8
a(lp1741
I2
ag7
(I200
I40
I0
I255
tp1742
Rp1743
aV1
p1744
ag7
(I0
I1
I1
I255
tp1745
Rp1746
aV16
p1747
aasI4
(lp1748
I3
a(lp1749
g7
(I0
I255
I255
I255
tp1750
Rp1751
aV1
p1752
aV24
p1753
aasI5
(lp1754
I-1
a(lp1755
asI6
(lp1756
I-1
a(lp1757
asI7
(lp1758
I3
a(lp1759
g7
(I0
I255
I255
I255
tp1760
Rp1761
aV1
p1762
aV24
p1763
aasI8
(lp1764
I8
a(lp1765
I2
ag7
(I200
I40
I0
I255
tp1766
Rp1767
aV1
p1768
ag7
(I0
I1
I1
I255
tp1769
Rp1770
aV16
p1771
aasI9
(lp1772
I3
a(lp1773
g7
(I0
I255
I255
I255
tp1774
Rp1775
aV1
p1776
aV12
p1777
aasI10
(lp1778
I3
a(lp1779
g7
(I0
I255
I255
I255
tp1780
Rp1781
aV1
p1782
aV12
p1783
aasI11
(lp1784
I9
a(lp1785
I3
ag7
(I200
I40
I0
I255
tp1786
Rp1787
aV4
p1788
ag7
(I0
I1
I1
I255
tp1789
Rp1790
aV32
p1791
ag7
(I0
I0
I0
I255
tp1792
Rp1793
aV4
p1794
aassg174
V00:05 100ms
p1795
sba(ieffectgroup
EffectGroup
p1796
(dp1797
g3
(dp1798
I0
(lp1799
I10
a(lp1800
I4
ag7
(I0
I255
I255
I255
tp1801
Rp1802
aV1
p1803
ag7
(I0
I0
I0
I255
tp1804
Rp1805
aV4
p1806
ag7
(I0
I255
I255
I255
tp1807
Rp1808
aV1
p1809
ag7
(I0
I0
I0
I255
tp1810
Rp1811
aV16
p1812
aasI1
(lp1813
I8
a(lp1814
I2
ag7
(I0
I255
I255
I255
tp1815
Rp1816
aV4
p1817
ag7
(I0
I1
I1
I255
tp1818
Rp1819
aV32
p1820
aasI2
(lp1821
I3
a(lp1822
g7
(I0
I255
I255
I255
tp1823
Rp1824
aV1
p1825
aV16
p1826
aasI3
(lp1827
I10
a(lp1828
I4
ag7
(I0
I255
I255
I255
tp1829
Rp1830
aV1
p1831
ag7
(I0
I0
I0
I255
tp1832
Rp1833
aV4
p1834
ag7
(I0
I0
I255
I255
tp1835
Rp1836
aV1
p1837
ag7
(I0
I0
I0
I255
tp1838
Rp1839
aV16
p1840
aasI4
(lp1841
I-1
aNasI5
(lp1842
I8
a(lp1843
I2
ag7
(I0
I255
I255
I255
tp1844
Rp1845
aV32
p1846
ag7
(I0
I0
I0
I255
tp1847
Rp1848
aV32
p1849
aasI6
(lp1850
I8
a(lp1851
I2
ag7
(I0
I0
I255
I255
tp1852
Rp1853
aV32
p1854
ag7
(I0
I0
I0
I255
tp1855
Rp1856
aV32
p1857
aasI7
(lp1858
I-1
a(lp1859
asI8
(lp1860
I10
a(lp1861
I4
ag7
(I0
I255
I255
I255
tp1862
Rp1863
aV1
p1864
ag7
(I0
I0
I0
I255
tp1865
Rp1866
aV4
p1867
ag7
(I0
I0
I255
I255
tp1868
Rp1869
aV1
p1870
ag7
(I0
I0
I0
I255
tp1871
Rp1872
aV16
p1873
aasI9
(lp1874
I3
a(lp1875
g7
(I0
I0
I255
I255
tp1876
Rp1877
aV1
p1878
aV16
p1879
aasI10
(lp1880
I8
a(lp1881
I2
ag7
(I0
I0
I255
I255
tp1882
Rp1883
aV4
p1884
ag7
(I0
I0
I1
I255
tp1885
Rp1886
aV32
p1887
aasI11
(lp1888
I10
a(lp1889
I4
ag7
(I0
I0
I255
I255
tp1890
Rp1891
aV1
p1892
ag7
(I0
I0
I0
I255
tp1893
Rp1894
aV4
p1895
ag7
(I0
I0
I255
I255
tp1896
Rp1897
aV1
p1898
ag7
(I0
I0
I0
I255
tp1899
Rp1900
aV16
p1901
aassg174
V00:05 300ms
p1902
sba(ieffectgroup
EffectGroup
p1903
(dp1904
g3
(dp1905
I0
(lp1906
I10
a(lp1907
I4
ag7
(I0
I255
I255
I255
tp1908
Rp1909
aV1
p1910
ag7
(I0
I0
I0
I255
tp1911
Rp1912
aV4
p1913
ag7
(I0
I255
I255
I255
tp1914
Rp1915
aV1
p1916
ag7
(I0
I0
I0
I255
tp1917
Rp1918
aV16
p1919
aasI1
(lp1920
I8
a(lp1921
I2
ag7
(I0
I255
I255
I255
tp1922
Rp1923
aV4
p1924
ag7
(I0
I1
I1
I255
tp1925
Rp1926
aV32
p1927
aasI2
(lp1928
I3
a(lp1929
g7
(I0
I255
I255
I255
tp1930
Rp1931
aV1
p1932
aV16
p1933
aasI3
(lp1934
I10
a(lp1935
I4
ag7
(I0
I255
I255
I255
tp1936
Rp1937
aV1
p1938
ag7
(I0
I0
I0
I255
tp1939
Rp1940
aV4
p1941
ag7
(I255
I255
I0
I255
tp1942
Rp1943
aV1
p1944
ag7
(I0
I0
I0
I255
tp1945
Rp1946
aV16
p1947
aasI4
(lp1948
I-1
aNasI5
(lp1949
I8
a(lp1950
I2
ag7
(I0
I255
I255
I255
tp1951
Rp1952
aV32
p1953
ag7
(I0
I0
I0
I255
tp1954
Rp1955
aV32
p1956
aasI6
(lp1957
I8
a(lp1958
I2
ag7
(I255
I255
I0
I255
tp1959
Rp1960
aV32
p1961
ag7
(I0
I0
I0
I255
tp1962
Rp1963
aV32
p1964
aasI7
(lp1965
I-1
aNasI8
(lp1966
I10
a(lp1967
I4
ag7
(I0
I255
I255
I255
tp1968
Rp1969
aV1
p1970
ag7
(I0
I0
I0
I255
tp1971
Rp1972
aV4
p1973
ag7
(I255
I255
I0
I255
tp1974
Rp1975
aV1
p1976
ag7
(I0
I0
I0
I255
tp1977
Rp1978
aV16
p1979
aasI9
(lp1980
I3
a(lp1981
g7
(I255
I255
I0
I255
tp1982
Rp1983
aV1
p1984
aV16
p1985
aasI10
(lp1986
I8
a(lp1987
I2
ag7
(I255
I255
I0
I255
tp1988
Rp1989
aV4
p1990
ag7
(I1
I1
I0
I255
tp1991
Rp1992
aV32
p1993
aasI11
(lp1994
I10
a(lp1995
I4
ag7
(I255
I255
I0
I255
tp1996
Rp1997
aV1
p1998
ag7
(I0
I0
I0
I255
tp1999
Rp2000
aV4
p2001
ag7
(I255
I255
I0
I255
tp2002
Rp2003
aV1
p2004
ag7
(I0
I0
I0
I255
tp2005
Rp2006
aV16
p2007
aassg174
V00:05 400ms
p2008
sba(ieffectgroup
EffectGroup
p2009
(dp2010
g3
(dp2011
I0
(lp2012
I10
a(lp2013
I4
ag7
(I255
I0
I128
I255
tp2014
Rp2015
aV1
p2016
ag7
(I0
I0
I0
I255
tp2017
Rp2018
aV4
p2019
ag7
(I255
I0
I128
I255
tp2020
Rp2021
aV1
p2022
ag7
(I0
I0
I0
I255
tp2023
Rp2024
aV16
p2025
aasI1
(lp2026
I8
a(lp2027
I2
ag7
(I255
I0
I128
I255
tp2028
Rp2029
aV4
p2030
ag7
(I2
I0
I1
I255
tp2031
Rp2032
aV32
p2033
aasI2
(lp2034
I3
a(lp2035
g7
(I255
I0
I128
I255
tp2036
Rp2037
aV1
p2038
aV16
p2039
aasI3
(lp2040
I10
a(lp2041
I4
ag7
(I255
I0
I128
I255
tp2042
Rp2043
aV1
p2044
ag7
(I0
I0
I0
I255
tp2045
Rp2046
aV4
p2047
ag7
(I255
I255
I0
I255
tp2048
Rp2049
aV1
p2050
ag7
(I0
I0
I0
I255
tp2051
Rp2052
aV16
p2053
aasI4
(lp2054
I-1
a(lp2055
asI5
(lp2056
I8
a(lp2057
I2
ag7
(I255
I0
I128
I255
tp2058
Rp2059
aV32
p2060
ag7
(I0
I0
I0
I255
tp2061
Rp2062
aV32
p2063
aasI6
(lp2064
I8
a(lp2065
I2
ag7
(I255
I255
I0
I255
tp2066
Rp2067
aV32
p2068
ag7
(I0
I0
I0
I255
tp2069
Rp2070
aV32
p2071
aasI7
(lp2072
I-1
aNasI8
(lp2073
I10
a(lp2074
I4
ag7
(I255
I0
I128
I255
tp2075
Rp2076
aV1
p2077
ag7
(I0
I0
I0
I255
tp2078
Rp2079
aV4
p2080
ag7
(I255
I255
I0
I255
tp2081
Rp2082
aV1
p2083
ag7
(I0
I0
I0
I255
tp2084
Rp2085
aV16
p2086
aasI9
(lp2087
I3
a(lp2088
g7
(I255
I255
I0
I255
tp2089
Rp2090
aV1
p2091
aV16
p2092
aasI10
(lp2093
I8
a(lp2094
I2
ag7
(I255
I255
I0
I255
tp2095
Rp2096
aV4
p2097
ag7
(I1
I1
I0
I255
tp2098
Rp2099
aV32
p2100
aasI11
(lp2101
I10
a(lp2102
I4
ag7
(I255
I255
I0
I255
tp2103
Rp2104
aV1
p2105
ag7
(I0
I0
I0
I255
tp2106
Rp2107
aV4
p2108
ag7
(I255
I255
I0
I255
tp2109
Rp2110
aV1
p2111
ag7
(I0
I0
I0
I255
tp2112
Rp2113
aV16
p2114
aassg174
V00:05 500ms
p2115
sba(ieffectgroup
EffectGroup
p2116
(dp2117
g3
(dp2118
I0
(lp2119
I10
a(lp2120
I4
ag7
(I255
I0
I128
I255
tp2121
Rp2122
aV1
p2123
ag7
(I0
I0
I0
I255
tp2124
Rp2125
aV4
p2126
ag7
(I255
I0
I128
I255
tp2127
Rp2128
aV1
p2129
ag7
(I0
I0
I0
I255
tp2130
Rp2131
aV16
p2132
aasI1
(lp2133
I8
a(lp2134
I2
ag7
(I255
I0
I128
I255
tp2135
Rp2136
aV4
p2137
ag7
(I2
I0
I1
I255
tp2138
Rp2139
aV32
p2140
aasI2
(lp2141
I3
a(lp2142
g7
(I255
I0
I128
I255
tp2143
Rp2144
aV1
p2145
aV16
p2146
aasI3
(lp2147
I10
a(lp2148
I4
ag7
(I255
I0
I0
I255
tp2149
Rp2150
aV1
p2151
ag7
(I0
I0
I0
I255
tp2152
Rp2153
aV4
p2154
ag7
(I255
I0
I128
I255
tp2155
Rp2156
aV1
p2157
ag7
(I0
I0
I0
I255
tp2158
Rp2159
aV16
p2160
aasI4
(lp2161
I-1
aNasI5
(lp2162
I8
a(lp2163
I2
ag7
(I255
I0
I128
I255
tp2164
Rp2165
aV32
p2166
ag7
(I0
I0
I0
I255
tp2167
Rp2168
aV32
p2169
aasI6
(lp2170
I8
a(lp2171
I2
ag7
(I255
I0
I0
I255
tp2172
Rp2173
aV32
p2174
ag7
(I0
I0
I0
I255
tp2175
Rp2176
aV32
p2177
aasI7
(lp2178
I-1
aNasI8
(lp2179
I10
a(lp2180
I4
ag7
(I255
I0
I0
I255
tp2181
Rp2182
aV1
p2183
ag7
(I0
I0
I0
I255
tp2184
Rp2185
aV4
p2186
ag7
(I255
I0
I128
I255
tp2187
Rp2188
aV1
p2189
ag7
(I0
I0
I0
I255
tp2190
Rp2191
aV16
p2192
aasI9
(lp2193
I3
a(lp2194
g7
(I255
I0
I0
I255
tp2195
Rp2196
aV1
p2197
aV16
p2198
aasI10
(lp2199
I8
a(lp2200
I2
ag7
(I255
I0
I0
I255
tp2201
Rp2202
aV4
p2203
ag7
(I1
I0
I0
I255
tp2204
Rp2205
aV32
p2206
aasI11
(lp2207
I10
a(lp2208
I4
ag7
(I255
I0
I0
I255
tp2209
Rp2210
aV1
p2211
ag7
(I0
I0
I0
I255
tp2212
Rp2213
aV4
p2214
ag7
(I255
I0
I0
I255
tp2215
Rp2216
aV1
p2217
ag7
(I0
I0
I0
I255
tp2218
Rp2219
aV16
p2220
aassg174
V00:05 600ms
p2221
sba(ieffectgroup
EffectGroup
p2222
(dp2223
g3
(dp2224
I0
(lp2225
I8
a(lp2226
I2
ag7
(I0
I128
I128
I255
tp2227
Rp2228
aV1
p2229
ag7
(I0
I0
I0
I255
tp2230
Rp2231
aV8
p2232
aasI1
(lp2233
I8
a(lp2234
I2
ag7
(I0
I128
I128
I255
tp2235
Rp2236
aV1
p2237
ag7
(I0
I0
I0
I255
tp2238
Rp2239
aV8
p2240
aasI2
(lp2241
I8
a(lp2242
I2
ag7
(I0
I128
I128
I255
tp2243
Rp2244
aV1
p2245
ag7
(I0
I0
I0
I255
tp2246
Rp2247
aV8
p2248
aasI3
(lp2249
I10
a(lp2250
I4
ag7
(I0
I128
I30
I255
tp2251
Rp2252
aV8
p2253
ag7
(I0
I0
I255
I255
tp2254
Rp2255
aV8
p2256
ag7
(I255
I255
I255
I255
tp2257
Rp2258
aV2
p2259
ag7
(I0
I0
I0
I255
tp2260
Rp2261
aV24
p2262
aasI4
(lp2263
I-1
aNasI5
(lp2264
I-1
a(lp2265
asI6
(lp2266
I-1
aNasI7
(lp2267
I-1
a(lp2268
asI8
(lp2269
I10
a(lp2270
I4
ag7
(I0
I128
I30
I255
tp2271
Rp2272
aV8
p2273
ag7
(I0
I0
I255
I255
tp2274
Rp2275
aV8
p2276
ag7
(I255
I255
I255
I255
tp2277
Rp2278
aV2
p2279
ag7
(I0
I0
I0
I255
tp2280
Rp2281
aV24
p2282
aasI9
(lp2283
I8
a(lp2284
I2
ag7
(I0
I128
I128
I255
tp2285
Rp2286
aV1
p2287
ag7
(I0
I0
I0
I255
tp2288
Rp2289
aV8
p2290
aasI10
(lp2291
I8
a(lp2292
I2
ag7
(I0
I128
I128
I255
tp2293
Rp2294
aV1
p2295
ag7
(I0
I0
I0
I255
tp2296
Rp2297
aV8
p2298
aasI11
(lp2299
I8
a(lp2300
I2
ag7
(I0
I128
I128
I255
tp2301
Rp2302
aV1
p2303
ag7
(I0
I0
I0
I255
tp2304
Rp2305
aV8
p2306
aassg174
V00:06 000ms
p2307
sba(ieffectgroup
EffectGroup
p2308
(dp2309
g3
(dp2310
I0
(lp2311
I8
a(lp2312
I2
ag7
(I0
I128
I128
I255
tp2313
Rp2314
aV1
p2315
ag7
(I0
I0
I0
I255
tp2316
Rp2317
aV8
p2318
aasI1
(lp2319
I8
a(lp2320
I2
ag7
(I0
I128
I128
I255
tp2321
Rp2322
aV1
p2323
ag7
(I0
I0
I0
I255
tp2324
Rp2325
aV8
p2326
aasI2
(lp2327
I8
a(lp2328
I2
ag7
(I0
I128
I128
I255
tp2329
Rp2330
aV1
p2331
ag7
(I0
I0
I0
I255
tp2332
Rp2333
aV8
p2334
aasI3
(lp2335
I8
a(lp2336
I2
ag7
(I0
I128
I128
I255
tp2337
Rp2338
aV1
p2339
ag7
(I0
I0
I0
I255
tp2340
Rp2341
aV8
p2342
aasI4
(lp2343
I-1
a(lp2344
asI5
(lp2345
I10
a(lp2346
I4
ag7
(I0
I128
I30
I255
tp2347
Rp2348
aV8
p2349
ag7
(I0
I0
I0
I255
tp2350
Rp2351
aV32
p2352
ag7
(I0
I0
I255
I255
tp2353
Rp2354
aV8
p2355
ag7
(I0
I0
I0
I255
tp2356
Rp2357
aV32
p2358
aasI6
(lp2359
I10
a(lp2360
I4
ag7
(I0
I128
I30
I255
tp2361
Rp2362
aV8
p2363
ag7
(I0
I0
I0
I255
tp2364
Rp2365
aV32
p2366
ag7
(I0
I0
I255
I255
tp2367
Rp2368
aV8
p2369
ag7
(I0
I0
I0
I255
tp2370
Rp2371
aV32
p2372
aasI7
(lp2373
I-1
aNasI8
(lp2374
I8
a(lp2375
I2
ag7
(I0
I128
I128
I255
tp2376
Rp2377
aV1
p2378
ag7
(I0
I0
I0
I255
tp2379
Rp2380
aV8
p2381
aasI9
(lp2382
I8
a(lp2383
I2
ag7
(I0
I128
I128
I255
tp2384
Rp2385
aV1
p2386
ag7
(I0
I0
I0
I255
tp2387
Rp2388
aV8
p2389
aasI10
(lp2390
I8
a(lp2391
I2
ag7
(I0
I128
I128
I255
tp2392
Rp2393
aV1
p2394
ag7
(I0
I0
I0
I255
tp2395
Rp2396
aV8
p2397
aasI11
(lp2398
I8
a(lp2399
I2
ag7
(I0
I128
I128
I255
tp2400
Rp2401
aV1
p2402
ag7
(I0
I0
I0
I255
tp2403
Rp2404
aV8
p2405
aassg174
V00:07 000ms
p2406
sba(ieffectgroup
EffectGroup
p2407
(dp2408
g3
(dp2409
I0
(lp2410
I8
a(lp2411
I2
ag7
(I0
I0
I255
I255
tp2412
Rp2413
aV2
p2414
ag7
(I0
I0
I0
I255
tp2415
Rp2416
aV16
p2417
aasI1
(lp2418
I10
a(lp2419
I4
ag7
(I0
I0
I255
I255
tp2420
Rp2421
aV1
p2422
ag7
(I0
I0
I0
I255
tp2423
Rp2424
aV24
p2425
ag7
(I0
I128
I30
I255
tp2426
Rp2427
aV1
p2428
ag7
(I0
I0
I0
I255
tp2429
Rp2430
aV8
p2431
aasI2
(lp2432
I8
a(lp2433
I2
ag7
(I0
I0
I255
I255
tp2434
Rp2435
aV2
p2436
ag7
(I0
I0
I0
I255
tp2437
Rp2438
aV16
p2439
aasI3
(lp2440
I10
a(lp2441
I4
ag7
(I0
I0
I255
I255
tp2442
Rp2443
aV1
p2444
ag7
(I0
I0
I0
I255
tp2445
Rp2446
aV8
p2447
ag7
(I0
I128
I30
I255
tp2448
Rp2449
aV1
p2450
ag7
(I0
I0
I0
I255
tp2451
Rp2452
aV8
p2453
aasI4
(lp2454
I-1
aNasI5
(lp2455
I8
a(lp2456
I2
ag7
(I0
I128
I128
I255
tp2457
Rp2458
aV8
p2459
ag7
(I0
I0
I0
I255
tp2460
Rp2461
aV32
p2462
aasI6
(lp2463
I8
a(lp2464
I2
ag7
(I0
I128
I128
I255
tp2465
Rp2466
aV8
p2467
ag7
(I0
I0
I0
I255
tp2468
Rp2469
aV32
p2470
aasI7
(lp2471
I-1
aNasI8
(lp2472
I10
a(lp2473
I4
ag7
(I0
I0
I255
I255
tp2474
Rp2475
aV1
p2476
ag7
(I0
I0
I0
I255
tp2477
Rp2478
aV8
p2479
ag7
(I0
I128
I30
I255
tp2480
Rp2481
aV1
p2482
ag7
(I0
I0
I0
I255
tp2483
Rp2484
aV8
p2485
aasI9
(lp2486
I8
a(lp2487
I2
ag7
(I0
I0
I255
I255
tp2488
Rp2489
aV2
p2490
ag7
(I0
I0
I0
I255
tp2491
Rp2492
aV16
p2493
aasI10
(lp2494
I10
a(lp2495
I4
ag7
(I0
I0
I255
I255
tp2496
Rp2497
aV1
p2498
ag7
(I0
I0
I0
I255
tp2499
Rp2500
aV24
p2501
ag7
(I0
I128
I30
I255
tp2502
Rp2503
aV1
p2504
ag7
(I0
I0
I0
I255
tp2505
Rp2506
aV8
p2507
aasI11
(lp2508
I8
a(lp2509
I2
ag7
(I0
I0
I255
I255
tp2510
Rp2511
aV2
p2512
ag7
(I0
I0
I0
I255
tp2513
Rp2514
aV16
p2515
aassg174
V00:08 000ms
p2516
sba(ieffectgroup
EffectGroup
p2517
(dp2518
g3
(dp2519
I0
(lp2520
I8
a(lp2521
I2
ag7
(I0
I0
I255
I255
tp2522
Rp2523
aV1
p2524
ag7
(I0
I0
I0
I255
tp2525
Rp2526
aV8
p2527
aasI1
(lp2528
I10
a(lp2529
I4
ag7
(I0
I0
I255
I255
tp2530
Rp2531
aV1
p2532
ag7
(I0
I0
I0
I255
tp2533
Rp2534
aV8
p2535
ag7
(I0
I128
I30
I255
tp2536
Rp2537
aV1
p2538
ag7
(I0
I0
I0
I255
tp2539
Rp2540
aV8
p2541
aasI2
(lp2542
I8
a(lp2543
I2
ag7
(I0
I0
I255
I255
tp2544
Rp2545
aV1
p2546
ag7
(I0
I0
I0
I255
tp2547
Rp2548
aV8
p2549
aasI3
(lp2550
I10
a(lp2551
I4
ag7
(I0
I0
I255
I255
tp2552
Rp2553
aV1
p2554
ag7
(I0
I0
I0
I255
tp2555
Rp2556
aV8
p2557
ag7
(I0
I128
I30
I255
tp2558
Rp2559
aV1
p2560
ag7
(I0
I0
I0
I255
tp2561
Rp2562
aV8
p2563
aasI4
(lp2564
I-1
aNasI5
(lp2565
I-1
aNasI6
(lp2566
I-1
aNasI7
(lp2567
I-1
aNasI8
(lp2568
I10
a(lp2569
I4
ag7
(I0
I0
I255
I255
tp2570
Rp2571
aV1
p2572
ag7
(I0
I0
I0
I255
tp2573
Rp2574
aV8
p2575
ag7
(I0
I128
I30
I255
tp2576
Rp2577
aV1
p2578
ag7
(I0
I0
I0
I255
tp2579
Rp2580
aV8
p2581
aasI9
(lp2582
I8
a(lp2583
I2
ag7
(I0
I0
I255
I255
tp2584
Rp2585
aV1
p2586
ag7
(I0
I0
I0
I255
tp2587
Rp2588
aV8
p2589
aasI10
(lp2590
I10
a(lp2591
I4
ag7
(I0
I0
I255
I255
tp2592
Rp2593
aV1
p2594
ag7
(I0
I0
I0
I255
tp2595
Rp2596
aV8
p2597
ag7
(I0
I128
I30
I255
tp2598
Rp2599
aV1
p2600
ag7
(I0
I0
I0
I255
tp2601
Rp2602
aV8
p2603
aasI11
(lp2604
I8
a(lp2605
I2
ag7
(I0
I0
I255
I255
tp2606
Rp2607
aV1
p2608
ag7
(I0
I0
I0
I255
tp2609
Rp2610
aV8
p2611
aassg174
V00:09 000ms
p2612
sba(ieffectgroup
EffectGroup
p2613
(dp2614
g3
(dp2615
I0
(lp2616
I12
a(lp2617
I8
ag7
(I128
I30
I0
I255
tp2618
Rp2619
aV1
p2620
ag7
(I0
I0
I0
I255
tp2621
Rp2622
aV8
p2623
ag7
(I128
I30
I0
I255
tp2624
Rp2625
aV1
p2626
ag7
(I0
I0
I0
I255
tp2627
Rp2628
aV8
p2629
ag7
(I128
I30
I0
I255
tp2630
Rp2631
aV1
p2632
ag7
(I0
I0
I0
I255
tp2633
Rp2634
aV8
p2635
ag7
(I255
I0
I0
I255
tp2636
Rp2637
aV1
p2638
ag7
(I0
I0
I0
I255
tp2639
Rp2640
aV8
p2641
aasI1
(lp2642
I8
a(lp2643
I2
ag7
(I128
I30
I0
I255
tp2644
Rp2645
aV1
p2646
ag7
(I0
I0
I0
I255
tp2647
Rp2648
aV12
p2649
aasI2
(lp2650
I8
a(lp2651
I2
ag7
(I128
I30
I0
I255
tp2652
Rp2653
aV1
p2654
ag7
(I0
I0
I0
I255
tp2655
Rp2656
aV12
p2657
aasI3
(lp2658
I12
a(lp2659
I8
ag7
(I128
I30
I0
I255
tp2660
Rp2661
aV1
p2662
ag7
(I0
I0
I0
I255
tp2663
Rp2664
aV8
p2665
ag7
(I128
I30
I0
I255
tp2666
Rp2667
aV1
p2668
ag7
(I0
I0
I0
I255
tp2669
Rp2670
aV8
p2671
ag7
(I128
I30
I0
I255
tp2672
Rp2673
aV1
p2674
ag7
(I0
I0
I0
I255
tp2675
Rp2676
aV8
p2677
ag7
(I64
I0
I128
I255
tp2678
Rp2679
aV4
p2680
ag7
(I0
I0
I0
I255
tp2681
Rp2682
aV8
p2683
aasI4
(lp2684
I-1
a(lp2685
asI5
(lp2686
I8
a(lp2687
I2
ag7
(I255
I0
I0
I255
tp2688
Rp2689
aV1
p2690
ag7
(I0
I0
I0
I255
tp2691
Rp2692
aV1
p2693
aasI6
(lp2694
I10
a(lp2695
I4
ag7
(I64
I0
I128
I255
tp2696
Rp2697
aV4
p2698
ag7
(I0
I0
I0
I255
tp2699
Rp2700
aV32
p2701
ag7
(I255
I0
I0
I255
tp2702
Rp2703
aV4
p2704
ag7
(I0
I0
I0
I255
tp2705
Rp2706
aV32
p2707
aasI7
(lp2708
I-1
aNasI8
(lp2709
I12
a(lp2710
I8
ag7
(I128
I30
I0
I255
tp2711
Rp2712
aV1
p2713
ag7
(I0
I0
I0
I255
tp2714
Rp2715
aV8
p2716
ag7
(I128
I30
I0
I255
tp2717
Rp2718
aV1
p2719
ag7
(I0
I0
I0
I255
tp2720
Rp2721
aV8
p2722
ag7
(I128
I30
I0
I255
tp2723
Rp2724
aV1
p2725
ag7
(I0
I0
I0
I255
tp2726
Rp2727
aV8
p2728
ag7
(I64
I0
I128
I255
tp2729
Rp2730
aV4
p2731
ag7
(I0
I0
I0
I255
tp2732
Rp2733
aV8
p2734
aasI9
(lp2735
I8
a(lp2736
I2
ag7
(I128
I30
I0
I255
tp2737
Rp2738
aV1
p2739
ag7
(I0
I0
I0
I255
tp2740
Rp2741
aV8
p2742
aasI10
(lp2743
I8
a(lp2744
I2
ag7
(I128
I30
I0
I255
tp2745
Rp2746
aV1
p2747
ag7
(I0
I0
I0
I255
tp2748
Rp2749
aV8
p2750
aasI11
(lp2751
I12
a(lp2752
I8
ag7
(I128
I30
I0
I255
tp2753
Rp2754
aV1
p2755
ag7
(I0
I0
I0
I255
tp2756
Rp2757
aV8
p2758
ag7
(I128
I32
I0
I255
tp2759
Rp2760
aV1
p2761
ag7
(I0
I0
I0
I255
tp2762
Rp2763
aV8
p2764
ag7
(I128
I32
I0
I255
tp2765
Rp2766
aV1
p2767
ag7
(I0
I0
I0
I255
tp2768
Rp2769
aV8
p2770
ag7
(I255
I0
I0
I255
tp2771
Rp2772
aV1
p2773
ag7
(I0
I0
I0
I255
tp2774
Rp2775
aV8
p2776
aassg174
V00:10 000ms
p2777
sba(ieffectgroup
EffectGroup
p2778
(dp2779
g3
(dp2780
I0
(lp2781
I11
a(lp2782
I6
ag7
(I255
I0
I0
I255
tp2783
Rp2784
aV1
p2785
ag7
(I0
I0
I255
I255
tp2786
Rp2787
aV1
p2788
ag7
(I0
I0
I0
I255
tp2789
Rp2790
aV8
p2791
ag7
(I175
I96
I96
I255
tp2792
Rp2793
aV1
p2794
ag7
(I0
I0
I0
I255
tp2795
Rp2796
aV8
p2797
ag7
(I0
I0
I0
I255
tp2798
Rp2799
aV1
p2800
aasI1
(lp2801
I11
a(lp2802
I6
ag7
(I255
I0
I0
I255
tp2803
Rp2804
aV1
p2805
ag7
(I0
I0
I255
I255
tp2806
Rp2807
aV1
p2808
ag7
(I0
I0
I0
I255
tp2809
Rp2810
aV8
p2811
ag7
(I175
I96
I96
I255
tp2812
Rp2813
aV1
p2814
ag7
(I0
I0
I0
I255
tp2815
Rp2816
aV8
p2817
ag7
(I0
I0
I0
I255
tp2818
Rp2819
aV1
p2820
aasI2
(lp2821
I11
a(lp2822
I6
ag7
(I255
I0
I0
I255
tp2823
Rp2824
aV1
p2825
ag7
(I0
I0
I255
I255
tp2826
Rp2827
aV1
p2828
ag7
(I0
I0
I0
I255
tp2829
Rp2830
aV8
p2831
ag7
(I175
I96
I96
I255
tp2832
Rp2833
aV1
p2834
ag7
(I0
I0
I0
I255
tp2835
Rp2836
aV8
p2837
ag7
(I0
I0
I0
I255
tp2838
Rp2839
aV1
p2840
aasI3
(lp2841
I11
a(lp2842
I6
ag7
(I255
I0
I0
I255
tp2843
Rp2844
aV1
p2845
ag7
(I0
I0
I255
I255
tp2846
Rp2847
aV1
p2848
ag7
(I0
I0
I0
I255
tp2849
Rp2850
aV8
p2851
ag7
(I175
I96
I96
I255
tp2852
Rp2853
aV1
p2854
ag7
(I0
I0
I0
I255
tp2855
Rp2856
aV8
p2857
ag7
(I0
I0
I0
I255
tp2858
Rp2859
aV1
p2860
aasI4
(lp2861
I-1
a(lp2862
asI5
(lp2863
I5
a(lp2864
g7
(I255
I0
I0
I255
tp2865
Rp2866
ag7
(I0
I0
I255
I255
tp2867
Rp2868
aV10
p2869
aV20
p2870
aV75
p2871
aasI6
(lp2872
I5
a(lp2873
g7
(I255
I0
I0
I255
tp2874
Rp2875
ag7
(I0
I0
I255
I255
tp2876
Rp2877
aV10
p2878
aV20
p2879
aV75
p2880
aasI7
(lp2881
I-1
a(lp2882
asI8
(lp2883
I11
a(lp2884
I6
ag7
(I255
I0
I0
I255
tp2885
Rp2886
aV1
p2887
ag7
(I0
I0
I255
I255
tp2888
Rp2889
aV1
p2890
ag7
(I0
I0
I0
I255
tp2891
Rp2892
aV8
p2893
ag7
(I175
I96
I96
I255
tp2894
Rp2895
aV1
p2896
ag7
(I0
I0
I0
I255
tp2897
Rp2898
aV8
p2899
ag7
(I0
I0
I0
I255
tp2900
Rp2901
aV1
p2902
aasI9
(lp2903
I11
a(lp2904
I6
ag7
(I255
I0
I0
I255
tp2905
Rp2906
aV1
p2907
ag7
(I0
I0
I255
I255
tp2908
Rp2909
aV1
p2910
ag7
(I0
I0
I0
I255
tp2911
Rp2912
aV8
p2913
ag7
(I175
I96
I96
I255
tp2914
Rp2915
aV1
p2916
ag7
(I0
I0
I0
I255
tp2917
Rp2918
aV8
p2919
ag7
(I0
I0
I0
I255
tp2920
Rp2921
aV1
p2922
aasI10
(lp2923
I11
a(lp2924
I6
ag7
(I255
I0
I0
I255
tp2925
Rp2926
aV1
p2927
ag7
(I0
I0
I255
I255
tp2928
Rp2929
aV1
p2930
ag7
(I0
I0
I0
I255
tp2931
Rp2932
aV8
p2933
ag7
(I175
I96
I96
I255
tp2934
Rp2935
aV1
p2936
ag7
(I0
I0
I0
I255
tp2937
Rp2938
aV8
p2939
ag7
(I0
I0
I0
I255
tp2940
Rp2941
aV1
p2942
aasI11
(lp2943
I11
a(lp2944
I6
ag7
(I255
I0
I0
I255
tp2945
Rp2946
aV1
p2947
ag7
(I0
I0
I255
I255
tp2948
Rp2949
aV1
p2950
ag7
(I0
I0
I0
I255
tp2951
Rp2952
aV8
p2953
ag7
(I175
I96
I96
I255
tp2954
Rp2955
aV1
p2956
ag7
(I0
I0
I0
I255
tp2957
Rp2958
aV8
p2959
ag7
(I0
I0
I0
I255
tp2960
Rp2961
aV1
p2962
aassg174
V00:12 000ms
p2963
sba(ieffectgroup
EffectGroup
p2964
(dp2965
g3
(dp2966
I0
(lp2967
I-1
aNasI1
(lp2968
I-1
aNasI2
(lp2969
I-1
aNasI3
(lp2970
I-1
aNasI4
(lp2971
I-1
aNasI5
(lp2972
I11
a(lp2973
I6
ag7
(I255
I255
I255
I255
tp2974
Rp2975
aV1
p2976
ag7
(I0
I255
I0
I255
tp2977
Rp2978
aV2
p2979
ag7
(I0
I0
I255
I255
tp2980
Rp2981
aV2
p2982
ag7
(I255
I0
I0
I255
tp2983
Rp2984
aV1
p2985
ag7
(I0
I0
I0
I255
tp2986
Rp2987
aV32
p2988
ag7
(I0
I0
I0
I255
tp2989
Rp2990
aV1
p2991
aasI6
(lp2992
I11
a(lp2993
I6
ag7
(I255
I255
I255
I255
tp2994
Rp2995
aV1
p2996
ag7
(I0
I255
I0
I255
tp2997
Rp2998
aV2
p2999
ag7
(I0
I0
I255
I255
tp3000
Rp3001
aV2
p3002
ag7
(I255
I0
I0
I255
tp3003
Rp3004
aV1
p3005
ag7
(I0
I0
I0
I255
tp3006
Rp3007
aV32
p3008
ag7
(I0
I0
I0
I255
tp3009
Rp3010
aV1
p3011
aasI7
(lp3012
I-1
aNasI8
(lp3013
I-1
aNasI9
(lp3014
I-1
aNasI10
(lp3015
I-1
aNasI11
(lp3016
I-1
aNassg174
V00:12 500ms
p3017
sba(ieffectgroup
EffectGroup
p3018
(dp3019
g3
(dp3020
I0
(lp3021
I9
a(lp3022
I3
ag7
(I255
I255
I255
I255
tp3023
Rp3024
aV1
p3025
ag7
(I255
I0
I0
I255
tp3026
Rp3027
aV1
p3028
ag7
(I0
I0
I0
I255
tp3029
Rp3030
aV12
p3031
aasI1
(lp3032
I9
a(lp3033
I3
ag7
(I255
I255
I255
I255
tp3034
Rp3035
aV1
p3036
ag7
(I255
I0
I0
I255
tp3037
Rp3038
aV1
p3039
ag7
(I0
I0
I0
I255
tp3040
Rp3041
aV12
p3042
aasI2
(lp3043
I9
a(lp3044
I3
ag7
(I255
I255
I255
I255
tp3045
Rp3046
aV1
p3047
ag7
(I255
I0
I0
I255
tp3048
Rp3049
aV1
p3050
ag7
(I0
I0
I0
I255
tp3051
Rp3052
aV12
p3053
aasI3
(lp3054
I9
a(lp3055
I3
ag7
(I255
I255
I255
I255
tp3056
Rp3057
aV1
p3058
ag7
(I255
I0
I0
I255
tp3059
Rp3060
aV1
p3061
ag7
(I0
I0
I0
I255
tp3062
Rp3063
aV12
p3064
aasI4
(lp3065
I-1
aNasI5
(lp3066
I10
a(lp3067
I4
ag7
(I64
I0
I128
I255
tp3068
Rp3069
aV6
p3070
ag7
(I0
I0
I0
I255
tp3071
Rp3072
aV32
p3073
ag7
(I0
I0
I255
I255
tp3074
Rp3075
aV6
p3076
ag7
(I0
I0
I0
I255
tp3077
Rp3078
aV32
p3079
aasI6
(lp3080
I10
a(lp3081
I4
ag7
(I64
I0
I128
I255
tp3082
Rp3083
aV6
p3084
ag7
(I0
I0
I0
I255
tp3085
Rp3086
aV32
p3087
ag7
(I0
I0
I255
I255
tp3088
Rp3089
aV6
p3090
ag7
(I0
I0
I0
I255
tp3091
Rp3092
aV32
p3093
aasI7
(lp3094
I-1
aNasI8
(lp3095
I9
a(lp3096
I3
ag7
(I255
I255
I255
I255
tp3097
Rp3098
aV1
p3099
ag7
(I255
I0
I0
I255
tp3100
Rp3101
aV1
p3102
ag7
(I0
I0
I0
I255
tp3103
Rp3104
aV12
p3105
aasI9
(lp3106
I9
a(lp3107
I3
ag7
(I255
I255
I255
I255
tp3108
Rp3109
aV1
p3110
ag7
(I255
I0
I0
I255
tp3111
Rp3112
aV1
p3113
ag7
(I0
I0
I0
I255
tp3114
Rp3115
aV12
p3116
aasI10
(lp3117
I9
a(lp3118
I3
ag7
(I255
I255
I255
I255
tp3119
Rp3120
aV1
p3121
ag7
(I255
I0
I0
I255
tp3122
Rp3123
aV1
p3124
ag7
(I0
I0
I0
I255
tp3125
Rp3126
aV12
p3127
aasI11
(lp3128
I9
a(lp3129
I3
ag7
(I255
I255
I255
I255
tp3130
Rp3131
aV1
p3132
ag7
(I255
I0
I0
I255
tp3133
Rp3134
aV1
p3135
ag7
(I0
I0
I0
I255
tp3136
Rp3137
aV12
p3138
aassg174
V00:12 600ms
p3139
sba(ieffectgroup
EffectGroup
p3140
(dp3141
g3
(dp3142
I0
(lp3143
I13
a(lp3144
I10
ag7
(I64
I0
I128
I255
tp3145
Rp3146
aV1
p3147
ag7
(I0
I255
I0
I255
tp3148
Rp3149
aV1
p3150
ag7
(I0
I0
I0
I255
tp3151
Rp3152
aV12
p3153
ag7
(I0
I255
I0
I255
tp3154
Rp3155
aV1
p3156
ag7
(I0
I0
I255
I255
tp3157
Rp3158
aV1
p3159
ag7
(I0
I0
I0
I255
tp3160
Rp3161
aV12
p3162
ag7
(I0
I0
I255
I255
tp3163
Rp3164
aV1
p3165
ag7
(I64
I0
I128
I255
tp3166
Rp3167
aV1
p3168
ag7
(I0
I0
I0
I255
tp3169
Rp3170
aV20
p3171
ag7
(I0
I0
I0
I255
tp3172
Rp3173
aV1
p3174
aasI1
(lp3175
I13
a(lp3176
I10
ag7
(I64
I0
I128
I255
tp3177
Rp3178
aV2
p3179
ag7
(I0
I255
I0
I255
tp3180
Rp3181
aV1
p3182
ag7
(I0
I0
I0
I255
tp3183
Rp3184
aV12
p3185
ag7
(I0
I255
I0
I255
tp3186
Rp3187
aV1
p3188
ag7
(I0
I0
I255
I255
tp3189
Rp3190
aV1
p3191
ag7
(I0
I0
I0
I255
tp3192
Rp3193
aV12
p3194
ag7
(I0
I0
I255
I255
tp3195
Rp3196
aV1
p3197
ag7
(I128
I0
I255
I255
tp3198
Rp3199
aV2
p3200
ag7
(I0
I0
I0
I255
tp3201
Rp3202
aV20
p3203
ag7
(I0
I0
I0
I255
tp3204
Rp3205
aV1
p3206
aasI2
(lp3207
I13
a(lp3208
I10
ag7
(I64
I0
I128
I255
tp3209
Rp3210
aV1
p3211
ag7
(I0
I255
I0
I255
tp3212
Rp3213
aV1
p3214
ag7
(I0
I0
I0
I255
tp3215
Rp3216
aV12
p3217
ag7
(I0
I255
I0
I255
tp3218
Rp3219
aV1
p3220
ag7
(I0
I0
I255
I255
tp3221
Rp3222
aV1
p3223
ag7
(I0
I0
I0
I255
tp3224
Rp3225
aV12
p3226
ag7
(I0
I0
I255
I255
tp3227
Rp3228
aV1
p3229
ag7
(I64
I0
I128
I255
tp3230
Rp3231
aV2
p3232
ag7
(I0
I0
I0
I255
tp3233
Rp3234
aV20
p3235
ag7
(I0
I0
I0
I255
tp3236
Rp3237
aV1
p3238
aasI3
(lp3239
I13
a(lp3240
I10
ag7
(I64
I0
I128
I255
tp3241
Rp3242
aV1
p3243
ag7
(I0
I255
I0
I255
tp3244
Rp3245
aV1
p3246
ag7
(I0
I0
I0
I255
tp3247
Rp3248
aV12
p3249
ag7
(I0
I255
I0
I255
tp3250
Rp3251
aV1
p3252
ag7
(I0
I0
I255
I255
tp3253
Rp3254
aV1
p3255
ag7
(I0
I0
I0
I255
tp3256
Rp3257
aV12
p3258
ag7
(I0
I0
I255
I255
tp3259
Rp3260
aV1
p3261
ag7
(I64
I0
I128
I255
tp3262
Rp3263
aV2
p3264
ag7
(I0
I0
I0
I255
tp3265
Rp3266
aV20
p3267
ag7
(I0
I0
I0
I255
tp3268
Rp3269
aV1
p3270
aasI4
(lp3271
I-1
a(lp3272
asI5
(lp3273
I10
a(lp3274
I4
ag7
(I0
I255
I0
I255
tp3275
Rp3276
aV32
p3277
ag7
(I0
I0
I0
I255
tp3278
Rp3279
aV32
p3280
ag7
(I0
I0
I255
I255
tp3281
Rp3282
aV32
p3283
ag7
(I0
I0
I0
I255
tp3284
Rp3285
aV32
p3286
aasI6
(lp3287
I10
a(lp3288
I4
ag7
(I0
I255
I0
I255
tp3289
Rp3290
aV32
p3291
ag7
(I0
I0
I0
I255
tp3292
Rp3293
aV32
p3294
ag7
(I0
I0
I255
I255
tp3295
Rp3296
aV32
p3297
ag7
(I0
I0
I0
I255
tp3298
Rp3299
aV32
p3300
aasI7
(lp3301
I-1
aNasI8
(lp3302
I13
a(lp3303
I10
ag7
(I64
I0
I128
I255
tp3304
Rp3305
aV1
p3306
ag7
(I0
I255
I0
I255
tp3307
Rp3308
aV1
p3309
ag7
(I0
I0
I0
I255
tp3310
Rp3311
aV12
p3312
ag7
(I0
I255
I0
I255
tp3313
Rp3314
aV1
p3315
ag7
(I0
I0
I255
I255
tp3316
Rp3317
aV1
p3318
ag7
(I0
I0
I0
I255
tp3319
Rp3320
aV12
p3321
ag7
(I0
I0
I255
I255
tp3322
Rp3323
aV1
p3324
ag7
(I64
I0
I128
I255
tp3325
Rp3326
aV2
p3327
ag7
(I0
I0
I0
I255
tp3328
Rp3329
aV20
p3330
ag7
(I0
I0
I0
I255
tp3331
Rp3332
aV1
p3333
aasI9
(lp3334
I13
a(lp3335
I10
ag7
(I64
I0
I128
I255
tp3336
Rp3337
aV1
p3338
ag7
(I0
I255
I0
I255
tp3339
Rp3340
aV1
p3341
ag7
(I0
I0
I0
I255
tp3342
Rp3343
aV12
p3344
ag7
(I0
I255
I0
I255
tp3345
Rp3346
aV1
p3347
ag7
(I0
I0
I255
I255
tp3348
Rp3349
aV1
p3350
ag7
(I0
I0
I0
I255
tp3351
Rp3352
aV12
p3353
ag7
(I0
I0
I255
I255
tp3354
Rp3355
aV1
p3356
ag7
(I64
I0
I128
I255
tp3357
Rp3358
aV2
p3359
ag7
(I0
I0
I0
I255
tp3360
Rp3361
aV20
p3362
ag7
(I0
I0
I0
I255
tp3363
Rp3364
aV1
p3365
aasI10
(lp3366
I13
a(lp3367
I10
ag7
(I64
I0
I128
I255
tp3368
Rp3369
aV1
p3370
ag7
(I0
I255
I0
I255
tp3371
Rp3372
aV1
p3373
ag7
(I0
I0
I0
I255
tp3374
Rp3375
aV12
p3376
ag7
(I0
I255
I0
I255
tp3377
Rp3378
aV1
p3379
ag7
(I0
I0
I255
I255
tp3380
Rp3381
aV1
p3382
ag7
(I0
I0
I0
I255
tp3383
Rp3384
aV12
p3385
ag7
(I0
I0
I255
I255
tp3386
Rp3387
aV1
p3388
ag7
(I64
I0
I128
I255
tp3389
Rp3390
aV2
p3391
ag7
(I0
I0
I0
I255
tp3392
Rp3393
aV20
p3394
ag7
(I0
I0
I0
I255
tp3395
Rp3396
aV1
p3397
aasI11
(lp3398
I13
a(lp3399
I10
ag7
(I64
I0
I128
I255
tp3400
Rp3401
aV1
p3402
ag7
(I0
I255
I0
I255
tp3403
Rp3404
aV1
p3405
ag7
(I0
I0
I0
I255
tp3406
Rp3407
aV12
p3408
ag7
(I0
I255
I0
I255
tp3409
Rp3410
aV1
p3411
ag7
(I0
I0
I255
I255
tp3412
Rp3413
aV1
p3414
ag7
(I0
I0
I0
I255
tp3415
Rp3416
aV12
p3417
ag7
(I0
I0
I255
I255
tp3418
Rp3419
aV1
p3420
ag7
(I64
I0
I128
I255
tp3421
Rp3422
aV2
p3423
ag7
(I0
I0
I0
I255
tp3424
Rp3425
aV20
p3426
ag7
(I0
I0
I0
I255
tp3427
Rp3428
aV1
p3429
aassg174
V00:13 000ms
p3430
sba(ieffectgroup
EffectGroup
p3431
(dp3432
g3
(dp3433
I0
(lp3434
I9
a(lp3435
I3
ag7
(I0
I0
I255
I255
tp3436
Rp3437
aV1
p3438
ag7
(I0
I255
I0
I255
tp3439
Rp3440
aV1
p3441
ag7
(I0
I0
I0
I255
tp3442
Rp3443
aV12
p3444
aasI1
(lp3445
I10
a(lp3446
I4
ag7
(I64
I0
I128
I255
tp3447
Rp3448
aV1
p3449
ag7
(I0
I0
I0
I255
tp3450
Rp3451
aV12
p3452
ag7
(I64
I0
I128
I255
tp3453
Rp3454
aV1
p3455
ag7
(I0
I0
I0
I255
tp3456
Rp3457
aV36
p3458
aasI2
(lp3459
I10
a(lp3460
I4
ag7
(I64
I0
I128
I255
tp3461
Rp3462
aV1
p3463
ag7
(I0
I0
I0
I255
tp3464
Rp3465
aV12
p3466
ag7
(I64
I0
I128
I255
tp3467
Rp3468
aV1
p3469
ag7
(I0
I0
I0
I255
tp3470
Rp3471
aV36
p3472
aasI3
(lp3473
I9
a(lp3474
I3
ag7
(I0
I0
I255
I255
tp3475
Rp3476
aV1
p3477
ag7
(I0
I255
I0
I255
tp3478
Rp3479
aV1
p3480
ag7
(I0
I0
I0
I255
tp3481
Rp3482
aV12
p3483
aasI4
(lp3484
I-1
aNasI5
(lp3485
I10
a(lp3486
I4
ag7
(I0
I255
I0
I255
tp3487
Rp3488
aV32
p3489
ag7
(I0
I0
I0
I255
tp3490
Rp3491
aV32
p3492
ag7
(I0
I0
I255
I255
tp3493
Rp3494
aV32
p3495
ag7
(I0
I0
I0
I255
tp3496
Rp3497
aV32
p3498
aasI6
(lp3499
I10
a(lp3500
I4
ag7
(I0
I255
I0
I255
tp3501
Rp3502
aV32
p3503
ag7
(I0
I0
I0
I255
tp3504
Rp3505
aV32
p3506
ag7
(I0
I0
I255
I255
tp3507
Rp3508
aV32
p3509
ag7
(I0
I0
I0
I255
tp3510
Rp3511
aV32
p3512
aasI7
(lp3513
I-1
aNasI8
(lp3514
I9
a(lp3515
I3
ag7
(I0
I0
I255
I255
tp3516
Rp3517
aV1
p3518
ag7
(I0
I255
I0
I255
tp3519
Rp3520
aV1
p3521
ag7
(I0
I0
I0
I255
tp3522
Rp3523
aV12
p3524
aasI9
(lp3525
I10
a(lp3526
I4
ag7
(I64
I0
I128
I255
tp3527
Rp3528
aV1
p3529
ag7
(I0
I0
I0
I255
tp3530
Rp3531
aV12
p3532
ag7
(I64
I0
I128
I255
tp3533
Rp3534
aV1
p3535
ag7
(I0
I0
I0
I255
tp3536
Rp3537
aV36
p3538
aasI10
(lp3539
I10
a(lp3540
I4
ag7
(I64
I0
I128
I255
tp3541
Rp3542
aV1
p3543
ag7
(I0
I0
I0
I255
tp3544
Rp3545
aV12
p3546
ag7
(I64
I0
I128
I255
tp3547
Rp3548
aV1
p3549
ag7
(I0
I0
I0
I255
tp3550
Rp3551
aV36
p3552
aasI11
(lp3553
I9
a(lp3554
I3
ag7
(I0
I0
I255
I255
tp3555
Rp3556
aV1
p3557
ag7
(I0
I255
I0
I255
tp3558
Rp3559
aV1
p3560
ag7
(I0
I0
I0
I255
tp3561
Rp3562
aV12
p3563
aassg174
V00:13 500ms
p3564
sba(ieffectgroup
EffectGroup
p3565
(dp3566
g3
(dp3567
I0
(lp3568
I10
a(lp3569
I4
ag7
(I0
I0
I255
I255
tp3570
Rp3571
aV1
p3572
ag7
(I0
I0
I0
I255
tp3573
Rp3574
aV8
p3575
ag7
(I64
I0
I128
I255
tp3576
Rp3577
aV1
p3578
ag7
(I0
I0
I0
I255
tp3579
Rp3580
aV17
p3581
aasI1
(lp3582
I8
a(lp3583
I2
ag7
(I64
I0
I128
I255
tp3584
Rp3585
aV1
p3586
ag7
(I0
I0
I0
I255
tp3587
Rp3588
aV8
p3589
aasI2
(lp3590
I11
a(lp3591
I6
ag7
(I0
I0
I255
I255
tp3592
Rp3593
aV1
p3594
ag7
(I0
I0
I0
I255
tp3595
Rp3596
aV8
p3597
ag7
(I64
I0
I128
I255
tp3598
Rp3599
aV1
p3600
ag7
(I0
I0
I0
I255
tp3601
Rp3602
aV8
p3603
ag7
(I255
I255
I255
I255
tp3604
Rp3605
aV1
p3606
ag7
(I0
I0
I0
I255
tp3607
Rp3608
aV8
p3609
aasI3
(lp3610
I10
a(lp3611
I4
ag7
(I64
I0
I128
I255
tp3612
Rp3613
aV1
p3614
ag7
(I0
I0
I0
I255
tp3615
Rp3616
aV8
p3617
ag7
(I0
I0
I255
I255
tp3618
Rp3619
aV1
p3620
ag7
(I0
I0
I0
I255
tp3621
Rp3622
aV17
p3623
aasI4
(lp3624
I-1
aNasI5
(lp3625
I3
a(lp3626
g7
(I30
I0
I60
I255
tp3627
Rp3628
aV16
p3629
aV16
p3630
aasI6
(lp3631
I3
a(lp3632
g7
(I30
I0
I60
I255
tp3633
Rp3634
aV16
p3635
aV16
p3636
aasI7
(lp3637
I-1
aNasI8
(lp3638
I10
a(lp3639
I4
ag7
(I64
I0
I128
I255
tp3640
Rp3641
aV1
p3642
ag7
(I0
I0
I0
I255
tp3643
Rp3644
aV8
p3645
ag7
(I0
I0
I255
I255
tp3646
Rp3647
aV1
p3648
ag7
(I0
I0
I0
I255
tp3649
Rp3650
aV17
p3651
aasI9
(lp3652
I11
a(lp3653
I6
ag7
(I0
I0
I255
I255
tp3654
Rp3655
aV1
p3656
ag7
(I0
I0
I0
I255
tp3657
Rp3658
aV8
p3659
ag7
(I64
I0
I128
I255
tp3660
Rp3661
aV1
p3662
ag7
(I0
I0
I0
I255
tp3663
Rp3664
aV8
p3665
ag7
(I255
I255
I255
I255
tp3666
Rp3667
aV1
p3668
ag7
(I0
I0
I0
I255
tp3669
Rp3670
aV8
p3671
aasI10
(lp3672
I8
a(lp3673
I2
ag7
(I64
I0
I128
I255
tp3674
Rp3675
aV1
p3676
ag7
(I0
I0
I0
I255
tp3677
Rp3678
aV8
p3679
aasI11
(lp3680
I10
a(lp3681
I4
ag7
(I0
I0
I255
I255
tp3682
Rp3683
aV1
p3684
ag7
(I0
I0
I0
I255
tp3685
Rp3686
aV8
p3687
ag7
(I64
I0
I128
I255
tp3688
Rp3689
aV1
p3690
ag7
(I0
I0
I0
I255
tp3691
Rp3692
aV17
p3693
aassg174
V00:14 000ms
p3694
sba(ieffectgroup
EffectGroup
p3695
(dp3696
g3
(dp3697
I0
(lp3698
I-1
a(lp3699
asI1
(lp3700
I-1
aNasI2
(lp3701
I-1
aNasI3
(lp3702
I-1
aNasI4
(lp3703
I-1
aNasI5
(lp3704
I3
a(lp3705
g7
(I30
I0
I60
I255
tp3706
Rp3707
aV16
p3708
aV16
p3709
aasI6
(lp3710
I3
a(lp3711
g7
(I30
I0
I60
I255
tp3712
Rp3713
aV16
p3714
aV16
p3715
aasI7
(lp3716
I-1
aNasI8
(lp3717
I-1
aNasI9
(lp3718
I-1
aNasI10
(lp3719
I-1
aNasI11
(lp3720
I-1
aNassg174
V00:16 000ms
p3721
sba(ieffectgroup
EffectGroup
p3722
(dp3723
g3
(dp3724
I0
(lp3725
I-1
aNasI1
(lp3726
I-1
aNasI2
(lp3727
I-1
aNasI3
(lp3728
I10
a(lp3729
I4
ag7
(I0
I128
I128
I255
tp3730
Rp3731
aV1
p3732
ag7
(I2
I0
I1
I255
tp3733
Rp3734
aV16
p3735
ag7
(I0
I0
I200
I255
tp3736
Rp3737
aV1
p3738
ag7
(I2
I0
I1
I255
tp3739
Rp3740
aV24
p3741
aasI4
(lp3742
I-1
aNasI5
(lp3743
I3
a(lp3744
g7
(I30
I0
I60
I255
tp3745
Rp3746
aV16
p3747
aV16
p3748
aasI6
(lp3749
I3
a(lp3750
g7
(I30
I0
I60
I255
tp3751
Rp3752
aV16
p3753
aV16
p3754
aasI7
(lp3755
I-1
aNasI8
(lp3756
I10
a(lp3757
I4
ag7
(I0
I128
I128
I255
tp3758
Rp3759
aV1
p3760
ag7
(I2
I0
I1
I255
tp3761
Rp3762
aV16
p3763
ag7
(I0
I0
I200
I255
tp3764
Rp3765
aV1
p3766
ag7
(I2
I0
I1
I255
tp3767
Rp3768
aV24
p3769
aasI9
(lp3770
I-1
aNasI10
(lp3771
I-1
aNasI11
(lp3772
I-1
aNassg174
V00:17 000ms
p3773
sba(ieffectgroup
EffectGroup
p3774
(dp3775
g3
(dp3776
I0
(lp3777
I-1
aNasI1
(lp3778
I-1
aNasI2
(lp3779
I-1
a(lp3780
asI3
(lp3781
I10
a(lp3782
I4
ag7
(I0
I128
I128
I255
tp3783
Rp3784
aV1
p3785
ag7
(I2
I0
I1
I255
tp3786
Rp3787
aV16
p3788
ag7
(I0
I0
I200
I255
tp3789
Rp3790
aV1
p3791
ag7
(I2
I0
I1
I255
tp3792
Rp3793
aV24
p3794
aasI4
(lp3795
I3
a(lp3796
g7
(I64
I0
I128
I255
tp3797
Rp3798
aV1
p3799
aV4
p3800
aasI5
(lp3801
I-1
a(lp3802
asI6
(lp3803
I-1
a(lp3804
asI7
(lp3805
I3
a(lp3806
g7
(I64
I0
I128
I255
tp3807
Rp3808
aV1
p3809
aV4
p3810
aasI8
(lp3811
I10
a(lp3812
I4
ag7
(I0
I128
I128
I255
tp3813
Rp3814
aV1
p3815
ag7
(I2
I0
I1
I255
tp3816
Rp3817
aV16
p3818
ag7
(I0
I0
I200
I255
tp3819
Rp3820
aV1
p3821
ag7
(I2
I0
I1
I255
tp3822
Rp3823
aV24
p3824
aasI9
(lp3825
I-1
aNasI10
(lp3826
I-1
aNasI11
(lp3827
I-1
aNassg174
V00:18 000ms
p3828
sba(ieffectgroup
EffectGroup
p3829
(dp3830
g3
(dp3831
I0
(lp3832
I-1
aNasI1
(lp3833
I-1
aNasI2
(lp3834
I-1
aNasI3
(lp3835
I-1
aNasI4
(lp3836
I3
a(lp3837
g7
(I64
I0
I128
I255
tp3838
Rp3839
aV1
p3840
aV4
p3841
aasI5
(lp3842
I-1
aNasI6
(lp3843
I-1
aNasI7
(lp3844
I3
a(lp3845
g7
(I64
I0
I128
I255
tp3846
Rp3847
aV1
p3848
aV4
p3849
aasI8
(lp3850
I-1
aNasI9
(lp3851
I-1
aNasI10
(lp3852
I-1
aNasI11
(lp3853
I-1
aNassg174
V00:19 000ms
p3854
sba(ieffectgroup
EffectGroup
p3855
(dp3856
g3
(dp3857
I0
(lp3858
I-1
aNasI1
(lp3859
I-1
aNasI2
(lp3860
I-1
aNasI3
(lp3861
I9
a(lp3862
I3
ag7
(I150
I0
I0
I255
tp3863
Rp3864
aV2
p3865
ag7
(I0
I0
I100
I255
tp3866
Rp3867
aV2
p3868
ag7
(I2
I0
I1
I255
tp3869
Rp3870
aV30
p3871
aasI4
(lp3872
I3
a(lp3873
g7
(I64
I0
I128
I255
tp3874
Rp3875
aV1
p3876
aV4
p3877
aasI5
(lp3878
I-1
a(lp3879
asI6
(lp3880
I-1
aNasI7
(lp3881
I3
a(lp3882
g7
(I64
I0
I128
I255
tp3883
Rp3884
aV1
p3885
aV4
p3886
aasI8
(lp3887
I9
a(lp3888
I3
ag7
(I150
I0
I0
I255
tp3889
Rp3890
aV2
p3891
ag7
(I0
I0
I100
I255
tp3892
Rp3893
aV2
p3894
ag7
(I2
I0
I1
I255
tp3895
Rp3896
aV30
p3897
aasI9
(lp3898
I-1
aNasI10
(lp3899
I-1
aNasI11
(lp3900
I-1
aNassg174
V00:20 000ms
p3901
sba(ieffectgroup
EffectGroup
p3902
(dp3903
g3
(dp3904
I0
(lp3905
I-1
aNasI1
(lp3906
I-1
aNasI2
(lp3907
I-1
aNasI3
(lp3908
I9
a(lp3909
I3
ag7
(I255
I0
I0
I255
tp3910
Rp3911
aV16
p3912
ag7
(I0
I0
I255
I255
tp3913
Rp3914
aV16
p3915
ag7
(I96
I96
I96
I255
tp3916
Rp3917
aV4
p3918
aasI4
(lp3919
I-1
aNasI5
(lp3920
I-1
aNasI6
(lp3921
I-1
aNasI7
(lp3922
I-1
aNasI8
(lp3923
I9
a(lp3924
I3
ag7
(I128
I0
I255
I255
tp3925
Rp3926
aV16
p3927
ag7
(I0
I128
I128
I255
tp3928
Rp3929
aV16
p3930
ag7
(I96
I96
I96
I255
tp3931
Rp3932
aV4
p3933
aasI9
(lp3934
I-1
aNasI10
(lp3935
I-1
aNasI11
(lp3936
I-1
aNassg174
V00:21 000ms
p3937
sba(ieffectgroup
EffectGroup
p3938
(dp3939
g3
(dp3940
I0
(lp3941
I-1
aNasI1
(lp3942
I-1
aNasI2
(lp3943
I-1
aNasI3
(lp3944
I-1
a(lp3945
asI4
(lp3946
I-1
aNasI5
(lp3947
I9
a(lp3948
I3
ag7
(I255
I0
I0
I255
tp3949
Rp3950
aV4
p3951
ag7
(I0
I0
I255
I255
tp3952
Rp3953
aV4
p3954
ag7
(I0
I0
I0
I255
tp3955
Rp3956
aV24
p3957
aasI6
(lp3958
I9
a(lp3959
I3
ag7
(I128
I0
I255
I255
tp3960
Rp3961
aV4
p3962
ag7
(I0
I128
I128
I255
tp3963
Rp3964
aV4
p3965
ag7
(I0
I0
I0
I255
tp3966
Rp3967
aV24
p3968
aasI7
(lp3969
I-1
aNasI8
(lp3970
I-1
aNasI9
(lp3971
I-1
aNasI10
(lp3972
I-1
aNasI11
(lp3973
I-1
aNassg174
V00:22 000ms
p3974
sba(ieffectgroup
EffectGroup
p3975
(dp3976
g3
(dp3977
I0
(lp3978
I3
a(lp3979
g7
(I0
I0
I255
I255
tp3980
Rp3981
aV1
p3982
aV32
p3983
aasI1
(lp3984
I3
a(lp3985
g7
(I128
I0
I255
I255
tp3986
Rp3987
aV1
p3988
aV32
p3989
aasI2
(lp3990
I3
a(lp3991
g7
(I0
I0
I255
I255
tp3992
Rp3993
aV1
p3994
aV32
p3995
aasI3
(lp3996
I3
a(lp3997
g7
(I128
I0
I255
I255
tp3998
Rp3999
aV1
p4000
aV32
p4001
aasI4
(lp4002
I-1
aNasI5
(lp4003
I10
a(lp4004
I4
ag7
(I128
I0
I255
I255
tp4005
Rp4006
aV16
p4007
ag7
(I0
I0
I0
I255
tp4008
Rp4009
aV16
p4010
ag7
(I0
I0
I255
I255
tp4011
Rp4012
aV16
p4013
ag7
(I0
I0
I0
I255
tp4014
Rp4015
aV16
p4016
aasI6
(lp4017
I10
a(lp4018
I4
ag7
(I0
I0
I255
I255
tp4019
Rp4020
aV16
p4021
ag7
(I0
I0
I0
I255
tp4022
Rp4023
aV16
p4024
ag7
(I128
I0
I255
I255
tp4025
Rp4026
aV16
p4027
ag7
(I0
I0
I0
I255
tp4028
Rp4029
aV16
p4030
aasI7
(lp4031
I-1
aNasI8
(lp4032
I3
a(lp4033
g7
(I128
I0
I255
I255
tp4034
Rp4035
aV1
p4036
aV32
p4037
aasI9
(lp4038
I3
a(lp4039
g7
(I0
I0
I255
I255
tp4040
Rp4041
aV1
p4042
aV32
p4043
aasI10
(lp4044
I3
a(lp4045
g7
(I128
I0
I255
I255
tp4046
Rp4047
aV1
p4048
aV32
p4049
aasI11
(lp4050
I3
a(lp4051
g7
(I0
I0
I255
I255
tp4052
Rp4053
aV1
p4054
aV32
p4055
aassg174
V00:23 000ms
p4056
sba(ieffectgroup
EffectGroup
p4057
(dp4058
g3
(dp4059
I0
(lp4060
I11
a(lp4061
I6
ag7
(I255
I255
I255
I255
tp4062
Rp4063
aV1
p4064
ag7
(I0
I0
I0
I255
tp4065
Rp4066
aV16
p4067
ag7
(I255
I255
I255
I255
tp4068
Rp4069
aV1
p4070
ag7
(I0
I0
I0
I255
tp4071
Rp4072
aV16
p4073
ag7
(I255
I255
I0
I255
tp4074
Rp4075
aV1
p4076
ag7
(I0
I0
I0
I255
tp4077
Rp4078
aV16
p4079
aasI1
(lp4080
I11
a(lp4081
I6
ag7
(I255
I255
I255
I255
tp4082
Rp4083
aV1
p4084
ag7
(I0
I0
I0
I255
tp4085
Rp4086
aV16
p4087
ag7
(I255
I255
I255
I255
tp4088
Rp4089
aV1
p4090
ag7
(I0
I0
I0
I255
tp4091
Rp4092
aV16
p4093
ag7
(I255
I255
I0
I255
tp4094
Rp4095
aV1
p4096
ag7
(I0
I0
I0
I255
tp4097
Rp4098
aV48
p4099
aasI2
(lp4100
I11
a(lp4101
I6
ag7
(I255
I255
I255
I255
tp4102
Rp4103
aV1
p4104
ag7
(I0
I0
I0
I255
tp4105
Rp4106
aV16
p4107
ag7
(I255
I255
I255
I255
tp4108
Rp4109
aV1
p4110
ag7
(I0
I0
I0
I255
tp4111
Rp4112
aV16
p4113
ag7
(I255
I255
I0
I255
tp4114
Rp4115
aV1
p4116
ag7
(I0
I0
I0
I255
tp4117
Rp4118
aV48
p4119
aasI3
(lp4120
I11
a(lp4121
I6
ag7
(I255
I255
I255
I255
tp4122
Rp4123
aV1
p4124
ag7
(I0
I0
I0
I255
tp4125
Rp4126
aV16
p4127
ag7
(I255
I255
I255
I255
tp4128
Rp4129
aV1
p4130
ag7
(I0
I0
I0
I255
tp4131
Rp4132
aV16
p4133
ag7
(I255
I255
I0
I255
tp4134
Rp4135
aV1
p4136
ag7
(I0
I0
I0
I255
tp4137
Rp4138
aV48
p4139
aasI4
(lp4140
I-1
a(lp4141
asI5
(lp4142
I8
a(lp4143
I2
ag7
(I255
I200
I0
I255
tp4144
Rp4145
aV1
p4146
ag7
(I0
I0
I0
I255
tp4147
Rp4148
aV24
p4149
aasI6
(lp4150
I8
a(lp4151
I2
ag7
(I255
I200
I0
I255
tp4152
Rp4153
aV1
p4154
ag7
(I0
I0
I0
I255
tp4155
Rp4156
aV24
p4157
aasI7
(lp4158
I-1
aNasI8
(lp4159
I11
a(lp4160
I6
ag7
(I255
I255
I255
I255
tp4161
Rp4162
aV1
p4163
ag7
(I0
I0
I0
I255
tp4164
Rp4165
aV16
p4166
ag7
(I255
I255
I255
I255
tp4167
Rp4168
aV1
p4169
ag7
(I0
I0
I0
I255
tp4170
Rp4171
aV16
p4172
ag7
(I255
I255
I0
I255
tp4173
Rp4174
aV1
p4175
ag7
(I0
I0
I0
I255
tp4176
Rp4177
aV48
p4178
aasI9
(lp4179
I11
a(lp4180
I6
ag7
(I255
I255
I255
I255
tp4181
Rp4182
aV1
p4183
ag7
(I0
I0
I0
I255
tp4184
Rp4185
aV16
p4186
ag7
(I255
I255
I255
I255
tp4187
Rp4188
aV1
p4189
ag7
(I0
I0
I0
I255
tp4190
Rp4191
aV16
p4192
ag7
(I255
I255
I0
I255
tp4193
Rp4194
aV1
p4195
ag7
(I0
I0
I0
I255
tp4196
Rp4197
aV48
p4198
aasI10
(lp4199
I11
a(lp4200
I6
ag7
(I255
I255
I255
I255
tp4201
Rp4202
aV1
p4203
ag7
(I0
I0
I0
I255
tp4204
Rp4205
aV16
p4206
ag7
(I255
I255
I255
I255
tp4207
Rp4208
aV1
p4209
ag7
(I0
I0
I0
I255
tp4210
Rp4211
aV16
p4212
ag7
(I255
I255
I0
I255
tp4213
Rp4214
aV1
p4215
ag7
(I0
I0
I0
I255
tp4216
Rp4217
aV48
p4218
aasI11
(lp4219
I11
a(lp4220
I6
ag7
(I255
I255
I255
I255
tp4221
Rp4222
aV1
p4223
ag7
(I0
I0
I0
I255
tp4224
Rp4225
aV16
p4226
ag7
(I255
I255
I255
I255
tp4227
Rp4228
aV1
p4229
ag7
(I0
I0
I0
I255
tp4230
Rp4231
aV16
p4232
ag7
(I255
I255
I0
I255
tp4233
Rp4234
aV1
p4235
ag7
(I0
I0
I0
I255
tp4236
Rp4237
aV16
p4238
aassg174
V00:24 000ms
p4239
sba(ieffectgroup
EffectGroup
p4240
(dp4241
g3
(dp4242
I0
(lp4243
I3
a(lp4244
g7
(I20
I20
I0
I255
tp4245
Rp4246
aV1
p4247
aV32
p4248
aasI1
(lp4249
I3
a(lp4250
g7
(I20
I20
I0
I255
tp4251
Rp4252
aV1
p4253
aV32
p4254
aasI2
(lp4255
I3
a(lp4256
g7
(I20
I20
I0
I255
tp4257
Rp4258
aV1
p4259
aV32
p4260
aasI3
(lp4261
I3
a(lp4262
g7
(I20
I20
I0
I255
tp4263
Rp4264
aV1
p4265
aV32
p4266
aasI4
(lp4267
I-1
aNasI5
(lp4268
I9
a(lp4269
I3
ag7
(I255
I255
I0
I255
tp4270
Rp4271
aV16
p4272
ag7
(I255
I255
I255
I255
tp4273
Rp4274
aV2
p4275
ag7
(I0
I0
I0
I255
tp4276
Rp4277
aV32
p4278
aasI6
(lp4279
I9
a(lp4280
I3
ag7
(I255
I255
I0
I255
tp4281
Rp4282
aV16
p4283
ag7
(I255
I255
I255
I255
tp4284
Rp4285
aV2
p4286
ag7
(I0
I0
I0
I255
tp4287
Rp4288
aV32
p4289
aasI7
(lp4290
I-1
aNasI8
(lp4291
I3
a(lp4292
g7
(I20
I20
I0
I255
tp4293
Rp4294
aV1
p4295
aV32
p4296
aasI9
(lp4297
I3
a(lp4298
g7
(I20
I20
I0
I255
tp4299
Rp4300
aV1
p4301
aV32
p4302
aasI10
(lp4303
I3
a(lp4304
g7
(I20
I20
I0
I255
tp4305
Rp4306
aV1
p4307
aV32
p4308
aasI11
(lp4309
I3
a(lp4310
g7
(I20
I20
I0
I255
tp4311
Rp4312
aV1
p4313
aV32
p4314
aassg174
V00:25 000ms
p4315
sba(ieffectgroup
EffectGroup
p4316
(dp4317
g3
(dp4318
I0
(lp4319
I5
a(lp4320
g7
(I20
I20
I0
I255
tp4321
Rp4322
ag7
(I255
I128
I0
I255
tp4323
Rp4324
aV200
p4325
aV2
p4326
aV16
p4327
aasI1
(lp4328
I5
a(lp4329
g7
(I20
I20
I0
I255
tp4330
Rp4331
ag7
(I64
I0
I128
I255
tp4332
Rp4333
aV200
p4334
aV2
p4335
aV16
p4336
aasI2
(lp4337
I5
a(lp4338
g7
(I20
I20
I0
I255
tp4339
Rp4340
ag7
(I255
I128
I0
I255
tp4341
Rp4342
aV200
p4343
aV2
p4344
aV16
p4345
aasI3
(lp4346
I5
a(lp4347
g7
(I20
I20
I0
I255
tp4348
Rp4349
ag7
(I64
I0
I128
I255
tp4350
Rp4351
aV200
p4352
aV2
p4353
aV16
p4354
aasI4
(lp4355
I5
a(lp4356
g7
(I64
I0
I128
I255
tp4357
Rp4358
ag7
(I255
I128
I0
I255
tp4359
Rp4360
aV200
p4361
aV2
p4362
aV16
p4363
aasI5
(lp4364
I-1
aNasI6
(lp4365
I-1
aNasI7
(lp4366
I5
a(lp4367
g7
(I64
I0
I128
I255
tp4368
Rp4369
ag7
(I255
I128
I0
I255
tp4370
Rp4371
aV200
p4372
aV2
p4373
aV16
p4374
aasI8
(lp4375
I5
a(lp4376
g7
(I20
I20
I0
I255
tp4377
Rp4378
ag7
(I64
I0
I128
I255
tp4379
Rp4380
aV200
p4381
aV2
p4382
aV16
p4383
aasI9
(lp4384
I5
a(lp4385
g7
(I20
I20
I0
I255
tp4386
Rp4387
ag7
(I255
I128
I0
I255
tp4388
Rp4389
aV200
p4390
aV2
p4391
aV16
p4392
aasI10
(lp4393
I5
a(lp4394
g7
(I20
I20
I0
I255
tp4395
Rp4396
ag7
(I64
I0
I128
I255
tp4397
Rp4398
aV200
p4399
aV2
p4400
aV16
p4401
aasI11
(lp4402
I5
a(lp4403
g7
(I20
I20
I0
I255
tp4404
Rp4405
ag7
(I255
I128
I0
I255
tp4406
Rp4407
aV200
p4408
aV2
p4409
aV16
p4410
aassg174
V00:26 000ms
p4411
sba(ieffectgroup
EffectGroup
p4412
(dp4413
g3
(dp4414
I0
(lp4415
I10
a(lp4416
I4
ag7
(I255
I0
I0
I255
tp4417
Rp4418
aV1
p4419
ag7
(I0
I0
I0
I255
tp4420
Rp4421
aV8
p4422
ag7
(I64
I0
I128
I255
tp4423
Rp4424
aV1
p4425
ag7
(I0
I0
I0
I255
tp4426
Rp4427
aV16
p4428
aasI1
(lp4429
I10
a(lp4430
I4
ag7
(I64
I0
I128
I255
tp4431
Rp4432
aV1
p4433
ag7
(I0
I0
I0
I255
tp4434
Rp4435
aV8
p4436
ag7
(I64
I0
I128
I255
tp4437
Rp4438
aV1
p4439
ag7
(I0
I0
I0
I255
tp4440
Rp4441
aV16
p4442
aasI2
(lp4443
I10
a(lp4444
I4
ag7
(I255
I0
I0
I255
tp4445
Rp4446
aV1
p4447
ag7
(I0
I0
I0
I255
tp4448
Rp4449
aV8
p4450
ag7
(I64
I0
I128
I255
tp4451
Rp4452
aV1
p4453
ag7
(I0
I0
I0
I255
tp4454
Rp4455
aV16
p4456
aasI3
(lp4457
I10
a(lp4458
I4
ag7
(I64
I0
I128
I255
tp4459
Rp4460
aV1
p4461
ag7
(I0
I0
I0
I255
tp4462
Rp4463
aV8
p4464
ag7
(I64
I0
I128
I255
tp4465
Rp4466
aV1
p4467
ag7
(I0
I0
I0
I255
tp4468
Rp4469
aV16
p4470
aasI4
(lp4471
I-1
aNasI5
(lp4472
I7
a(lp4473
g7
(I255
I0
I0
I255
tp4474
Rp4475
ag7
(I0
I0
I255
I255
tp4476
Rp4477
ag7
(I0
I255
I0
I255
tp4478
Rp4479
aV300
p4480
aV1
p4481
aV1
p4482
aasI6
(lp4483
I7
a(lp4484
g7
(I255
I0
I0
I255
tp4485
Rp4486
ag7
(I0
I0
I255
I255
tp4487
Rp4488
ag7
(I0
I255
I0
I255
tp4489
Rp4490
aV300
p4491
aV1
p4492
aV1
p4493
aasI7
(lp4494
I-1
aNasI8
(lp4495
I10
a(lp4496
I4
ag7
(I64
I0
I128
I255
tp4497
Rp4498
aV1
p4499
ag7
(I0
I0
I0
I255
tp4500
Rp4501
aV8
p4502
ag7
(I64
I0
I128
I255
tp4503
Rp4504
aV1
p4505
ag7
(I0
I0
I0
I255
tp4506
Rp4507
aV16
p4508
aasI9
(lp4509
I10
a(lp4510
I4
ag7
(I255
I0
I0
I255
tp4511
Rp4512
aV1
p4513
ag7
(I0
I0
I0
I255
tp4514
Rp4515
aV8
p4516
ag7
(I64
I0
I128
I255
tp4517
Rp4518
aV1
p4519
ag7
(I0
I0
I0
I255
tp4520
Rp4521
aV16
p4522
aasI10
(lp4523
I10
a(lp4524
I4
ag7
(I64
I0
I128
I255
tp4525
Rp4526
aV1
p4527
ag7
(I0
I0
I0
I255
tp4528
Rp4529
aV8
p4530
ag7
(I64
I0
I128
I255
tp4531
Rp4532
aV1
p4533
ag7
(I0
I0
I0
I255
tp4534
Rp4535
aV16
p4536
aasI11
(lp4537
I10
a(lp4538
I4
ag7
(I255
I0
I0
I255
tp4539
Rp4540
aV1
p4541
ag7
(I0
I0
I0
I255
tp4542
Rp4543
aV8
p4544
ag7
(I64
I0
I128
I255
tp4545
Rp4546
aV1
p4547
ag7
(I0
I0
I0
I255
tp4548
Rp4549
aV16
p4550
aassg174
V00:27 000ms
p4551
sba(ieffectgroup
EffectGroup
p4552
(dp4553
g3
(dp4554
I0
(lp4555
I8
a(lp4556
I2
ag7
(I20
I0
I0
I255
tp4557
Rp4558
aV1
p4559
ag7
(I0
I0
I0
I255
tp4560
Rp4561
aV32
p4562
aasI1
(lp4563
I8
a(lp4564
I2
ag7
(I20
I0
I0
I255
tp4565
Rp4566
aV1
p4567
ag7
(I0
I0
I0
I255
tp4568
Rp4569
aV32
p4570
aasI2
(lp4571
I8
a(lp4572
I2
ag7
(I20
I0
I0
I255
tp4573
Rp4574
aV1
p4575
ag7
(I0
I0
I0
I255
tp4576
Rp4577
aV32
p4578
aasI3
(lp4579
I8
a(lp4580
I2
ag7
(I20
I0
I0
I255
tp4581
Rp4582
aV1
p4583
ag7
(I0
I0
I0
I255
tp4584
Rp4585
aV32
p4586
aasI4
(lp4587
I10
a(lp4588
I4
ag7
(I255
I0
I0
I255
tp4589
Rp4590
aV1
p4591
ag7
(I2
I0
I0
I255
tp4592
Rp4593
aV8
p4594
ag7
(I64
I0
I128
I255
tp4595
Rp4596
aV1
p4597
ag7
(I2
I0
I0
I255
tp4598
Rp4599
aV16
p4600
aasI5
(lp4601
I-1
a(lp4602
asI6
(lp4603
I-1
a(lp4604
asI7
(lp4605
I10
a(lp4606
I4
ag7
(I255
I0
I0
I255
tp4607
Rp4608
aV1
p4609
ag7
(I2
I0
I0
I255
tp4610
Rp4611
aV8
p4612
ag7
(I64
I0
I128
I255
tp4613
Rp4614
aV1
p4615
ag7
(I2
I0
I0
I255
tp4616
Rp4617
aV16
p4618
aasI8
(lp4619
I8
a(lp4620
I2
ag7
(I20
I0
I0
I255
tp4621
Rp4622
aV1
p4623
ag7
(I0
I0
I0
I255
tp4624
Rp4625
aV32
p4626
aasI9
(lp4627
I8
a(lp4628
I2
ag7
(I20
I0
I0
I255
tp4629
Rp4630
aV1
p4631
ag7
(I0
I0
I0
I255
tp4632
Rp4633
aV32
p4634
aasI10
(lp4635
I8
a(lp4636
I2
ag7
(I20
I0
I0
I255
tp4637
Rp4638
aV1
p4639
ag7
(I0
I0
I0
I255
tp4640
Rp4641
aV32
p4642
aasI11
(lp4643
I8
a(lp4644
I2
ag7
(I20
I0
I0
I255
tp4645
Rp4646
aV1
p4647
ag7
(I0
I0
I0
I255
tp4648
Rp4649
aV32
p4650
aassg174
V00:28 000ms
p4651
sba(ieffectgroup
EffectGroup
p4652
(dp4653
g3
(dp4654
I0
(lp4655
I8
a(lp4656
I2
ag7
(I255
I0
I0
I255
tp4657
Rp4658
aV1
p4659
ag7
(I0
I0
I0
I255
tp4660
Rp4661
aV32
p4662
aasI1
(lp4663
I8
a(lp4664
I2
ag7
(I255
I0
I0
I255
tp4665
Rp4666
aV1
p4667
ag7
(I0
I0
I0
I255
tp4668
Rp4669
aV32
p4670
aasI2
(lp4671
I8
a(lp4672
I2
ag7
(I255
I0
I0
I255
tp4673
Rp4674
aV1
p4675
ag7
(I0
I0
I0
I255
tp4676
Rp4677
aV32
p4678
aasI3
(lp4679
I8
a(lp4680
I2
ag7
(I255
I0
I0
I255
tp4681
Rp4682
aV1
p4683
ag7
(I10
I0
I10
I255
tp4684
Rp4685
aV16
p4686
aasI4
(lp4687
I-1
aNasI5
(lp4688
I9
a(lp4689
I3
ag7
(I125
I0
I250
I255
tp4690
Rp4691
aV16
p4692
ag7
(I125
I0
I0
I255
tp4693
Rp4694
aV16
p4695
ag7
(I0
I0
I0
I255
tp4696
Rp4697
aV32
p4698
aasI6
(lp4699
I9
a(lp4700
I3
ag7
(I125
I0
I250
I255
tp4701
Rp4702
aV16
p4703
ag7
(I125
I0
I0
I255
tp4704
Rp4705
aV16
p4706
ag7
(I0
I0
I0
I255
tp4707
Rp4708
aV32
p4709
aasI7
(lp4710
I-1
aNasI8
(lp4711
I8
a(lp4712
I2
ag7
(I255
I0
I0
I255
tp4713
Rp4714
aV1
p4715
ag7
(I10
I0
I10
I255
tp4716
Rp4717
aV16
p4718
aasI9
(lp4719
I8
a(lp4720
I2
ag7
(I255
I0
I0
I255
tp4721
Rp4722
aV1
p4723
ag7
(I0
I0
I0
I255
tp4724
Rp4725
aV32
p4726
aasI10
(lp4727
I8
a(lp4728
I2
ag7
(I255
I0
I0
I255
tp4729
Rp4730
aV1
p4731
ag7
(I0
I0
I0
I255
tp4732
Rp4733
aV32
p4734
aasI11
(lp4735
I8
a(lp4736
I2
ag7
(I255
I0
I0
I255
tp4737
Rp4738
aV1
p4739
ag7
(I0
I0
I0
I255
tp4740
Rp4741
aV32
p4742
aassg174
V00:29 000ms
p4743
sba(ieffectgroup
EffectGroup
p4744
(dp4745
g3
(dp4746
I0
(lp4747
I8
a(lp4748
I2
ag7
(I40
I0
I0
I255
tp4749
Rp4750
aV1
p4751
ag7
(I0
I0
I0
I255
tp4752
Rp4753
aV16
p4754
aasI1
(lp4755
I8
a(lp4756
I2
ag7
(I40
I0
I0
I255
tp4757
Rp4758
aV1
p4759
ag7
(I0
I0
I0
I255
tp4760
Rp4761
aV16
p4762
aasI2
(lp4763
I8
a(lp4764
I2
ag7
(I40
I0
I0
I255
tp4765
Rp4766
aV1
p4767
ag7
(I0
I0
I0
I255
tp4768
Rp4769
aV16
p4770
aasI3
(lp4771
I8
a(lp4772
I2
ag7
(I40
I0
I0
I255
tp4773
Rp4774
aV1
p4775
ag7
(I0
I0
I0
I255
tp4776
Rp4777
aV16
p4778
aasI4
(lp4779
I-1
aNasI5
(lp4780
I9
a(lp4781
I3
ag7
(I125
I0
I0
I255
tp4782
Rp4783
aV16
p4784
ag7
(I125
I125
I0
I255
tp4785
Rp4786
aV16
p4787
ag7
(I0
I0
I0
I255
tp4788
Rp4789
aV32
p4790
aasI6
(lp4791
I9
a(lp4792
I3
ag7
(I125
I0
I0
I255
tp4793
Rp4794
aV16
p4795
ag7
(I125
I125
I0
I255
tp4796
Rp4797
aV16
p4798
ag7
(I0
I0
I0
I255
tp4799
Rp4800
aV32
p4801
aasI7
(lp4802
I-1
aNasI8
(lp4803
I8
a(lp4804
I2
ag7
(I40
I0
I0
I255
tp4805
Rp4806
aV1
p4807
ag7
(I0
I0
I0
I255
tp4808
Rp4809
aV16
p4810
aasI9
(lp4811
I8
a(lp4812
I2
ag7
(I40
I0
I0
I255
tp4813
Rp4814
aV1
p4815
ag7
(I0
I0
I0
I255
tp4816
Rp4817
aV16
p4818
aasI10
(lp4819
I8
a(lp4820
I2
ag7
(I40
I0
I0
I255
tp4821
Rp4822
aV1
p4823
ag7
(I0
I0
I0
I255
tp4824
Rp4825
aV16
p4826
aasI11
(lp4827
I8
a(lp4828
I2
ag7
(I40
I0
I0
I255
tp4829
Rp4830
aV1
p4831
ag7
(I0
I0
I0
I255
tp4832
Rp4833
aV16
p4834
aassg174
V00:30 000ms
p4835
sba(ieffectgroup
EffectGroup
p4836
(dp4837
g3
(dp4838
I0
(lp4839
I10
a(lp4840
I4
ag7
(I40
I0
I0
I255
tp4841
Rp4842
aV1
p4843
ag7
(I0
I0
I0
I255
tp4844
Rp4845
aV16
p4846
ag7
(I255
I128
I64
I255
tp4847
Rp4848
aV1
p4849
ag7
(I0
I0
I0
I255
tp4850
Rp4851
aV16
p4852
aasI1
(lp4853
I8
a(lp4854
I2
ag7
(I0
I0
I0
I255
tp4855
Rp4856
aV1
p4857
ag7
(I0
I0
I0
I255
tp4858
Rp4859
aV16
p4860
aasI2
(lp4861
I8
a(lp4862
I2
ag7
(I0
I0
I0
I255
tp4863
Rp4864
aV1
p4865
ag7
(I0
I0
I0
I255
tp4866
Rp4867
aV16
p4868
aasI3
(lp4869
I10
a(lp4870
I4
ag7
(I40
I0
I0
I255
tp4871
Rp4872
aV1
p4873
ag7
(I0
I0
I0
I255
tp4874
Rp4875
aV16
p4876
ag7
(I255
I128
I64
I255
tp4877
Rp4878
aV1
p4879
ag7
(I0
I0
I0
I255
tp4880
Rp4881
aV16
p4882
aasI4
(lp4883
I-1
aNasI5
(lp4884
I-1
aNasI6
(lp4885
I-1
aNasI7
(lp4886
I-1
aNasI8
(lp4887
I10
a(lp4888
I4
ag7
(I40
I0
I0
I255
tp4889
Rp4890
aV1
p4891
ag7
(I0
I0
I0
I255
tp4892
Rp4893
aV16
p4894
ag7
(I255
I128
I64
I255
tp4895
Rp4896
aV1
p4897
ag7
(I0
I0
I0
I255
tp4898
Rp4899
aV16
p4900
aasI9
(lp4901
I8
a(lp4902
I2
ag7
(I40
I0
I0
I255
tp4903
Rp4904
aV1
p4905
ag7
(I0
I0
I0
I255
tp4906
Rp4907
aV16
p4908
aasI10
(lp4909
I8
a(lp4910
I2
ag7
(I40
I0
I0
I255
tp4911
Rp4912
aV1
p4913
ag7
(I0
I0
I0
I255
tp4914
Rp4915
aV16
p4916
aasI11
(lp4917
I10
a(lp4918
I4
ag7
(I40
I0
I0
I255
tp4919
Rp4920
aV1
p4921
ag7
(I0
I0
I0
I255
tp4922
Rp4923
aV16
p4924
ag7
(I255
I128
I64
I255
tp4925
Rp4926
aV1
p4927
ag7
(I0
I0
I0
I255
tp4928
Rp4929
aV16
p4930
aassg174
V00:31 000ms
p4931
sba(ieffectgroup
EffectGroup
p4932
(dp4933
g3
(dp4934
I0
(lp4935
I-1
aNasI1
(lp4936
I-1
aNasI2
(lp4937
I-1
aNasI3
(lp4938
I-1
aNasI4
(lp4939
I-1
aNasI5
(lp4940
I1
a(lp4941
g7
(I255
I255
I255
I255
tp4942
Rp4943
aasI6
(lp4944
I-1
aNasI7
(lp4945
I-1
aNasI8
(lp4946
I-1
aNasI9
(lp4947
I-1
aNasI10
(lp4948
I-1
aNasI11
(lp4949
I-1
aNassg174
V00:32 000ms
p4950
sba(ieffectgroup
EffectGroup
p4951
(dp4952
g3
(dp4953
I0
(lp4954
I3
a(lp4955
g7
(I128
I0
I255
I255
tp4956
Rp4957
aV1
p4958
aV16
p4959
aasI1
(lp4960
I3
a(lp4961
g7
(I128
I0
I255
I255
tp4962
Rp4963
aV1
p4964
aV16
p4965
aasI2
(lp4966
I3
a(lp4967
g7
(I128
I0
I255
I255
tp4968
Rp4969
aV1
p4970
aV16
p4971
aasI3
(lp4972
I3
a(lp4973
g7
(I255
I0
I0
I255
tp4974
Rp4975
aV1
p4976
aV16
p4977
aasI4
(lp4978
I3
a(lp4979
g7
(I0
I255
I128
I255
tp4980
Rp4981
aV4
p4982
aV16
p4983
aasI5
(lp4984
I-1
a(lp4985
asI6
(lp4986
I-1
aNasI7
(lp4987
I3
a(lp4988
g7
(I0
I255
I128
I255
tp4989
Rp4990
aV4
p4991
aV16
p4992
aasI8
(lp4993
I3
a(lp4994
g7
(I255
I0
I0
I255
tp4995
Rp4996
aV1
p4997
aV16
p4998
aasI9
(lp4999
I3
a(lp5000
g7
(I128
I0
I255
I255
tp5001
Rp5002
aV1
p5003
aV16
p5004
aasI10
(lp5005
I3
a(lp5006
g7
(I128
I0
I255
I255
tp5007
Rp5008
aV1
p5009
aV16
p5010
aasI11
(lp5011
I3
a(lp5012
g7
(I128
I0
I255
I255
tp5013
Rp5014
aV1
p5015
aV16
p5016
aassg174
V00:33 000ms
p5017
sba(ieffectgroup
EffectGroup
p5018
(dp5019
g3
(dp5020
I0
(lp5021
I8
a(lp5022
I2
ag7
(I128
I0
I255
I255
tp5023
Rp5024
aV1
p5025
ag7
(I0
I0
I0
I255
tp5026
Rp5027
aV9
p5028
aasI1
(lp5029
I10
a(lp5030
I4
ag7
(I128
I0
I255
I255
tp5031
Rp5032
aV1
p5033
ag7
(I0
I0
I0
I255
tp5034
Rp5035
aV4
p5036
ag7
(I255
I0
I0
I255
tp5037
Rp5038
aV1
p5039
ag7
(I0
I0
I0
I255
tp5040
Rp5041
aV4
p5042
aasI2
(lp5043
I8
a(lp5044
I2
ag7
(I128
I0
I255
I255
tp5045
Rp5046
aV1
p5047
ag7
(I0
I0
I0
I255
tp5048
Rp5049
aV4
p5050
aasI3
(lp5051
I10
a(lp5052
I4
ag7
(I128
I0
I255
I255
tp5053
Rp5054
aV1
p5055
ag7
(I0
I0
I0
I255
tp5056
Rp5057
aV4
p5058
ag7
(I255
I0
I0
I255
tp5059
Rp5060
aV1
p5061
ag7
(I0
I0
I0
I255
tp5062
Rp5063
aV4
p5064
aasI4
(lp5065
I-1
aNasI5
(lp5066
I8
a(lp5067
I2
ag7
(I0
I255
I128
I255
tp5068
Rp5069
aV4
p5070
ag7
(I0
I0
I0
I255
tp5071
Rp5072
aV8
p5073
aasI6
(lp5074
I8
a(lp5075
I2
ag7
(I0
I255
I128
I255
tp5076
Rp5077
aV4
p5078
ag7
(I0
I0
I0
I255
tp5079
Rp5080
aV8
p5081
aasI7
(lp5082
I-1
aNasI8
(lp5083
I10
a(lp5084
I4
ag7
(I128
I0
I255
I255
tp5085
Rp5086
aV1
p5087
ag7
(I0
I0
I0
I255
tp5088
Rp5089
aV4
p5090
ag7
(I255
I0
I0
I255
tp5091
Rp5092
aV1
p5093
ag7
(I0
I0
I0
I255
tp5094
Rp5095
aV4
p5096
aasI9
(lp5097
I8
a(lp5098
I2
ag7
(I128
I0
I255
I255
tp5099
Rp5100
aV1
p5101
ag7
(I0
I0
I0
I255
tp5102
Rp5103
aV4
p5104
aasI10
(lp5105
I10
a(lp5106
I4
ag7
(I128
I0
I255
I255
tp5107
Rp5108
aV1
p5109
ag7
(I0
I0
I0
I255
tp5110
Rp5111
aV4
p5112
ag7
(I255
I0
I0
I255
tp5113
Rp5114
aV1
p5115
ag7
(I0
I0
I0
I255
tp5116
Rp5117
aV4
p5118
aasI11
(lp5119
I8
a(lp5120
I2
ag7
(I128
I0
I255
I255
tp5121
Rp5122
aV1
p5123
ag7
(I0
I0
I0
I255
tp5124
Rp5125
aV9
p5126
aassg174
V00:34 000ms
p5127
sba(ieffectgroup
EffectGroup
p5128
(dp5129
g3
(dp5130
I0
(lp5131
I12
a(lp5132
I8
ag7
(I255
I0
I0
I255
tp5133
Rp5134
aV1
p5135
ag7
(I0
I0
I0
I255
tp5136
Rp5137
aV12
p5138
ag7
(I255
I30
I0
I255
tp5139
Rp5140
aV1
p5141
ag7
(I0
I0
I0
I255
tp5142
Rp5143
aV12
p5144
ag7
(I255
I60
I0
I255
tp5145
Rp5146
aV1
p5147
ag7
(I0
I0
I0
I255
tp5148
Rp5149
aV12
p5150
ag7
(I30
I0
I255
I255
tp5151
Rp5152
aV1
p5153
ag7
(I0
I0
I0
I255
tp5154
Rp5155
aV1
p5156
aasI1
(lp5157
I12
a(lp5158
I8
ag7
(I255
I0
I0
I255
tp5159
Rp5160
aV1
p5161
ag7
(I0
I0
I0
I255
tp5162
Rp5163
aV12
p5164
ag7
(I255
I30
I0
I255
tp5165
Rp5166
aV1
p5167
ag7
(I0
I0
I0
I255
tp5168
Rp5169
aV12
p5170
ag7
(I255
I60
I0
I255
tp5171
Rp5172
aV1
p5173
ag7
(I0
I0
I0
I255
tp5174
Rp5175
aV12
p5176
ag7
(I30
I0
I255
I255
tp5177
Rp5178
aV1
p5179
ag7
(I0
I0
I0
I255
tp5180
Rp5181
aV1
p5182
aasI2
(lp5183
I12
a(lp5184
I8
ag7
(I255
I0
I0
I255
tp5185
Rp5186
aV1
p5187
ag7
(I0
I0
I0
I255
tp5188
Rp5189
aV12
p5190
ag7
(I255
I30
I0
I255
tp5191
Rp5192
aV1
p5193
ag7
(I0
I0
I0
I255
tp5194
Rp5195
aV12
p5196
ag7
(I255
I60
I0
I255
tp5197
Rp5198
aV1
p5199
ag7
(I0
I0
I0
I255
tp5200
Rp5201
aV12
p5202
ag7
(I30
I0
I255
I255
tp5203
Rp5204
aV1
p5205
ag7
(I0
I0
I0
I255
tp5206
Rp5207
aV1
p5208
aasI3
(lp5209
I12
a(lp5210
I8
ag7
(I255
I0
I0
I255
tp5211
Rp5212
aV1
p5213
ag7
(I0
I0
I0
I255
tp5214
Rp5215
aV12
p5216
ag7
(I255
I30
I0
I255
tp5217
Rp5218
aV1
p5219
ag7
(I0
I0
I0
I255
tp5220
Rp5221
aV12
p5222
ag7
(I255
I60
I0
I255
tp5223
Rp5224
aV1
p5225
ag7
(I0
I0
I0
I255
tp5226
Rp5227
aV12
p5228
ag7
(I30
I0
I255
I255
tp5229
Rp5230
aV1
p5231
ag7
(I0
I0
I0
I255
tp5232
Rp5233
aV1
p5234
aasI4
(lp5235
I3
a(lp5236
g7
(I0
I0
I60
I255
tp5237
Rp5238
aV1
p5239
aV32
p5240
aasI5
(lp5241
I10
a(lp5242
I4
ag7
(I128
I64
I0
I255
tp5243
Rp5244
aV4
p5245
ag7
(I0
I0
I0
I255
tp5246
Rp5247
aV32
p5248
ag7
(I0
I0
I255
I255
tp5249
Rp5250
aV4
p5251
ag7
(I0
I0
I0
I255
tp5252
Rp5253
aV32
p5254
aasI6
(lp5255
I10
a(lp5256
I4
ag7
(I128
I64
I0
I255
tp5257
Rp5258
aV4
p5259
ag7
(I0
I0
I0
I255
tp5260
Rp5261
aV32
p5262
ag7
(I0
I255
I0
I255
tp5263
Rp5264
aV4
p5265
ag7
(I0
I0
I0
I255
tp5266
Rp5267
aV32
p5268
aasI7
(lp5269
I3
a(lp5270
g7
(I0
I60
I0
I255
tp5271
Rp5272
aV1
p5273
aV32
p5274
aasI8
(lp5275
I12
a(lp5276
I8
ag7
(I255
I0
I0
I255
tp5277
Rp5278
aV1
p5279
ag7
(I0
I0
I0
I255
tp5280
Rp5281
aV12
p5282
ag7
(I255
I30
I0
I255
tp5283
Rp5284
aV1
p5285
ag7
(I0
I0
I0
I255
tp5286
Rp5287
aV12
p5288
ag7
(I255
I60
I0
I255
tp5289
Rp5290
aV1
p5291
ag7
(I0
I0
I0
I255
tp5292
Rp5293
aV12
p5294
ag7
(I0
I255
I0
I255
tp5295
Rp5296
aV1
p5297
ag7
(I0
I0
I0
I255
tp5298
Rp5299
aV1
p5300
aasI9
(lp5301
I12
a(lp5302
I8
ag7
(I255
I0
I0
I255
tp5303
Rp5304
aV1
p5305
ag7
(I0
I0
I0
I255
tp5306
Rp5307
aV12
p5308
ag7
(I255
I30
I0
I255
tp5309
Rp5310
aV1
p5311
ag7
(I0
I0
I0
I255
tp5312
Rp5313
aV12
p5314
ag7
(I255
I60
I0
I255
tp5315
Rp5316
aV1
p5317
ag7
(I0
I0
I0
I255
tp5318
Rp5319
aV12
p5320
ag7
(I0
I255
I0
I255
tp5321
Rp5322
aV1
p5323
ag7
(I0
I0
I0
I255
tp5324
Rp5325
aV1
p5326
aasI10
(lp5327
I12
a(lp5328
I8
ag7
(I255
I0
I0
I255
tp5329
Rp5330
aV1
p5331
ag7
(I0
I0
I0
I255
tp5332
Rp5333
aV12
p5334
ag7
(I255
I30
I0
I255
tp5335
Rp5336
aV1
p5337
ag7
(I0
I0
I0
I255
tp5338
Rp5339
aV12
p5340
ag7
(I255
I60
I0
I255
tp5341
Rp5342
aV1
p5343
ag7
(I0
I0
I0
I255
tp5344
Rp5345
aV12
p5346
ag7
(I0
I255
I0
I255
tp5347
Rp5348
aV1
p5349
ag7
(I0
I0
I0
I255
tp5350
Rp5351
aV1
p5352
aasI11
(lp5353
I12
a(lp5354
I8
ag7
(I255
I0
I0
I255
tp5355
Rp5356
aV1
p5357
ag7
(I0
I0
I0
I255
tp5358
Rp5359
aV12
p5360
ag7
(I255
I30
I0
I255
tp5361
Rp5362
aV1
p5363
ag7
(I0
I0
I0
I255
tp5364
Rp5365
aV12
p5366
ag7
(I255
I60
I0
I255
tp5367
Rp5368
aV1
p5369
ag7
(I0
I0
I0
I255
tp5370
Rp5371
aV12
p5372
ag7
(I0
I255
I0
I255
tp5373
Rp5374
aV1
p5375
ag7
(I0
I0
I0
I255
tp5376
Rp5377
aV1
p5378
aassg174
V00:34 500ms
p5379
sba(ieffectgroup
EffectGroup
p5380
(dp5381
g3
(dp5382
I0
(lp5383
I-1
aNasI1
(lp5384
I-1
aNasI2
(lp5385
I-1
aNasI3
(lp5386
I-1
aNasI4
(lp5387
I-1
aNasI5
(lp5388
I-1
aNasI6
(lp5389
I-1
aNasI7
(lp5390
I-1
aNasI8
(lp5391
I-1
aNasI9
(lp5392
I-1
aNasI10
(lp5393
I-1
aNasI11
(lp5394
I-1
aNassg174
V00:35 000ms
p5395
sba(ieffectgroup
EffectGroup
p5396
(dp5397
g3
(dp5398
I0
(lp5399
I-1
aNasI1
(lp5400
I-1
aNasI2
(lp5401
I-1
aNasI3
(lp5402
I-1
aNasI4
(lp5403
I-1
aNasI5
(lp5404
I-1
aNasI6
(lp5405
I-1
aNasI7
(lp5406
I-1
aNasI8
(lp5407
I-1
aNasI9
(lp5408
I-1
aNasI10
(lp5409
I-1
aNasI11
(lp5410
I-1
aNassg174
V00:36 000ms
p5411
sba(ieffectgroup
EffectGroup
p5412
(dp5413
g3
(dp5414
I0
(lp5415
I-1
aNasI1
(lp5416
I-1
aNasI2
(lp5417
I-1
aNasI3
(lp5418
I-1
aNasI4
(lp5419
I-1
aNasI5
(lp5420
I-1
aNasI6
(lp5421
I-1
aNasI7
(lp5422
I-1
aNasI8
(lp5423
I-1
aNasI9
(lp5424
I-1
aNasI10
(lp5425
I-1
aNasI11
(lp5426
I-1
aNassg174
V00:37 000ms
p5427
sba(ieffectgroup
EffectGroup
p5428
(dp5429
g3
(dp5430
I0
(lp5431
I-1
aNasI1
(lp5432
I-1
aNasI2
(lp5433
I-1
aNasI3
(lp5434
I-1
aNasI4
(lp5435
I-1
aNasI5
(lp5436
I-1
aNasI6
(lp5437
I-1
aNasI7
(lp5438
I-1
aNasI8
(lp5439
I-1
aNasI9
(lp5440
I-1
aNasI10
(lp5441
I-1
aNasI11
(lp5442
I-1
aNassg174
V00:38 000ms
p5443
sba(ieffectgroup
EffectGroup
p5444
(dp5445
g3
(dp5446
I0
(lp5447
I-1
aNasI1
(lp5448
I-1
aNasI2
(lp5449
I-1
aNasI3
(lp5450
I-1
aNasI4
(lp5451
I-1
aNasI5
(lp5452
I-1
aNasI6
(lp5453
I-1
aNasI7
(lp5454
I-1
aNasI8
(lp5455
I-1
aNasI9
(lp5456
I-1
aNasI10
(lp5457
I-1
aNasI11
(lp5458
I-1
aNassg174
V00:39 000ms
p5459
sba(ieffectgroup
EffectGroup
p5460
(dp5461
g3
(dp5462
I0
(lp5463
I-1
aNasI1
(lp5464
I-1
aNasI2
(lp5465
I-1
aNasI3
(lp5466
I-1
aNasI4
(lp5467
I-1
aNasI5
(lp5468
I-1
aNasI6
(lp5469
I-1
aNasI7
(lp5470
I-1
aNasI8
(lp5471
I-1
aNasI9
(lp5472
I-1
aNasI10
(lp5473
I-1
aNasI11
(lp5474
I-1
aNassg174
V00:40 000ms
p5475
sba(ieffectgroup
EffectGroup
p5476
(dp5477
g3
(dp5478
I0
(lp5479
I-1
aNasI1
(lp5480
I-1
aNasI2
(lp5481
I-1
aNasI3
(lp5482
I-1
aNasI4
(lp5483
I-1
aNasI5
(lp5484
I-1
aNasI6
(lp5485
I-1
aNasI7
(lp5486
I-1
aNasI8
(lp5487
I-1
aNasI9
(lp5488
I-1
aNasI10
(lp5489
I-1
aNasI11
(lp5490
I-1
aNassg174
V00:41 000ms
p5491
sba(ieffectgroup
EffectGroup
p5492
(dp5493
g3
(dp5494
I0
(lp5495
I-1
aNasI1
(lp5496
I-1
aNasI2
(lp5497
I-1
aNasI3
(lp5498
I-1
aNasI4
(lp5499
I-1
aNasI5
(lp5500
I-1
aNasI6
(lp5501
I-1
aNasI7
(lp5502
I-1
aNasI8
(lp5503
I-1
aNasI9
(lp5504
I-1
aNasI10
(lp5505
I-1
aNasI11
(lp5506
I-1
aNassg174
V00:42 000ms
p5507
sba(ieffectgroup
EffectGroup
p5508
(dp5509
g3
(dp5510
I0
(lp5511
I-1
aNasI1
(lp5512
I-1
aNasI2
(lp5513
I-1
aNasI3
(lp5514
I-1
aNasI4
(lp5515
I-1
aNasI5
(lp5516
I-1
aNasI6
(lp5517
I-1
aNasI7
(lp5518
I-1
aNasI8
(lp5519
I-1
aNasI9
(lp5520
I-1
aNasI10
(lp5521
I-1
aNasI11
(lp5522
I-1
aNassg174
V00:43 000ms
p5523
sba(ieffectgroup
EffectGroup
p5524
(dp5525
g3
(dp5526
I0
(lp5527
I-1
aNasI1
(lp5528
I-1
aNasI2
(lp5529
I-1
aNasI3
(lp5530
I-1
aNasI4
(lp5531
I-1
aNasI5
(lp5532
I-1
aNasI6
(lp5533
I-1
aNasI7
(lp5534
I-1
aNasI8
(lp5535
I-1
aNasI9
(lp5536
I-1
aNasI10
(lp5537
I-1
aNasI11
(lp5538
I-1
aNassg174
V00:44 000ms
p5539
sba(ieffectgroup
EffectGroup
p5540
(dp5541
g3
(dp5542
I0
(lp5543
I-1
aNasI1
(lp5544
I-1
aNasI2
(lp5545
I-1
aNasI3
(lp5546
I-1
aNasI4
(lp5547
I-1
aNasI5
(lp5548
I-1
aNasI6
(lp5549
I-1
aNasI7
(lp5550
I-1
aNasI8
(lp5551
I-1
aNasI9
(lp5552
I-1
aNasI10
(lp5553
I-1
aNasI11
(lp5554
I-1
aNassg174
V00:45 000ms
p5555
sba(ieffectgroup
EffectGroup
p5556
(dp5557
g3
(dp5558
I0
(lp5559
I-1
aNasI1
(lp5560
I-1
aNasI2
(lp5561
I-1
aNasI3
(lp5562
I-1
aNasI4
(lp5563
I-1
aNasI5
(lp5564
I-1
aNasI6
(lp5565
I-1
aNasI7
(lp5566
I-1
aNasI8
(lp5567
I-1
aNasI9
(lp5568
I-1
aNasI10
(lp5569
I-1
aNasI11
(lp5570
I-1
aNassg174
V00:46 000ms
p5571
sba(ieffectgroup
EffectGroup
p5572
(dp5573
g3
(dp5574
I0
(lp5575
I-1
aNasI1
(lp5576
I-1
aNasI2
(lp5577
I-1
aNasI3
(lp5578
I-1
aNasI4
(lp5579
I-1
aNasI5
(lp5580
I-1
aNasI6
(lp5581
I-1
aNasI7
(lp5582
I-1
aNasI8
(lp5583
I-1
aNasI9
(lp5584
I-1
aNasI10
(lp5585
I-1
aNasI11
(lp5586
I-1
aNassg174
V00:47 000ms
p5587
sba(ieffectgroup
EffectGroup
p5588
(dp5589
g3
(dp5590
I0
(lp5591
I-1
aNasI1
(lp5592
I-1
aNasI2
(lp5593
I-1
aNasI3
(lp5594
I-1
aNasI4
(lp5595
I-1
aNasI5
(lp5596
I-1
aNasI6
(lp5597
I-1
aNasI7
(lp5598
I-1
aNasI8
(lp5599
I-1
aNasI9
(lp5600
I-1
aNasI10
(lp5601
I-1
aNasI11
(lp5602
I-1
aNassg174
V00:48 000ms
p5603
sba(ieffectgroup
EffectGroup
p5604
(dp5605
g3
(dp5606
I0
(lp5607
I-1
aNasI1
(lp5608
I-1
aNasI2
(lp5609
I-1
aNasI3
(lp5610
I-1
aNasI4
(lp5611
I-1
aNasI5
(lp5612
I-1
aNasI6
(lp5613
I-1
aNasI7
(lp5614
I-1
aNasI8
(lp5615
I-1
aNasI9
(lp5616
I-1
aNasI10
(lp5617
I-1
aNasI11
(lp5618
I-1
aNassg174
V00:49 000ms
p5619
sba(ieffectgroup
EffectGroup
p5620
(dp5621
g3
(dp5622
I0
(lp5623
I-1
aNasI1
(lp5624
I-1
aNasI2
(lp5625
I-1
aNasI3
(lp5626
I-1
aNasI4
(lp5627
I-1
aNasI5
(lp5628
I-1
aNasI6
(lp5629
I-1
aNasI7
(lp5630
I-1
aNasI8
(lp5631
I-1
aNasI9
(lp5632
I-1
aNasI10
(lp5633
I-1
aNasI11
(lp5634
I-1
aNassg174
V00:50 000ms
p5635
sba(ieffectgroup
EffectGroup
p5636
(dp5637
g3
(dp5638
I0
(lp5639
I10
a(lp5640
I4
ag7
(I128
I0
I255
I255
tp5641
Rp5642
aV1
p5643
ag7
(I0
I0
I0
I255
tp5644
Rp5645
aV4
p5646
ag7
(I255
I0
I0
I255
tp5647
Rp5648
aV1
p5649
ag7
(I0
I0
I0
I255
tp5650
Rp5651
aV4
p5652
aasI1
(lp5653
I8
a(lp5654
I2
ag7
(I128
I0
I255
I255
tp5655
Rp5656
aV1
p5657
ag7
(I0
I0
I0
I255
tp5658
Rp5659
aV4
p5660
aasI2
(lp5661
I8
a(lp5662
I2
ag7
(I128
I0
I255
I255
tp5663
Rp5664
aV1
p5665
ag7
(I0
I0
I0
I255
tp5666
Rp5667
aV4
p5668
aasI3
(lp5669
I8
a(lp5670
I2
ag7
(I128
I0
I255
I255
tp5671
Rp5672
aV1
p5673
ag7
(I0
I0
I0
I255
tp5674
Rp5675
aV4
p5676
aasI4
(lp5677
I-1
aNasI5
(lp5678
I9
a(lp5679
I3
ag7
(I255
I0
I0
I255
tp5680
Rp5681
aV8
p5682
ag7
(I128
I0
I255
I255
tp5683
Rp5684
aV8
p5685
ag7
(I0
I0
I0
I255
tp5686
Rp5687
aV32
p5688
aasI6
(lp5689
I9
a(lp5690
I3
ag7
(I255
I0
I0
I255
tp5691
Rp5692
aV8
p5693
ag7
(I128
I0
I255
I255
tp5694
Rp5695
aV8
p5696
ag7
(I0
I0
I0
I255
tp5697
Rp5698
aV32
p5699
aasI7
(lp5700
I-1
aNasI8
(lp5701
I8
a(lp5702
I2
ag7
(I128
I0
I255
I255
tp5703
Rp5704
aV1
p5705
ag7
(I0
I0
I0
I255
tp5706
Rp5707
aV4
p5708
aasI9
(lp5709
I8
a(lp5710
I2
ag7
(I128
I0
I255
I255
tp5711
Rp5712
aV1
p5713
ag7
(I0
I0
I0
I255
tp5714
Rp5715
aV4
p5716
aasI10
(lp5717
I8
a(lp5718
I2
ag7
(I128
I0
I255
I255
tp5719
Rp5720
aV1
p5721
ag7
(I0
I0
I0
I255
tp5722
Rp5723
aV4
p5724
aasI11
(lp5725
I10
a(lp5726
I4
ag7
(I128
I0
I255
I255
tp5727
Rp5728
aV1
p5729
ag7
(I0
I0
I0
I255
tp5730
Rp5731
aV4
p5732
ag7
(I255
I0
I0
I255
tp5733
Rp5734
aV1
p5735
ag7
(I0
I0
I0
I255
tp5736
Rp5737
aV4
p5738
aassg174
V00:50 110ms
p5739
sba.