(lp0
(ieffectgroup
EffectGroup
p1
(dp2
S'm_effects'
p3
(dp4
I0
(lp5
I6
a(lp6
cwx._gdi
Colour
p7
(I0
I0
I0
I255
tp8
Rp9
ag7
(I255
I0
I147
I255
tp10
Rp11
aV1500
p12
aV1
p13
aV3500
p14
aasI1
(lp15
I4
a(lp16
g7
(I0
I0
I0
I255
tp17
Rp18
ag7
(I255
I255
I0
I255
tp19
Rp20
aV1500
p21
aasI2
(lp22
I6
a(lp23
g7
(I0
I0
I0
I255
tp24
Rp25
ag7
(I255
I0
I147
I255
tp26
Rp27
aV150
p28
aV1
p29
aV150
p30
aasI3
(lp31
I4
a(lp32
g7
(I0
I0
I0
I255
tp33
Rp34
ag7
(I251
I255
I0
I255
tp35
Rp36
aV1500
p37
aasI4
(lp38
I6
a(lp39
g7
(I0
I0
I0
I255
tp40
Rp41
ag7
(I255
I0
I147
I255
tp42
Rp43
aV150
p44
aV1
p45
aV150
p46
aasI5
(lp47
I4
a(lp48
g7
(I0
I0
I0
I255
tp49
Rp50
ag7
(I255
I254
I0
I255
tp51
Rp52
aV1500
p53
aasI6
(lp54
I6
a(lp55
g7
(I0
I0
I0
I255
tp56
Rp57
ag7
(I255
I0
I147
I255
tp58
Rp59
aV150
p60
aV1
p61
aV150
p62
aasI7
(lp63
I4
a(lp64
g7
(I0
I0
I0
I255
tp65
Rp66
ag7
(I255
I255
I0
I255
tp67
Rp68
aV1500
p69
aasI8
(lp70
I6
a(lp71
g7
(I0
I0
I0
I255
tp72
Rp73
ag7
(I255
I0
I147
I255
tp74
Rp75
aV150
p76
aV1
p77
aV150
p78
aasI9
(lp79
I4
a(lp80
g7
(I0
I0
I0
I255
tp81
Rp82
ag7
(I255
I255
I0
I255
tp83
Rp84
aV1500
p85
aassS'm_time'
p86
V00:00 000ms
p87
sba(ieffectgroup
EffectGroup
p88
(dp89
S'm_effects'
p90
(dp91
I0
(lp92
I3
a(lp93
g7
(I0
I17
I255
I255
tp94
Rp95
aV355
p96
aV355
p97
aasI1
(lp98
I1
a(lp99
g7
(I0
I0
I0
I255
tp100
Rp101
aasI2
(lp102
I3
a(lp103
g7
(I0
I10
I255
I255
tp104
Rp105
aV355
p106
aV355
p107
aasI3
(lp108
I1
a(lp109
g7
(I0
I0
I0
I255
tp110
Rp111
aasI4
(lp112
I3
a(lp113
g7
(I0
I9
I255
I255
tp114
Rp115
aV355
p116
aV355
p117
aasI5
(lp118
I1
a(lp119
g7
(I0
I0
I0
I255
tp120
Rp121
aasI6
(lp122
I3
a(lp123
g7
(I15
I0
I255
I255
tp124
Rp125
aV355
p126
aV355
p127
aasI7
(lp128
I1
a(lp129
g7
(I0
I0
I0
I255
tp130
Rp131
aasI8
(lp132
I3
a(lp133
g7
(I6
I0
I255
I255
tp134
Rp135
aV355
p136
aV355
p137
aasI9
(lp138
I1
a(lp139
g7
(I0
I0
I0
I255
tp140
Rp141
aassS'm_time'
p142
V00:15 000ms
p143
sba(ieffectgroup
EffectGroup
p144
(dp145
g90
(dp146
I0
(lp147
I-1
a(lp148
asI1
(lp149
I3
a(lp150
g7
(I9
I255
I0
I255
tp151
Rp152
aV355
p153
aV355
p154
aasI2
(lp155
I-1
a(lp156
asI3
(lp157
I3
a(lp158
g7
(I0
I255
I40
I255
tp159
Rp160
aV355
p161
aV355
p162
aasI4
(lp163
I-1
a(lp164
asI5
(lp165
I3
a(lp166
g7
(I0
I255
I6
I255
tp167
Rp168
aV355
p169
aV355
p170
aasI6
(lp171
I-1
a(lp172
asI7
(lp173
I3
a(lp174
g7
(I0
I255
I8
I255
tp175
Rp176
aV355
p177
aV355
p178
aasI8
(lp179
I-1
a(lp180
asI9
(lp181
I3
a(lp182
g7
(I0
I255
I21
I255
tp183
Rp184
aV355
p185
aV355
p186
aassg142
V00:15 900ms
p187
sba(ieffectgroup
EffectGroup
p188
(dp189
S'm_effects'
p190
(dp191
I0
(lp192
I1
a(lp193
g7
(I0
I0
I0
I255
tp194
Rp195
aasI1
(lp196
I2
a(lp197
g7
(I255
I0
I0
I255
tp198
Rp199
aasI2
(lp200
I1
a(lp201
g7
(I0
I0
I0
I255
tp202
Rp203
aasI3
(lp204
I1
a(lp205
g7
(I0
I0
I0
I255
tp206
Rp207
aasI4
(lp208
I1
a(lp209
g7
(I0
I0
I0
I255
tp210
Rp211
aasI5
(lp212
I1
a(lp213
g7
(I0
I0
I0
I255
tp214
Rp215
aasI6
(lp216
I1
a(lp217
g7
(I0
I0
I0
I255
tp218
Rp219
aasI7
(lp220
I1
a(lp221
g7
(I0
I0
I0
I255
tp222
Rp223
aasI8
(lp224
I1
a(lp225
g7
(I0
I0
I0
I255
tp226
Rp227
aasI9
(lp228
I1
a(lp229
g7
(I0
I0
I0
I255
tp230
Rp231
aassS'm_time'
p232
V00:37 000ms
p233
sba(ieffectgroup
EffectGroup
p234
(dp235
g190
(dp236
I0
(lp237
I-1
a(lp238
asI1
(lp239
I-1
a(lp240
asI2
(lp241
I-1
a(lp242
asI3
(lp243
I2
a(lp244
g7
(I255
I0
I0
I255
tp245
Rp246
aasI4
(lp247
I-1
aNasI5
(lp248
I-1
aNasI6
(lp249
I-1
aNasI7
(lp250
I-1
aNasI8
(lp251
I-1
aNasI9
(lp252
I-1
aNassg232
V00:37 300ms
p253
sba(ieffectgroup
EffectGroup
p254
(dp255
g190
(dp256
I0
(lp257
I-1
aNasI1
(lp258
I-1
aNasI2
(lp259
I2
a(lp260
g7
(I255
I0
I0
I255
tp261
Rp262
aasI3
(lp263
I-1
aNasI4
(lp264
I-1
aNasI5
(lp265
I-1
aNasI6
(lp266
I-1
aNasI7
(lp267
I-1
aNasI8
(lp268
I-1
aNasI9
(lp269
I-1
aNassg232
V00:37 700ms
p270
sba(ieffectgroup
EffectGroup
p271
(dp272
g190
(dp273
I0
(lp274
I-1
aNasI1
(lp275
I-1
aNasI2
(lp276
I-1
aNasI3
(lp277
I-1
aNasI4
(lp278
I2
a(lp279
g7
(I255
I0
I0
I255
tp280
Rp281
aasI5
(lp282
I-1
aNasI6
(lp283
I-1
aNasI7
(lp284
I-1
aNasI8
(lp285
I-1
aNasI9
(lp286
I-1
aNassg232
V00:38 300ms
p287
sba(ieffectgroup
EffectGroup
p288
(dp289
g190
(dp290
I0
(lp291
I-1
aNasI1
(lp292
I-1
a(lp293
asI2
(lp294
I-1
a(lp295
asI3
(lp296
I2
a(lp297
g7
(I255
I0
I0
I255
tp298
Rp299
aasI4
(lp300
I-1
a(lp301
asI5
(lp302
I-1
a(lp303
asI6
(lp304
I-1
aNasI7
(lp305
I-1
aNasI8
(lp306
I-1
aNasI9
(lp307
I-1
aNassg232
V00:39 000ms
p308
sba(ieffectgroup
EffectGroup
p309
(dp310
S'm_effects'
p311
(dp312
I0
(lp313
I-1
aNasI1
(lp314
I-1
aNasI2
(lp315
I2
a(lp316
g7
(I255
I0
I0
I255
tp317
Rp318
aasI3
(lp319
I-1
aNasI4
(lp320
I-1
aNasI5
(lp321
I-1
aNasI6
(lp322
I-1
aNasI7
(lp323
I-1
aNasI8
(lp324
I-1
aNasI9
(lp325
I-1
aNassS'm_time'
p326
V00:39 890ms
p327
sba(ieffectgroup
EffectGroup
p328
(dp329
g311
(dp330
I0
(lp331
I-1
aNasI1
(lp332
I-1
a(lp333
asI2
(lp334
I-1
aNasI3
(lp335
I-1
aNasI4
(lp336
I-1
aNasI5
(lp337
I-1
aNasI6
(lp338
I-1
aNasI7
(lp339
I-1
aNasI8
(lp340
I-1
aNasI9
(lp341
I-1
aNassg326
V00:40 190ms
p342
sba.