(lp0
(ieffectgroup
EffectGroup
p1
(dp2
S'm_effects'
p3
(dp4
I0
(lp5
I3
a(lp6
cwx._gdi
Colour
p7
(I3
I0
I255
I255
tp8
Rp9
aV200
p10
aV200
p11
aasI1
(lp12
I-1
aNasI2
(lp13
I-1
aNasI3
(lp14
I-1
aNasI4
(lp15
I-1
aNasI5
(lp16
I-1
aNasI6
(lp17
I-1
aNasI7
(lp18
I-1
aNasI8
(lp19
I-1
aNasI9
(lp20
I-1
aNassS'm_time'
p21
V00:00 000ms
p22
sba(ieffectgroup
EffectGroup
p23
(dp24
g3
(dp25
I0
(lp26
I1
a(lp27
g7
(I255
I0
I0
I255
tp28
Rp29
aasI1
(lp30
I1
a(lp31
g7
(I255
I0
I0
I255
tp32
Rp33
aasI2
(lp34
I1
a(lp35
g7
(I255
I0
I0
I255
tp36
Rp37
aasI3
(lp38
I1
a(lp39
g7
(I255
I0
I0
I255
tp40
Rp41
aasI4
(lp42
I1
a(lp43
g7
(I255
I0
I0
I255
tp44
Rp45
aasI5
(lp46
I1
a(lp47
g7
(I17
I255
I0
I255
tp48
Rp49
aasI6
(lp50
I1
a(lp51
g7
(I14
I255
I0
I255
tp52
Rp53
aasI7
(lp54
I1
a(lp55
g7
(I0
I255
I11
I255
tp56
Rp57
aasI8
(lp58
I1
a(lp59
g7
(I0
I255
I5
I255
tp60
Rp61
aasI9
(lp62
I1
a(lp63
g7
(I20
I255
I0
I255
tp64
Rp65
aassg21
V00:02 000ms
p66
sba.