(lp0
(ieffectgroup
EffectGroup
p1
(dp2
S'm_effects'
p3
(dp4
I0
(lp5
I1
a(lp6
cwx._gdi
Colour
p7
(I0
I0
I0
I255
tp8
Rp9
aasI1
(lp10
I-1
a(lp11
asI2
(lp12
I-1
a(lp13
asI3
(lp14
I-1
aNasI4
(lp15
I-1
aNasI5
(lp16
I-1
aNasI6
(lp17
I-1
aNasI7
(lp18
I-1
aNasI8
(lp19
I-1
aNasI9
(lp20
I-1
aNassS'm_time'
p21
V00:01 000ms
p22
sba(ieffectgroup
EffectGroup
p23
(dp24
g3
(dp25
I0
(lp26
I-1
a(lp27
asI1
(lp28
I-1
a(lp29
asI2
(lp30
I-1
a(lp31
asI3
(lp32
I-1
a(lp33
asI4
(lp34
I-1
a(lp35
asI5
(lp36
I1
a(lp37
g7
(I0
I5
I0
I255
tp38
Rp39
aasI6
(lp40
I-1
a(lp41
asI7
(lp42
I-1
a(lp43
asI8
(lp44
I-1
a(lp45
asI9
(lp46
I-1
a(lp47
assg21
V00:02 000ms
p48
sba(ieffectgroup
EffectGroup
p49
(dp50
g3
(dp51
I0
(lp52
I-1
aNasI1
(lp53
I-1
aNasI2
(lp54
I-1
aNasI3
(lp55
I-1
aNasI4
(lp56
I-1
aNasI5
(lp57
I8
a(lp58
I2
ag7
(I0
I30
I30
I255
tp59
Rp60
aV3
p61
ag7
(I0
I1
I0
I255
tp62
Rp63
aV12
p64
aasI6
(lp65
I-1
aNasI7
(lp66
I-1
aNasI8
(lp67
I-1
aNasI9
(lp68
I-1
aNassg21
V00:03 000ms
p69
sba(ieffectgroup
EffectGroup
p70
(dp71
g3
(dp72
I0
(lp73
I-1
aNasI1
(lp74
I-1
aNasI2
(lp75
I-1
aNasI3
(lp76
I-1
a(lp77
asI4
(lp78
I3
a(lp79
g7
(I1
I1
I0
I255
tp80
Rp81
aV1
p82
aV8
p83
aasI5
(lp84
I8
a(lp85
I2
ag7
(I0
I30
I30
I255
tp86
Rp87
aV3
p88
ag7
(I0
I1
I0
I255
tp89
Rp90
aV12
p91
aasI6
(lp92
I-1
aNasI7
(lp93
I-1
aNasI8
(lp94
I-1
aNasI9
(lp95
I-1
aNassg21
V00:04 000ms
p96
sba(ieffectgroup
EffectGroup
p97
(dp98
g3
(dp99
I0
(lp100
I-1
aNasI1
(lp101
I-1
aNasI2
(lp102
I-1
aNasI3
(lp103
I-1
aNasI4
(lp104
I3
a(lp105
g7
(I15
I15
I0
I255
tp106
Rp107
aV1
p108
aV8
p109
aasI5
(lp110
I8
a(lp111
I2
ag7
(I0
I30
I30
I255
tp112
Rp113
aV3
p114
ag7
(I0
I1
I0
I255
tp115
Rp116
aV12
p117
aasI6
(lp118
I-1
a(lp119
asI7
(lp120
I-1
aNasI8
(lp121
I-1
aNasI9
(lp122
I-1
aNassg21
V00:05 000ms
p123
sba(ieffectgroup
EffectGroup
p124
(dp125
g3
(dp126
I0
(lp127
I-1
aNasI1
(lp128
I-1
aNasI2
(lp129
I-1
aNasI3
(lp130
I-1
aNasI4
(lp131
I3
a(lp132
g7
(I30
I30
I0
I255
tp133
Rp134
aV1
p135
aV8
p136
aasI5
(lp137
I8
a(lp138
I2
ag7
(I0
I30
I30
I255
tp139
Rp140
aV3
p141
ag7
(I0
I1
I0
I255
tp142
Rp143
aV12
p144
aasI6
(lp145
I-1
aNasI7
(lp146
I-1
aNasI8
(lp147
I-1
aNasI9
(lp148
I-1
aNassg21
V00:06 000ms
p149
sba(ieffectgroup
EffectGroup
p150
(dp151
g3
(dp152
I0
(lp153
I-1
aNasI1
(lp154
I-1
aNasI2
(lp155
I-1
aNasI3
(lp156
I-1
aNasI4
(lp157
I3
a(lp158
g7
(I60
I60
I0
I255
tp159
Rp160
aV1
p161
aV8
p162
aasI5
(lp163
I8
a(lp164
I2
ag7
(I0
I30
I30
I255
tp165
Rp166
aV3
p167
ag7
(I0
I1
I0
I255
tp168
Rp169
aV12
p170
aasI6
(lp171
I-1
aNasI7
(lp172
I-1
aNasI8
(lp173
I-1
aNasI9
(lp174
I-1
aNassg21
V00:07 000ms
p175
sba(ieffectgroup
EffectGroup
p176
(dp177
g3
(dp178
I0
(lp179
I-1
aNasI1
(lp180
I-1
aNasI2
(lp181
I-1
aNasI3
(lp182
I-1
aNasI4
(lp183
I5
a(lp184
g7
(I60
I60
I0
I255
tp185
Rp186
ag7
(I255
I255
I255
I255
tp187
Rp188
aV100
p189
aV1
p190
aV8
p191
aasI5
(lp192
I8
a(lp193
I2
ag7
(I0
I30
I30
I255
tp194
Rp195
aV3
p196
ag7
(I0
I1
I0
I255
tp197
Rp198
aV12
p199
aasI6
(lp200
I-1
aNasI7
(lp201
I-1
aNasI8
(lp202
I-1
aNasI9
(lp203
I-1
aNassg21
V00:08 000ms
p204
sba(ieffectgroup
EffectGroup
p205
(dp206
g3
(dp207
I0
(lp208
I3
a(lp209
g7
(I0
I0
I1
I255
tp210
Rp211
aV1
p212
aV32
p213
aasI1
(lp214
I3
a(lp215
g7
(I0
I0
I1
I255
tp216
Rp217
aV1
p218
aV32
p219
aasI2
(lp220
I3
a(lp221
g7
(I0
I0
I1
I255
tp222
Rp223
aV1
p224
aV32
p225
aasI3
(lp226
I3
a(lp227
g7
(I0
I0
I1
I255
tp228
Rp229
aV1
p230
aV32
p231
aasI4
(lp232
I-1
aNasI5
(lp233
I-1
aNasI6
(lp234
I3
a(lp235
g7
(I0
I0
I1
I255
tp236
Rp237
aV1
p238
aV32
p239
aasI7
(lp240
I3
a(lp241
g7
(I0
I0
I1
I255
tp242
Rp243
aV1
p244
aV32
p245
aasI8
(lp246
I3
a(lp247
g7
(I0
I0
I1
I255
tp248
Rp249
aV1
p250
aV32
p251
aasI9
(lp252
I3
a(lp253
g7
(I0
I0
I1
I255
tp254
Rp255
aV1
p256
aV32
p257
aassg21
V00:10 000ms
p258
sba(ieffectgroup
EffectGroup
p259
(dp260
g3
(dp261
I0
(lp262
I3
a(lp263
g7
(I0
I0
I1
I255
tp264
Rp265
aV1
p266
aV32
p267
aasI1
(lp268
I3
a(lp269
g7
(I0
I0
I1
I255
tp270
Rp271
aV1
p272
aV32
p273
aasI2
(lp274
I3
a(lp275
g7
(I0
I0
I1
I255
tp276
Rp277
aV1
p278
aV32
p279
aasI3
(lp280
I3
a(lp281
g7
(I0
I0
I1
I255
tp282
Rp283
aV1
p284
aV32
p285
aasI4
(lp286
I3
a(lp287
g7
(I0
I0
I1
I255
tp288
Rp289
aV1
p290
aV32
p291
aasI5
(lp292
I-1
a(lp293
asI6
(lp294
I-1
aNasI7
(lp295
I-1
aNasI8
(lp296
I-1
aNasI9
(lp297
I-1
aNassg21
V00:11 000ms
p298
sba(ieffectgroup
EffectGroup
p299
(dp300
g3
(dp301
I0
(lp302
I-1
aNasI1
(lp303
I-1
aNasI2
(lp304
I-1
aNasI3
(lp305
I-1
aNasI4
(lp306
I3
a(lp307
g7
(I0
I0
I15
I255
tp308
Rp309
aV1
p310
aV32
p311
aasI5
(lp312
I1
a(lp313
g7
(I15
I0
I15
I255
tp314
Rp315
aasI6
(lp316
I-1
aNasI7
(lp317
I-1
aNasI8
(lp318
I-1
aNasI9
(lp319
I-1
aNassg21
V00:12 000ms
p320
sba(ieffectgroup
EffectGroup
p321
(dp322
g3
(dp323
I0
(lp324
I-1
aNasI1
(lp325
I-1
aNasI2
(lp326
I-1
aNasI3
(lp327
I-1
aNasI4
(lp328
I5
a(lp329
g7
(I0
I0
I15
I255
tp330
Rp331
ag7
(I0
I0
I255
I255
tp332
Rp333
aV200
p334
aV1
p335
aV32
p336
aasI5
(lp337
I1
a(lp338
g7
(I15
I0
I15
I255
tp339
Rp340
aasI6
(lp341
I-1
aNasI7
(lp342
I-1
aNasI8
(lp343
I-1
aNasI9
(lp344
I-1
aNassg21
V00:12 100ms
p345
sba(ieffectgroup
EffectGroup
p346
(dp347
g3
(dp348
I0
(lp349
I-1
aNasI1
(lp350
I-1
aNasI2
(lp351
I-1
aNasI3
(lp352
I-1
aNasI4
(lp353
I5
a(lp354
g7
(I0
I0
I255
I255
tp355
Rp356
ag7
(I100
I100
I255
I255
tp357
Rp358
aV200
p359
aV1
p360
aV32
p361
aasI5
(lp362
I1
a(lp363
g7
(I15
I0
I15
I255
tp364
Rp365
aasI6
(lp366
I-1
aNasI7
(lp367
I-1
aNasI8
(lp368
I-1
aNasI9
(lp369
I-1
aNassg21
V00:12 200ms
p370
sba(ieffectgroup
EffectGroup
p371
(dp372
g3
(dp373
I0
(lp374
I1
a(lp375
g7
(I0
I0
I0
I255
tp376
Rp377
aasI1
(lp378
I-1
aNasI2
(lp379
I-1
aNasI3
(lp380
I-1
aNasI4
(lp381
I-1
aNasI5
(lp382
I-1
aNasI6
(lp383
I-1
aNasI7
(lp384
I-1
aNasI8
(lp385
I-1
aNasI9
(lp386
I-1
aNassg21
V00:13 000ms
p387
sba(ieffectgroup
EffectGroup
p388
(dp389
g3
(dp390
I0
(lp391
I11
a(lp392
I6
ag7
(I0
I50
I50
I255
tp393
Rp394
aV1
p395
ag7
(I0
I0
I0
I255
tp396
Rp397
aV4
p398
ag7
(I0
I0
I70
I255
tp399
Rp400
aV1
p401
ag7
(I0
I0
I0
I255
tp402
Rp403
aV4
p404
ag7
(I0
I0
I70
I255
tp405
Rp406
aV1
p407
ag7
(I0
I0
I0
I255
tp408
Rp409
aV12
p410
aasI1
(lp411
I11
a(lp412
I6
ag7
(I0
I0
I70
I255
tp413
Rp414
aV1
p415
ag7
(I0
I0
I0
I255
tp416
Rp417
aV4
p418
ag7
(I0
I0
I70
I255
tp419
Rp420
aV1
p421
ag7
(I0
I0
I0
I255
tp422
Rp423
aV16
p424
ag7
(I50
I0
I50
I255
tp425
Rp426
aV1
p427
ag7
(I0
I0
I0
I255
tp428
Rp429
aV1
p430
aasI2
(lp431
I11
a(lp432
I6
ag7
(I0
I50
I50
I255
tp433
Rp434
aV1
p435
ag7
(I0
I0
I0
I255
tp436
Rp437
aV4
p438
ag7
(I0
I0
I70
I255
tp439
Rp440
aV1
p441
ag7
(I0
I0
I0
I255
tp442
Rp443
aV4
p444
ag7
(I0
I0
I70
I255
tp445
Rp446
aV1
p447
ag7
(I0
I0
I0
I255
tp448
Rp449
aV4
p450
aasI3
(lp451
I11
a(lp452
I6
ag7
(I0
I50
I50
I255
tp453
Rp454
aV1
p455
ag7
(I0
I0
I0
I255
tp456
Rp457
aV4
p458
ag7
(I0
I0
I70
I255
tp459
Rp460
aV1
p461
ag7
(I0
I0
I0
I255
tp462
Rp463
aV4
p464
ag7
(I0
I0
I70
I255
tp465
Rp466
aV1
p467
ag7
(I0
I0
I0
I255
tp468
Rp469
aV12
p470
aasI4
(lp471
I-1
a(lp472
asI5
(lp473
I-1
a(lp474
asI6
(lp475
I11
a(lp476
I6
ag7
(I0
I50
I50
I255
tp477
Rp478
aV1
p479
ag7
(I0
I0
I0
I255
tp480
Rp481
aV4
p482
ag7
(I0
I0
I70
I255
tp483
Rp484
aV1
p485
ag7
(I0
I0
I0
I255
tp486
Rp487
aV4
p488
ag7
(I0
I0
I70
I255
tp489
Rp490
aV1
p491
ag7
(I0
I0
I0
I255
tp492
Rp493
aV12
p494
aasI7
(lp495
I11
a(lp496
I6
ag7
(I0
I50
I50
I255
tp497
Rp498
aV1
p499
ag7
(I0
I0
I0
I255
tp500
Rp501
aV4
p502
ag7
(I0
I0
I70
I255
tp503
Rp504
aV1
p505
ag7
(I0
I0
I0
I255
tp506
Rp507
aV4
p508
ag7
(I0
I0
I70
I255
tp509
Rp510
aV1
p511
ag7
(I0
I0
I0
I255
tp512
Rp513
aV4
p514
aasI8
(lp515
I11
a(lp516
I6
ag7
(I0
I0
I70
I255
tp517
Rp518
aV1
p519
ag7
(I0
I0
I0
I255
tp520
Rp521
aV4
p522
ag7
(I0
I0
I70
I255
tp523
Rp524
aV1
p525
ag7
(I0
I0
I0
I255
tp526
Rp527
aV16
p528
ag7
(I50
I0
I50
I255
tp529
Rp530
aV1
p531
ag7
(I0
I0
I0
I255
tp532
Rp533
aV4
p534
aasI9
(lp535
I11
a(lp536
I6
ag7
(I0
I50
I50
I255
tp537
Rp538
aV1
p539
ag7
(I0
I0
I0
I255
tp540
Rp541
aV4
p542
ag7
(I0
I0
I70
I255
tp543
Rp544
aV1
p545
ag7
(I0
I0
I0
I255
tp546
Rp547
aV4
p548
ag7
(I0
I0
I70
I255
tp549
Rp550
aV1
p551
ag7
(I0
I0
I0
I255
tp552
Rp553
aV12
p554
aassg21
V00:14 000ms
p555
sba(ieffectgroup
EffectGroup
p556
(dp557
g3
(dp558
I0
(lp559
I-1
aNasI1
(lp560
I-1
aNasI2
(lp561
I-1
aNasI3
(lp562
I-1
aNasI4
(lp563
I5
a(lp564
g7
(I0
I0
I70
I255
tp565
Rp566
ag7
(I100
I0
I0
I255
tp567
Rp568
aV170
p569
aV1
p570
aV32
p571
aasI5
(lp572
I5
a(lp573
g7
(I0
I0
I70
I255
tp574
Rp575
ag7
(I100
I0
I0
I255
tp576
Rp577
aV170
p578
aV1
p579
aV32
p580
aasI6
(lp581
I-1
aNasI7
(lp582
I-1
aNasI8
(lp583
I-1
aNasI9
(lp584
I-1
aNassg21
V00:15 000ms
p585
sba(ieffectgroup
EffectGroup
p586
(dp587
g3
(dp588
I0
(lp589
I3
a(lp590
g7
(I0
I0
I3
I255
tp591
Rp592
aV2
p593
aV32
p594
aasI1
(lp595
I3
a(lp596
g7
(I0
I0
I3
I255
tp597
Rp598
aV2
p599
aV32
p600
aasI2
(lp601
I3
a(lp602
g7
(I0
I0
I3
I255
tp603
Rp604
aV2
p605
aV32
p606
aasI3
(lp607
I3
a(lp608
g7
(I0
I0
I3
I255
tp609
Rp610
aV2
p611
aV32
p612
aasI4
(lp613
I-1
a(lp614
asI5
(lp615
I-1
a(lp616
asI6
(lp617
I3
a(lp618
g7
(I0
I0
I3
I255
tp619
Rp620
aV2
p621
aV32
p622
aasI7
(lp623
I3
a(lp624
g7
(I0
I0
I3
I255
tp625
Rp626
aV2
p627
aV32
p628
aasI8
(lp629
I3
a(lp630
g7
(I0
I0
I3
I255
tp631
Rp632
aV2
p633
aV32
p634
aasI9
(lp635
I3
a(lp636
g7
(I0
I0
I3
I255
tp637
Rp638
aV2
p639
aV32
p640
aassg21
V00:16 000ms
p641
sba(ieffectgroup
EffectGroup
p642
(dp643
g3
(dp644
I0
(lp645
I5
a(lp646
g7
(I0
I0
I5
I255
tp647
Rp648
ag7
(I12
I10
I10
I255
tp649
Rp650
aV200
p651
aV4
p652
aV32
p653
aasI1
(lp654
I5
a(lp655
g7
(I0
I0
I5
I255
tp656
Rp657
ag7
(I25
I0
I0
I255
tp658
Rp659
aV200
p660
aV4
p661
aV32
p662
aasI2
(lp663
I5
a(lp664
g7
(I0
I0
I5
I255
tp665
Rp666
ag7
(I12
I10
I10
I255
tp667
Rp668
aV200
p669
aV4
p670
aV32
p671
aasI3
(lp672
I5
a(lp673
g7
(I0
I0
I5
I255
tp674
Rp675
ag7
(I25
I0
I0
I255
tp676
Rp677
aV200
p678
aV4
p679
aV32
p680
aasI4
(lp681
I-1
a(lp682
asI5
(lp683
I-1
a(lp684
asI6
(lp685
I5
a(lp686
g7
(I0
I0
I5
I255
tp687
Rp688
ag7
(I25
I0
I0
I255
tp689
Rp690
aV200
p691
aV4
p692
aV32
p693
aasI7
(lp694
I5
a(lp695
g7
(I0
I0
I5
I255
tp696
Rp697
ag7
(I12
I10
I10
I255
tp698
Rp699
aV200
p700
aV4
p701
aV32
p702
aasI8
(lp703
I5
a(lp704
g7
(I0
I0
I5
I255
tp705
Rp706
ag7
(I25
I0
I0
I255
tp707
Rp708
aV200
p709
aV4
p710
aV32
p711
aasI9
(lp712
I5
a(lp713
g7
(I0
I0
I5
I255
tp714
Rp715
ag7
(I12
I10
I10
I255
tp716
Rp717
aV200
p718
aV4
p719
aV32
p720
aassg21
V00:17 000ms
p721
sba(ieffectgroup
EffectGroup
p722
(dp723
g3
(dp724
I0
(lp725
I8
a(lp726
I2
ag7
(I12
I10
I10
I255
tp727
Rp728
aV2
p729
ag7
(I0
I0
I0
I255
tp730
Rp731
aV12
p732
aasI1
(lp733
I8
a(lp734
I2
ag7
(I25
I0
I0
I255
tp735
Rp736
aV2
p737
ag7
(I0
I0
I0
I255
tp738
Rp739
aV12
p740
aasI2
(lp741
I8
a(lp742
I2
ag7
(I12
I10
I10
I255
tp743
Rp744
aV2
p745
ag7
(I0
I0
I0
I255
tp746
Rp747
aV12
p748
aasI3
(lp749
I8
a(lp750
I2
ag7
(I25
I0
I0
I255
tp751
Rp752
aV2
p753
ag7
(I0
I0
I0
I255
tp754
Rp755
aV12
p756
aasI4
(lp757
I-1
a(lp758
asI5
(lp759
I-1
a(lp760
asI6
(lp761
I8
a(lp762
I2
ag7
(I25
I0
I0
I255
tp763
Rp764
aV2
p765
ag7
(I0
I0
I0
I255
tp766
Rp767
aV12
p768
aasI7
(lp769
I8
a(lp770
I2
ag7
(I12
I10
I10
I255
tp771
Rp772
aV2
p773
ag7
(I0
I0
I0
I255
tp774
Rp775
aV12
p776
aasI8
(lp777
I8
a(lp778
I2
ag7
(I25
I0
I0
I255
tp779
Rp780
aV2
p781
ag7
(I0
I0
I0
I255
tp782
Rp783
aV12
p784
aasI9
(lp785
I8
a(lp786
I2
ag7
(I12
I10
I10
I255
tp787
Rp788
aV2
p789
ag7
(I0
I0
I0
I255
tp790
Rp791
aV12
p792
aassg21
V00:18 000ms
p793
sba(ieffectgroup
EffectGroup
p794
(dp795
g3
(dp796
I0
(lp797
I-1
a(lp798
asI1
(lp799
I8
a(lp800
I2
ag7
(I25
I0
I0
I255
tp801
Rp802
aV2
p803
ag7
(I0
I0
I0
I255
tp804
Rp805
aV12
p806
aasI2
(lp807
I8
a(lp808
I2
ag7
(I12
I10
I10
I255
tp809
Rp810
aV2
p811
ag7
(I0
I0
I0
I255
tp812
Rp813
aV12
p814
aasI3
(lp815
I8
a(lp816
I2
ag7
(I25
I0
I0
I255
tp817
Rp818
aV2
p819
ag7
(I0
I0
I0
I255
tp820
Rp821
aV12
p822
aasI4
(lp823
I10
a(lp824
I4
ag7
(I0
I100
I0
I255
tp825
Rp826
aV1
p827
ag7
(I0
I0
I0
I255
tp828
Rp829
aV4
p830
ag7
(I75
I100
I0
I255
tp831
Rp832
aV1
p833
ag7
(I0
I0
I0
I255
tp834
Rp835
aV16
p836
aasI5
(lp837
I-1
a(lp838
asI6
(lp839
I8
a(lp840
I2
ag7
(I25
I0
I0
I255
tp841
Rp842
aV2
p843
ag7
(I0
I0
I0
I255
tp844
Rp845
aV12
p846
aasI7
(lp847
I8
a(lp848
I2
ag7
(I12
I10
I10
I255
tp849
Rp850
aV2
p851
ag7
(I0
I0
I0
I255
tp852
Rp853
aV12
p854
aasI8
(lp855
I8
a(lp856
I2
ag7
(I25
I0
I0
I255
tp857
Rp858
aV2
p859
ag7
(I0
I0
I0
I255
tp860
Rp861
aV12
p862
aasI9
(lp863
I8
a(lp864
I2
ag7
(I12
I10
I10
I255
tp865
Rp866
aV2
p867
ag7
(I0
I0
I0
I255
tp868
Rp869
aV12
p870
aassg21
V00:19 000ms
p871
sba(ieffectgroup
EffectGroup
p872
(dp873
g3
(dp874
I0
(lp875
I-1
aNasI1
(lp876
I8
a(lp877
I2
ag7
(I25
I0
I0
I255
tp878
Rp879
aV2
p880
ag7
(I0
I0
I0
I255
tp881
Rp882
aV12
p883
aasI2
(lp884
I8
a(lp885
I2
ag7
(I12
I10
I10
I255
tp886
Rp887
aV2
p888
ag7
(I0
I0
I0
I255
tp889
Rp890
aV12
p891
aasI3
(lp892
I8
a(lp893
I2
ag7
(I25
I0
I0
I255
tp894
Rp895
aV2
p896
ag7
(I0
I0
I0
I255
tp897
Rp898
aV12
p899
aasI4
(lp900
I10
a(lp901
I4
ag7
(I0
I100
I0
I255
tp902
Rp903
aV1
p904
ag7
(I0
I0
I0
I255
tp905
Rp906
aV4
p907
ag7
(I75
I100
I0
I255
tp908
Rp909
aV1
p910
ag7
(I0
I0
I0
I255
tp911
Rp912
aV16
p913
aasI5
(lp914
I10
a(lp915
I4
ag7
(I0
I100
I0
I255
tp916
Rp917
aV1
p918
ag7
(I0
I0
I0
I255
tp919
Rp920
aV4
p921
ag7
(I0
I100
I50
I255
tp922
Rp923
aV1
p924
ag7
(I0
I0
I0
I255
tp925
Rp926
aV16
p927
aasI6
(lp928
I8
a(lp929
I2
ag7
(I25
I0
I0
I255
tp930
Rp931
aV2
p932
ag7
(I0
I0
I0
I255
tp933
Rp934
aV2
p935
aasI7
(lp936
I8
a(lp937
I2
ag7
(I12
I10
I10
I255
tp938
Rp939
aV2
p940
ag7
(I0
I0
I0
I255
tp941
Rp942
aV12
p943
aasI8
(lp944
I8
a(lp945
I2
ag7
(I25
I0
I0
I255
tp946
Rp947
aV2
p948
ag7
(I0
I0
I0
I255
tp949
Rp950
aV12
p951
aasI9
(lp952
I-1
aNassg21
V00:20 000ms
p953
sba(ieffectgroup
EffectGroup
p954
(dp955
g3
(dp956
I0
(lp957
I-1
aNasI1
(lp958
I-1
aNasI2
(lp959
I10
a(lp960
I4
ag7
(I0
I0
I100
I255
tp961
Rp962
aV1
p963
ag7
(I0
I0
I0
I255
tp964
Rp965
aV4
p966
ag7
(I75
I0
I100
I255
tp967
Rp968
aV1
p969
ag7
(I0
I0
I0
I255
tp970
Rp971
aV4
p972
aasI3
(lp973
I8
a(lp974
I2
ag7
(I25
I0
I0
I255
tp975
Rp976
aV2
p977
ag7
(I0
I0
I0
I255
tp978
Rp979
aV12
p980
aasI4
(lp981
I10
a(lp982
I4
ag7
(I0
I100
I0
I255
tp983
Rp984
aV1
p985
ag7
(I0
I0
I0
I255
tp986
Rp987
aV4
p988
ag7
(I75
I100
I0
I255
tp989
Rp990
aV1
p991
ag7
(I0
I0
I0
I255
tp992
Rp993
aV16
p994
aasI5
(lp995
I10
a(lp996
I4
ag7
(I0
I100
I0
I255
tp997
Rp998
aV1
p999
ag7
(I0
I0
I0
I255
tp1000
Rp1001
aV4
p1002
ag7
(I0
I100
I50
I255
tp1003
Rp1004
aV1
p1005
ag7
(I0
I0
I0
I255
tp1006
Rp1007
aV16
p1008
aasI6
(lp1009
I8
a(lp1010
I2
ag7
(I25
I0
I0
I255
tp1011
Rp1012
aV2
p1013
ag7
(I0
I0
I0
I255
tp1014
Rp1015
aV12
p1016
aasI7
(lp1017
I8
a(lp1018
I2
ag7
(I12
I10
I10
I255
tp1019
Rp1020
aV2
p1021
ag7
(I0
I0
I0
I255
tp1022
Rp1023
aV12
p1024
aasI8
(lp1025
I8
a(lp1026
I2
ag7
(I25
I0
I0
I255
tp1027
Rp1028
aV2
p1029
ag7
(I0
I0
I0
I255
tp1030
Rp1031
aV12
p1032
aasI9
(lp1033
I-1
aNassg21
V00:21 000ms
p1034
sba(ieffectgroup
EffectGroup
p1035
(dp1036
g3
(dp1037
I0
(lp1038
I-1
a(lp1039
asI1
(lp1040
I-1
a(lp1041
asI2
(lp1042
I10
a(lp1043
I4
ag7
(I0
I0
I100
I255
tp1044
Rp1045
aV1
p1046
ag7
(I0
I0
I0
I255
tp1047
Rp1048
aV4
p1049
ag7
(I75
I0
I100
I255
tp1050
Rp1051
aV1
p1052
ag7
(I0
I0
I0
I255
tp1053
Rp1054
aV4
p1055
aasI3
(lp1056
I8
a(lp1057
I2
ag7
(I25
I0
I0
I255
tp1058
Rp1059
aV2
p1060
ag7
(I0
I0
I0
I255
tp1061
Rp1062
aV12
p1063
aasI4
(lp1064
I10
a(lp1065
I4
ag7
(I0
I100
I0
I255
tp1066
Rp1067
aV1
p1068
ag7
(I0
I0
I0
I255
tp1069
Rp1070
aV4
p1071
ag7
(I75
I100
I0
I255
tp1072
Rp1073
aV1
p1074
ag7
(I0
I0
I0
I255
tp1075
Rp1076
aV16
p1077
aasI5
(lp1078
I10
a(lp1079
I4
ag7
(I0
I100
I0
I255
tp1080
Rp1081
aV1
p1082
ag7
(I0
I0
I0
I255
tp1083
Rp1084
aV4
p1085
ag7
(I0
I100
I50
I255
tp1086
Rp1087
aV1
p1088
ag7
(I0
I0
I0
I255
tp1089
Rp1090
aV16
p1091
aasI6
(lp1092
I8
a(lp1093
I2
ag7
(I25
I0
I0
I255
tp1094
Rp1095
aV2
p1096
ag7
(I0
I0
I0
I255
tp1097
Rp1098
aV12
p1099
aasI7
(lp1100
I10
a(lp1101
I4
ag7
(I0
I0
I100
I255
tp1102
Rp1103
aV1
p1104
ag7
(I0
I0
I0
I255
tp1105
Rp1106
aV4
p1107
ag7
(I0
I75
I100
I255
tp1108
Rp1109
aV1
p1110
ag7
(I0
I0
I0
I255
tp1111
Rp1112
aV4
p1113
aasI8
(lp1114
I-1
a(lp1115
asI9
(lp1116
I-1
a(lp1117
assg21
V00:22 000ms
p1118
sba(ieffectgroup
EffectGroup
p1119
(dp1120
g3
(dp1121
I0
(lp1122
I-1
aNasI1
(lp1123
I-1
a(lp1124
asI2
(lp1125
I10
a(lp1126
I4
ag7
(I0
I0
I100
I255
tp1127
Rp1128
aV1
p1129
ag7
(I0
I0
I0
I255
tp1130
Rp1131
aV4
p1132
ag7
(I75
I0
I100
I255
tp1133
Rp1134
aV1
p1135
ag7
(I0
I0
I0
I255
tp1136
Rp1137
aV4
p1138
aasI3
(lp1139
I10
a(lp1140
I4
ag7
(I100
I0
I0
I255
tp1141
Rp1142
aV1
p1143
ag7
(I0
I0
I0
I255
tp1144
Rp1145
aV4
p1146
ag7
(I100
I50
I0
I255
tp1147
Rp1148
aV1
p1149
ag7
(I0
I0
I0
I255
tp1150
Rp1151
aV4
p1152
aasI4
(lp1153
I10
a(lp1154
I4
ag7
(I0
I100
I0
I255
tp1155
Rp1156
aV1
p1157
ag7
(I0
I0
I0
I255
tp1158
Rp1159
aV4
p1160
ag7
(I75
I100
I0
I255
tp1161
Rp1162
aV1
p1163
ag7
(I0
I0
I0
I255
tp1164
Rp1165
aV16
p1166
aasI5
(lp1167
I10
a(lp1168
I4
ag7
(I0
I100
I0
I255
tp1169
Rp1170
aV1
p1171
ag7
(I0
I0
I0
I255
tp1172
Rp1173
aV4
p1174
ag7
(I0
I100
I50
I255
tp1175
Rp1176
aV1
p1177
ag7
(I0
I0
I0
I255
tp1178
Rp1179
aV16
p1180
aasI6
(lp1181
I8
a(lp1182
I2
ag7
(I25
I0
I0
I255
tp1183
Rp1184
aV2
p1185
ag7
(I0
I0
I0
I255
tp1186
Rp1187
aV12
p1188
aasI7
(lp1189
I10
a(lp1190
I4
ag7
(I0
I0
I100
I255
tp1191
Rp1192
aV1
p1193
ag7
(I0
I0
I0
I255
tp1194
Rp1195
aV4
p1196
ag7
(I0
I75
I100
I255
tp1197
Rp1198
aV1
p1199
ag7
(I0
I0
I0
I255
tp1200
Rp1201
aV4
p1202
aasI8
(lp1203
I-1
aNasI9
(lp1204
I-1
aNassg21
V00:23 000ms
p1205
sba(ieffectgroup
EffectGroup
p1206
(dp1207
g3
(dp1208
I0
(lp1209
I-1
aNasI1
(lp1210
I-1
aNasI2
(lp1211
I10
a(lp1212
I4
ag7
(I0
I0
I100
I255
tp1213
Rp1214
aV1
p1215
ag7
(I0
I0
I0
I255
tp1216
Rp1217
aV4
p1218
ag7
(I75
I0
I100
I255
tp1219
Rp1220
aV1
p1221
ag7
(I0
I0
I0
I255
tp1222
Rp1223
aV4
p1224
aasI3
(lp1225
I10
a(lp1226
I4
ag7
(I100
I0
I0
I255
tp1227
Rp1228
aV1
p1229
ag7
(I0
I0
I0
I255
tp1230
Rp1231
aV4
p1232
ag7
(I100
I50
I0
I255
tp1233
Rp1234
aV1
p1235
ag7
(I0
I0
I0
I255
tp1236
Rp1237
aV4
p1238
aasI4
(lp1239
I10
a(lp1240
I4
ag7
(I0
I100
I0
I255
tp1241
Rp1242
aV1
p1243
ag7
(I0
I0
I0
I255
tp1244
Rp1245
aV4
p1246
ag7
(I75
I100
I0
I255
tp1247
Rp1248
aV1
p1249
ag7
(I0
I0
I0
I255
tp1250
Rp1251
aV16
p1252
aasI5
(lp1253
I10
a(lp1254
I4
ag7
(I0
I100
I0
I255
tp1255
Rp1256
aV1
p1257
ag7
(I0
I0
I0
I255
tp1258
Rp1259
aV4
p1260
ag7
(I0
I100
I50
I255
tp1261
Rp1262
aV1
p1263
ag7
(I0
I0
I0
I255
tp1264
Rp1265
aV16
p1266
aasI6
(lp1267
I10
a(lp1268
I4
ag7
(I100
I0
I0
I255
tp1269
Rp1270
aV1
p1271
ag7
(I0
I0
I0
I255
tp1272
Rp1273
aV4
p1274
ag7
(I100
I0
I50
I255
tp1275
Rp1276
aV1
p1277
ag7
(I0
I0
I0
I255
tp1278
Rp1279
aV4
p1280
aasI7
(lp1281
I10
a(lp1282
I4
ag7
(I0
I0
I100
I255
tp1283
Rp1284
aV1
p1285
ag7
(I0
I0
I0
I255
tp1286
Rp1287
aV4
p1288
ag7
(I0
I75
I100
I255
tp1289
Rp1290
aV1
p1291
ag7
(I0
I0
I0
I255
tp1292
Rp1293
aV4
p1294
aasI8
(lp1295
I-1
aNasI9
(lp1296
I-1
aNassg21
V00:24 000ms
p1297
sba(ieffectgroup
EffectGroup
p1298
(dp1299
g3
(dp1300
I0
(lp1301
I1
a(lp1302
g7
(I0
I0
I0
I255
tp1303
Rp1304
aasI1
(lp1305
I-1
a(lp1306
asI2
(lp1307
I-1
aNasI3
(lp1308
I-1
aNasI4
(lp1309
I-1
aNasI5
(lp1310
I-1
aNasI6
(lp1311
I-1
aNasI7
(lp1312
I-1
aNasI8
(lp1313
I-1
aNasI9
(lp1314
I-1
aNassg21
V00:25 000ms
p1315
sba(ieffectgroup
EffectGroup
p1316
(dp1317
g3
(dp1318
I0
(lp1319
I10
a(lp1320
I4
ag7
(I5
I0
I0
I255
tp1321
Rp1322
aV20
p1323
ag7
(I255
I0
I0
I255
tp1324
Rp1325
aV1
p1326
ag7
(I5
I0
I0
I255
tp1327
Rp1328
aV4
p1329
ag7
(I200
I100
I0
I255
tp1330
Rp1331
aV1
p1332
aasI1
(lp1333
I11
a(lp1334
I6
ag7
(I255
I0
I0
I255
tp1335
Rp1336
aV2
p1337
ag7
(I0
I0
I0
I255
tp1338
Rp1339
aV14
p1340
ag7
(I255
I0
I0
I255
tp1341
Rp1342
aV2
p1343
ag7
(I0
I0
I0
I255
tp1344
Rp1345
aV20
p1346
ag7
(I200
I60
I0
I255
tp1347
Rp1348
aV8
p1349
ag7
(I0
I0
I0
I255
tp1350
Rp1351
aV20
p1352
aasI2
(lp1353
I9
a(lp1354
I3
ag7
(I200
I60
I0
I255
tp1355
Rp1356
aV2
p1357
ag7
(I255
I0
I0
I255
tp1358
Rp1359
aV2
p1360
ag7
(I0
I0
I0
I255
tp1361
Rp1362
aV20
p1363
aasI3
(lp1364
I4
a(lp1365
g7
(I255
I0
I0
I255
tp1366
Rp1367
ag7
(I100
I40
I0
I255
tp1368
Rp1369
aV100
p1370
aasI4
(lp1371
I3
a(lp1372
g7
(I20
I10
I0
I255
tp1373
Rp1374
aV1
p1375
aV16
p1376
aasI5
(lp1377
I3
a(lp1378
g7
(I30
I0
I0
I255
tp1379
Rp1380
aV1
p1381
aV16
p1382
aasI6
(lp1383
I4
a(lp1384
g7
(I255
I0
I0
I255
tp1385
Rp1386
ag7
(I100
I40
I0
I255
tp1387
Rp1388
aV100
p1389
aasI7
(lp1390
I9
a(lp1391
I3
ag7
(I200
I60
I0
I255
tp1392
Rp1393
aV2
p1394
ag7
(I255
I0
I0
I255
tp1395
Rp1396
aV2
p1397
ag7
(I0
I0
I0
I255
tp1398
Rp1399
aV20
p1400
aasI8
(lp1401
I11
a(lp1402
I6
ag7
(I200
I0
I0
I255
tp1403
Rp1404
aV2
p1405
ag7
(I0
I0
I0
I255
tp1406
Rp1407
aV14
p1408
ag7
(I200
I0
I0
I255
tp1409
Rp1410
aV2
p1411
ag7
(I0
I0
I0
I255
tp1412
Rp1413
aV20
p1414
ag7
(I200
I60
I0
I255
tp1415
Rp1416
aV8
p1417
ag7
(I0
I0
I0
I255
tp1418
Rp1419
aV20
p1420
aasI9
(lp1421
I10
a(lp1422
I4
ag7
(I5
I0
I0
I255
tp1423
Rp1424
aV20
p1425
ag7
(I255
I0
I0
I255
tp1426
Rp1427
aV1
p1428
ag7
(I5
I0
I0
I255
tp1429
Rp1430
aV10
p1431
ag7
(I200
I100
I0
I255
tp1432
Rp1433
aV1
p1434
aassg21
V00:26 000ms
p1435
sba(ieffectgroup
EffectGroup
p1436
(dp1437
g3
(dp1438
I0
(lp1439
I9
a(lp1440
I3
ag7
(I200
I60
I0
I255
tp1441
Rp1442
aV1
p1443
ag7
(I255
I0
I0
I255
tp1444
Rp1445
aV1
p1446
ag7
(I0
I0
I0
I255
tp1447
Rp1448
aV16
p1449
aasI1
(lp1450
I4
a(lp1451
g7
(I255
I0
I0
I255
tp1452
Rp1453
ag7
(I100
I40
I0
I255
tp1454
Rp1455
aV150
p1456
aasI2
(lp1457
I10
a(lp1458
I4
ag7
(I0
I0
I255
I255
tp1459
Rp1460
aV2
p1461
ag7
(I0
I0
I0
I255
tp1462
Rp1463
aV14
p1464
ag7
(I100
I0
I200
I255
tp1465
Rp1466
aV2
p1467
ag7
(I0
I0
I0
I255
tp1468
Rp1469
aV28
p1470
aasI3
(lp1471
I10
a(lp1472
I4
ag7
(I0
I0
I0
I255
tp1473
Rp1474
aV20
p1475
ag7
(I255
I0
I0
I255
tp1476
Rp1477
aV1
p1478
ag7
(I0
I0
I0
I255
tp1479
Rp1480
aV4
p1481
ag7
(I200
I100
I0
I255
tp1482
Rp1483
aV1
p1484
aasI4
(lp1485
I3
a(lp1486
g7
(I15
I5
I0
I255
tp1487
Rp1488
aV1
p1489
aV16
p1490
aasI5
(lp1491
I3
a(lp1492
g7
(I20
I0
I0
I255
tp1493
Rp1494
aV1
p1495
aV16
p1496
aasI6
(lp1497
I10
a(lp1498
I4
ag7
(I0
I0
I0
I255
tp1499
Rp1500
aV20
p1501
ag7
(I255
I0
I0
I255
tp1502
Rp1503
aV1
p1504
ag7
(I0
I0
I0
I255
tp1505
Rp1506
aV4
p1507
ag7
(I200
I100
I0
I255
tp1508
Rp1509
aV1
p1510
aasI7
(lp1511
I10
a(lp1512
I4
ag7
(I0
I0
I255
I255
tp1513
Rp1514
aV2
p1515
ag7
(I0
I0
I0
I255
tp1516
Rp1517
aV14
p1518
ag7
(I100
I0
I200
I255
tp1519
Rp1520
aV2
p1521
ag7
(I0
I0
I0
I255
tp1522
Rp1523
aV28
p1524
aasI8
(lp1525
I4
a(lp1526
g7
(I255
I0
I0
I255
tp1527
Rp1528
ag7
(I100
I40
I0
I255
tp1529
Rp1530
aV150
p1531
aasI9
(lp1532
I9
a(lp1533
I3
ag7
(I200
I60
I0
I255
tp1534
Rp1535
aV1
p1536
ag7
(I255
I0
I0
I255
tp1537
Rp1538
aV1
p1539
ag7
(I0
I0
I0
I255
tp1540
Rp1541
aV16
p1542
aassg21
V00:26 100ms
p1543
sba(ieffectgroup
EffectGroup
p1544
(dp1545
g3
(dp1546
I0
(lp1547
I-1
aNasI1
(lp1548
I-1
aNasI2
(lp1549
I-1
aNasI3
(lp1550
I-1
aNasI4
(lp1551
I5
a(lp1552
g7
(I101
I0
I130
I255
tp1553
Rp1554
ag7
(I0
I0
I20
I255
tp1555
Rp1556
aV200
p1557
aV1
p1558
aV8
p1559
aasI5
(lp1560
I5
a(lp1561
g7
(I99
I0
I128
I255
tp1562
Rp1563
ag7
(I0
I0
I20
I255
tp1564
Rp1565
aV200
p1566
aV1
p1567
aV8
p1568
aasI6
(lp1569
I-1
aNasI7
(lp1570
I-1
aNasI8
(lp1571
I-1
aNasI9
(lp1572
I-1
aNassg21
V00:27 000ms
p1573
sba(ieffectgroup
EffectGroup
p1574
(dp1575
g3
(dp1576
I0
(lp1577
I3
a(lp1578
g7
(I0
I0
I1
I255
tp1579
Rp1580
aV1
p1581
aV32
p1582
aasI1
(lp1583
I3
a(lp1584
g7
(I0
I0
I1
I255
tp1585
Rp1586
aV1
p1587
aV32
p1588
aasI2
(lp1589
I3
a(lp1590
g7
(I0
I0
I1
I255
tp1591
Rp1592
aV1
p1593
aV32
p1594
aasI3
(lp1595
I3
a(lp1596
g7
(I0
I0
I1
I255
tp1597
Rp1598
aV1
p1599
aV32
p1600
aasI4
(lp1601
I-1
aNasI5
(lp1602
I-1
aNasI6
(lp1603
I3
a(lp1604
g7
(I0
I0
I1
I255
tp1605
Rp1606
aV1
p1607
aV32
p1608
aasI7
(lp1609
I3
a(lp1610
g7
(I0
I0
I1
I255
tp1611
Rp1612
aV1
p1613
aV32
p1614
aasI8
(lp1615
I3
a(lp1616
g7
(I0
I0
I1
I255
tp1617
Rp1618
aV1
p1619
aV32
p1620
aasI9
(lp1621
I3
a(lp1622
g7
(I0
I0
I1
I255
tp1623
Rp1624
aV1
p1625
aV32
p1626
aassg21
V00:28 000ms
p1627
sba(ieffectgroup
EffectGroup
p1628
(dp1629
g3
(dp1630
I0
(lp1631
I1
a(lp1632
g7
(I0
I0
I0
I255
tp1633
Rp1634
aasI1
(lp1635
I-1
aNasI2
(lp1636
I-1
aNasI3
(lp1637
I-1
aNasI4
(lp1638
I-1
aNasI5
(lp1639
I-1
aNasI6
(lp1640
I-1
aNasI7
(lp1641
I-1
aNasI8
(lp1642
I-1
aNasI9
(lp1643
I-1
aNassg21
V00:29 000ms
p1644
sba.