(lp0
(ieffectgroup
EffectGroup
p1
(dp2
S'm_effects'
p3
(dp4
I0
(lp5
I1
a(lp6
cwx._gdi
Colour
p7
(I0
I0
I0
I255
tp8
Rp9
aasI1
(lp10
I-1
a(lp11
asI2
(lp12
I-1
aNasI3
(lp13
I-1
aNasI4
(lp14
I-1
aNasI5
(lp15
I-1
aNasI6
(lp16
I-1
aNasI7
(lp17
I-1
aNasI8
(lp18
I-1
aNasI9
(lp19
I-1
aNassS'm_time'
p20
V00:01 000ms
p21
sba(ieffectgroup
EffectGroup
p22
(dp23
g3
(dp24
I0
(lp25
I-1
aNasI1
(lp26
I-1
aNasI2
(lp27
I-1
aNasI3
(lp28
I-1
aNasI4
(lp29
I-1
aNasI5
(lp30
I1
a(lp31
g7
(I0
I1
I0
I255
tp32
Rp33
aasI6
(lp34
I-1
aNasI7
(lp35
I-1
aNasI8
(lp36
I-1
aNasI9
(lp37
I-1
aNassg20
V00:02 000ms
p38
sba(ieffectgroup
EffectGroup
p39
(dp40
g3
(dp41
I0
(lp42
I-1
aNasI1
(lp43
I-1
aNasI2
(lp44
I-1
aNasI3
(lp45
I-1
aNasI4
(lp46
I-1
aNasI5
(lp47
I8
a(lp48
I2
ag7
(I0
I30
I30
I255
tp49
Rp50
aV3
p51
ag7
(I0
I1
I0
I255
tp52
Rp53
aV12
p54
aasI6
(lp55
I-1
aNasI7
(lp56
I-1
aNasI8
(lp57
I-1
aNasI9
(lp58
I-1
aNassg20
V00:03 000ms
p59
sba(ieffectgroup
EffectGroup
p60
(dp61
g3
(dp62
I0
(lp63
I-1
aNasI1
(lp64
I-1
aNasI2
(lp65
I-1
aNasI3
(lp66
I-1
a(lp67
asI4
(lp68
I3
a(lp69
g7
(I1
I1
I0
I255
tp70
Rp71
aV1
p72
aV8
p73
aasI5
(lp74
I8
a(lp75
I2
ag7
(I0
I30
I30
I255
tp76
Rp77
aV3
p78
ag7
(I0
I1
I0
I255
tp79
Rp80
aV12
p81
aasI6
(lp82
I-1
aNasI7
(lp83
I-1
aNasI8
(lp84
I-1
aNasI9
(lp85
I-1
aNassg20
V00:04 000ms
p86
sba(ieffectgroup
EffectGroup
p87
(dp88
g3
(dp89
I0
(lp90
I-1
aNasI1
(lp91
I-1
aNasI2
(lp92
I-1
aNasI3
(lp93
I-1
aNasI4
(lp94
I3
a(lp95
g7
(I15
I15
I0
I255
tp96
Rp97
aV1
p98
aV8
p99
aasI5
(lp100
I8
a(lp101
I2
ag7
(I0
I30
I30
I255
tp102
Rp103
aV3
p104
ag7
(I0
I1
I0
I255
tp105
Rp106
aV12
p107
aasI6
(lp108
I-1
a(lp109
asI7
(lp110
I-1
aNasI8
(lp111
I-1
aNasI9
(lp112
I-1
aNassg20
V00:05 000ms
p113
sba(ieffectgroup
EffectGroup
p114
(dp115
g3
(dp116
I0
(lp117
I-1
aNasI1
(lp118
I-1
aNasI2
(lp119
I-1
aNasI3
(lp120
I-1
aNasI4
(lp121
I3
a(lp122
g7
(I30
I30
I0
I255
tp123
Rp124
aV1
p125
aV8
p126
aasI5
(lp127
I8
a(lp128
I2
ag7
(I0
I30
I30
I255
tp129
Rp130
aV3
p131
ag7
(I0
I1
I0
I255
tp132
Rp133
aV12
p134
aasI6
(lp135
I-1
aNasI7
(lp136
I-1
aNasI8
(lp137
I-1
aNasI9
(lp138
I-1
aNassg20
V00:06 000ms
p139
sba(ieffectgroup
EffectGroup
p140
(dp141
g3
(dp142
I0
(lp143
I-1
aNasI1
(lp144
I-1
aNasI2
(lp145
I-1
aNasI3
(lp146
I-1
aNasI4
(lp147
I3
a(lp148
g7
(I60
I60
I0
I255
tp149
Rp150
aV1
p151
aV8
p152
aasI5
(lp153
I8
a(lp154
I2
ag7
(I0
I30
I30
I255
tp155
Rp156
aV3
p157
ag7
(I0
I1
I0
I255
tp158
Rp159
aV12
p160
aasI6
(lp161
I-1
aNasI7
(lp162
I-1
aNasI8
(lp163
I-1
aNasI9
(lp164
I-1
aNassg20
V00:07 000ms
p165
sba(ieffectgroup
EffectGroup
p166
(dp167
g3
(dp168
I0
(lp169
I-1
aNasI1
(lp170
I-1
aNasI2
(lp171
I-1
aNasI3
(lp172
I-1
aNasI4
(lp173
I5
a(lp174
g7
(I60
I60
I0
I255
tp175
Rp176
ag7
(I255
I255
I255
I255
tp177
Rp178
aV100
p179
aV1
p180
aV8
p181
aasI5
(lp182
I8
a(lp183
I2
ag7
(I0
I30
I30
I255
tp184
Rp185
aV3
p186
ag7
(I0
I1
I0
I255
tp187
Rp188
aV12
p189
aasI6
(lp190
I-1
aNasI7
(lp191
I-1
aNasI8
(lp192
I-1
aNasI9
(lp193
I-1
aNassg20
V00:08 000ms
p194
sba(ieffectgroup
EffectGroup
p195
(dp196
g3
(dp197
I0
(lp198
I3
a(lp199
g7
(I0
I0
I1
I255
tp200
Rp201
aV1
p202
aV32
p203
aasI1
(lp204
I3
a(lp205
g7
(I0
I0
I1
I255
tp206
Rp207
aV1
p208
aV32
p209
aasI2
(lp210
I3
a(lp211
g7
(I0
I0
I1
I255
tp212
Rp213
aV1
p214
aV32
p215
aasI3
(lp216
I3
a(lp217
g7
(I0
I0
I1
I255
tp218
Rp219
aV1
p220
aV32
p221
aasI4
(lp222
I-1
aNasI5
(lp223
I-1
aNasI6
(lp224
I3
a(lp225
g7
(I0
I0
I1
I255
tp226
Rp227
aV1
p228
aV32
p229
aasI7
(lp230
I3
a(lp231
g7
(I0
I0
I1
I255
tp232
Rp233
aV1
p234
aV32
p235
aasI8
(lp236
I3
a(lp237
g7
(I0
I0
I1
I255
tp238
Rp239
aV1
p240
aV32
p241
aasI9
(lp242
I3
a(lp243
g7
(I0
I0
I1
I255
tp244
Rp245
aV1
p246
aV32
p247
aassg20
V00:10 000ms
p248
sba(ieffectgroup
EffectGroup
p249
(dp250
g3
(dp251
I0
(lp252
I3
a(lp253
g7
(I0
I0
I1
I255
tp254
Rp255
aV1
p256
aV32
p257
aasI1
(lp258
I3
a(lp259
g7
(I0
I0
I1
I255
tp260
Rp261
aV1
p262
aV32
p263
aasI2
(lp264
I3
a(lp265
g7
(I0
I0
I1
I255
tp266
Rp267
aV1
p268
aV32
p269
aasI3
(lp270
I3
a(lp271
g7
(I0
I0
I1
I255
tp272
Rp273
aV1
p274
aV32
p275
aasI4
(lp276
I3
a(lp277
g7
(I0
I0
I1
I255
tp278
Rp279
aV1
p280
aV32
p281
aasI5
(lp282
I-1
a(lp283
asI6
(lp284
I-1
aNasI7
(lp285
I-1
aNasI8
(lp286
I-1
aNasI9
(lp287
I-1
aNassg20
V00:11 000ms
p288
sba(ieffectgroup
EffectGroup
p289
(dp290
g3
(dp291
I0
(lp292
I-1
aNasI1
(lp293
I-1
aNasI2
(lp294
I-1
aNasI3
(lp295
I-1
aNasI4
(lp296
I3
a(lp297
g7
(I0
I0
I15
I255
tp298
Rp299
aV1
p300
aV32
p301
aasI5
(lp302
I1
a(lp303
g7
(I15
I0
I15
I255
tp304
Rp305
aasI6
(lp306
I-1
aNasI7
(lp307
I-1
aNasI8
(lp308
I-1
aNasI9
(lp309
I-1
aNassg20
V00:12 000ms
p310
sba(ieffectgroup
EffectGroup
p311
(dp312
g3
(dp313
I0
(lp314
I1
a(lp315
g7
(I0
I0
I0
I255
tp316
Rp317
aasI1
(lp318
I-1
aNasI2
(lp319
I-1
aNasI3
(lp320
I-1
aNasI4
(lp321
I-1
aNasI5
(lp322
I-1
aNasI6
(lp323
I-1
aNasI7
(lp324
I-1
aNasI8
(lp325
I-1
aNasI9
(lp326
I-1
aNassg20
V00:13 000ms
p327
sba(ieffectgroup
EffectGroup
p328
(dp329
g3
(dp330
I0
(lp331
I11
a(lp332
I6
ag7
(I0
I50
I50
I255
tp333
Rp334
aV1
p335
ag7
(I0
I0
I0
I255
tp336
Rp337
aV4
p338
ag7
(I0
I0
I70
I255
tp339
Rp340
aV1
p341
ag7
(I0
I0
I0
I255
tp342
Rp343
aV4
p344
ag7
(I0
I0
I70
I255
tp345
Rp346
aV1
p347
ag7
(I0
I0
I0
I255
tp348
Rp349
aV4
p350
aasI1
(lp351
I11
a(lp352
I6
ag7
(I0
I0
I70
I255
tp353
Rp354
aV1
p355
ag7
(I0
I0
I0
I255
tp356
Rp357
aV4
p358
ag7
(I0
I0
I70
I255
tp359
Rp360
aV1
p361
ag7
(I0
I0
I0
I255
tp362
Rp363
aV4
p364
ag7
(I50
I0
I50
I255
tp365
Rp366
aV1
p367
ag7
(I0
I0
I0
I255
tp368
Rp369
aV1
p370
aasI2
(lp371
I11
a(lp372
I6
ag7
(I0
I50
I50
I255
tp373
Rp374
aV1
p375
ag7
(I0
I0
I0
I255
tp376
Rp377
aV4
p378
ag7
(I0
I0
I70
I255
tp379
Rp380
aV1
p381
ag7
(I0
I0
I0
I255
tp382
Rp383
aV4
p384
ag7
(I0
I0
I70
I255
tp385
Rp386
aV1
p387
ag7
(I0
I0
I0
I255
tp388
Rp389
aV4
p390
aasI3
(lp391
I11
a(lp392
I6
ag7
(I0
I50
I50
I255
tp393
Rp394
aV1
p395
ag7
(I0
I0
I0
I255
tp396
Rp397
aV4
p398
ag7
(I0
I0
I70
I255
tp399
Rp400
aV1
p401
ag7
(I0
I0
I0
I255
tp402
Rp403
aV4
p404
ag7
(I0
I0
I70
I255
tp405
Rp406
aV1
p407
ag7
(I0
I0
I0
I255
tp408
Rp409
aV4
p410
aasI4
(lp411
I-1
a(lp412
asI5
(lp413
I-1
a(lp414
asI6
(lp415
I11
a(lp416
I6
ag7
(I0
I50
I50
I255
tp417
Rp418
aV1
p419
ag7
(I0
I0
I0
I255
tp420
Rp421
aV4
p422
ag7
(I0
I0
I70
I255
tp423
Rp424
aV1
p425
ag7
(I0
I0
I0
I255
tp426
Rp427
aV4
p428
ag7
(I0
I0
I70
I255
tp429
Rp430
aV1
p431
ag7
(I0
I0
I0
I255
tp432
Rp433
aV4
p434
aasI7
(lp435
I11
a(lp436
I6
ag7
(I0
I50
I50
I255
tp437
Rp438
aV1
p439
ag7
(I0
I0
I0
I255
tp440
Rp441
aV4
p442
ag7
(I0
I0
I70
I255
tp443
Rp444
aV1
p445
ag7
(I0
I0
I0
I255
tp446
Rp447
aV4
p448
ag7
(I0
I0
I70
I255
tp449
Rp450
aV1
p451
ag7
(I0
I0
I0
I255
tp452
Rp453
aV4
p454
aasI8
(lp455
I11
a(lp456
I6
ag7
(I0
I0
I70
I255
tp457
Rp458
aV1
p459
ag7
(I0
I0
I0
I255
tp460
Rp461
aV4
p462
ag7
(I0
I0
I70
I255
tp463
Rp464
aV1
p465
ag7
(I0
I0
I0
I255
tp466
Rp467
aV4
p468
ag7
(I50
I0
I50
I255
tp469
Rp470
aV1
p471
ag7
(I0
I0
I0
I255
tp472
Rp473
aV4
p474
aasI9
(lp475
I11
a(lp476
I6
ag7
(I0
I50
I50
I255
tp477
Rp478
aV1
p479
ag7
(I0
I0
I0
I255
tp480
Rp481
aV4
p482
ag7
(I0
I0
I70
I255
tp483
Rp484
aV1
p485
ag7
(I0
I0
I0
I255
tp486
Rp487
aV4
p488
ag7
(I0
I0
I70
I255
tp489
Rp490
aV1
p491
ag7
(I0
I0
I0
I255
tp492
Rp493
aV4
p494
aassg20
V00:14 000ms
p495
sba(ieffectgroup
EffectGroup
p496
(dp497
g3
(dp498
I0
(lp499
I-1
aNasI1
(lp500
I-1
aNasI2
(lp501
I-1
aNasI3
(lp502
I-1
aNasI4
(lp503
I5
a(lp504
g7
(I0
I0
I70
I255
tp505
Rp506
ag7
(I100
I0
I0
I255
tp507
Rp508
aV170
p509
aV1
p510
aV32
p511
aasI5
(lp512
I5
a(lp513
g7
(I0
I0
I70
I255
tp514
Rp515
ag7
(I100
I0
I0
I255
tp516
Rp517
aV170
p518
aV1
p519
aV32
p520
aasI6
(lp521
I-1
aNasI7
(lp522
I-1
aNasI8
(lp523
I-1
aNasI9
(lp524
I-1
aNassg20
V00:15 000ms
p525
sba(ieffectgroup
EffectGroup
p526
(dp527
g3
(dp528
I0
(lp529
I3
a(lp530
g7
(I0
I0
I3
I255
tp531
Rp532
aV2
p533
aV32
p534
aasI1
(lp535
I3
a(lp536
g7
(I0
I0
I3
I255
tp537
Rp538
aV2
p539
aV32
p540
aasI2
(lp541
I3
a(lp542
g7
(I0
I0
I3
I255
tp543
Rp544
aV2
p545
aV32
p546
aasI3
(lp547
I3
a(lp548
g7
(I0
I0
I3
I255
tp549
Rp550
aV2
p551
aV32
p552
aasI4
(lp553
I-1
a(lp554
asI5
(lp555
I-1
a(lp556
asI6
(lp557
I3
a(lp558
g7
(I0
I0
I3
I255
tp559
Rp560
aV2
p561
aV32
p562
aasI7
(lp563
I3
a(lp564
g7
(I0
I0
I3
I255
tp565
Rp566
aV2
p567
aV32
p568
aasI8
(lp569
I3
a(lp570
g7
(I0
I0
I3
I255
tp571
Rp572
aV2
p573
aV32
p574
aasI9
(lp575
I3
a(lp576
g7
(I0
I0
I3
I255
tp577
Rp578
aV2
p579
aV32
p580
aassg20
V00:16 000ms
p581
sba(ieffectgroup
EffectGroup
p582
(dp583
g3
(dp584
I0
(lp585
I5
a(lp586
g7
(I0
I0
I5
I255
tp587
Rp588
ag7
(I12
I10
I10
I255
tp589
Rp590
aV200
p591
aV4
p592
aV32
p593
aasI1
(lp594
I5
a(lp595
g7
(I0
I0
I5
I255
tp596
Rp597
ag7
(I25
I0
I0
I255
tp598
Rp599
aV200
p600
aV4
p601
aV32
p602
aasI2
(lp603
I5
a(lp604
g7
(I0
I0
I5
I255
tp605
Rp606
ag7
(I12
I10
I10
I255
tp607
Rp608
aV200
p609
aV4
p610
aV32
p611
aasI3
(lp612
I5
a(lp613
g7
(I0
I0
I5
I255
tp614
Rp615
ag7
(I25
I0
I0
I255
tp616
Rp617
aV200
p618
aV4
p619
aV32
p620
aasI4
(lp621
I-1
a(lp622
asI5
(lp623
I-1
a(lp624
asI6
(lp625
I5
a(lp626
g7
(I0
I0
I5
I255
tp627
Rp628
ag7
(I25
I0
I0
I255
tp629
Rp630
aV200
p631
aV4
p632
aV32
p633
aasI7
(lp634
I5
a(lp635
g7
(I0
I0
I5
I255
tp636
Rp637
ag7
(I12
I10
I10
I255
tp638
Rp639
aV200
p640
aV4
p641
aV32
p642
aasI8
(lp643
I5
a(lp644
g7
(I0
I0
I5
I255
tp645
Rp646
ag7
(I25
I0
I0
I255
tp647
Rp648
aV200
p649
aV4
p650
aV32
p651
aasI9
(lp652
I5
a(lp653
g7
(I0
I0
I5
I255
tp654
Rp655
ag7
(I12
I10
I10
I255
tp656
Rp657
aV200
p658
aV4
p659
aV32
p660
aassg20
V00:17 000ms
p661
sba(ieffectgroup
EffectGroup
p662
(dp663
g3
(dp664
I0
(lp665
I8
a(lp666
I2
ag7
(I12
I10
I10
I255
tp667
Rp668
aV2
p669
ag7
(I0
I0
I0
I255
tp670
Rp671
aV12
p672
aasI1
(lp673
I8
a(lp674
I2
ag7
(I25
I0
I0
I255
tp675
Rp676
aV2
p677
ag7
(I0
I0
I0
I255
tp678
Rp679
aV12
p680
aasI2
(lp681
I8
a(lp682
I2
ag7
(I12
I10
I10
I255
tp683
Rp684
aV2
p685
ag7
(I0
I0
I0
I255
tp686
Rp687
aV12
p688
aasI3
(lp689
I8
a(lp690
I2
ag7
(I25
I0
I0
I255
tp691
Rp692
aV2
p693
ag7
(I0
I0
I0
I255
tp694
Rp695
aV12
p696
aasI4
(lp697
I-1
a(lp698
asI5
(lp699
I-1
a(lp700
asI6
(lp701
I8
a(lp702
I2
ag7
(I25
I0
I0
I255
tp703
Rp704
aV2
p705
ag7
(I0
I0
I0
I255
tp706
Rp707
aV12
p708
aasI7
(lp709
I8
a(lp710
I2
ag7
(I12
I10
I10
I255
tp711
Rp712
aV2
p713
ag7
(I0
I0
I0
I255
tp714
Rp715
aV12
p716
aasI8
(lp717
I8
a(lp718
I2
ag7
(I25
I0
I0
I255
tp719
Rp720
aV2
p721
ag7
(I0
I0
I0
I255
tp722
Rp723
aV12
p724
aasI9
(lp725
I8
a(lp726
I2
ag7
(I12
I10
I10
I255
tp727
Rp728
aV2
p729
ag7
(I0
I0
I0
I255
tp730
Rp731
aV12
p732
aassg20
V00:18 000ms
p733
sba(ieffectgroup
EffectGroup
p734
(dp735
g3
(dp736
I0
(lp737
I-1
a(lp738
asI1
(lp739
I8
a(lp740
I2
ag7
(I25
I0
I0
I255
tp741
Rp742
aV2
p743
ag7
(I0
I0
I0
I255
tp744
Rp745
aV12
p746
aasI2
(lp747
I8
a(lp748
I2
ag7
(I12
I10
I10
I255
tp749
Rp750
aV2
p751
ag7
(I0
I0
I0
I255
tp752
Rp753
aV12
p754
aasI3
(lp755
I8
a(lp756
I2
ag7
(I25
I0
I0
I255
tp757
Rp758
aV2
p759
ag7
(I0
I0
I0
I255
tp760
Rp761
aV12
p762
aasI4
(lp763
I10
a(lp764
I4
ag7
(I0
I100
I0
I255
tp765
Rp766
aV1
p767
ag7
(I0
I0
I0
I255
tp768
Rp769
aV4
p770
ag7
(I75
I100
I0
I255
tp771
Rp772
aV1
p773
ag7
(I0
I0
I0
I255
tp774
Rp775
aV4
p776
aasI5
(lp777
I-1
a(lp778
asI6
(lp779
I8
a(lp780
I2
ag7
(I25
I0
I0
I255
tp781
Rp782
aV2
p783
ag7
(I0
I0
I0
I255
tp784
Rp785
aV12
p786
aasI7
(lp787
I8
a(lp788
I2
ag7
(I12
I10
I10
I255
tp789
Rp790
aV2
p791
ag7
(I0
I0
I0
I255
tp792
Rp793
aV12
p794
aasI8
(lp795
I8
a(lp796
I2
ag7
(I25
I0
I0
I255
tp797
Rp798
aV2
p799
ag7
(I0
I0
I0
I255
tp800
Rp801
aV12
p802
aasI9
(lp803
I8
a(lp804
I2
ag7
(I12
I10
I10
I255
tp805
Rp806
aV2
p807
ag7
(I0
I0
I0
I255
tp808
Rp809
aV12
p810
aassg20
V00:19 000ms
p811
sba(ieffectgroup
EffectGroup
p812
(dp813
g3
(dp814
I0
(lp815
I-1
aNasI1
(lp816
I8
a(lp817
I2
ag7
(I25
I0
I0
I255
tp818
Rp819
aV2
p820
ag7
(I0
I0
I0
I255
tp821
Rp822
aV12
p823
aasI2
(lp824
I8
a(lp825
I2
ag7
(I12
I10
I10
I255
tp826
Rp827
aV2
p828
ag7
(I0
I0
I0
I255
tp829
Rp830
aV12
p831
aasI3
(lp832
I8
a(lp833
I2
ag7
(I25
I0
I0
I255
tp834
Rp835
aV2
p836
ag7
(I0
I0
I0
I255
tp837
Rp838
aV12
p839
aasI4
(lp840
I10
a(lp841
I4
ag7
(I0
I100
I0
I255
tp842
Rp843
aV1
p844
ag7
(I0
I0
I0
I255
tp845
Rp846
aV4
p847
ag7
(I75
I100
I0
I255
tp848
Rp849
aV1
p850
ag7
(I0
I0
I0
I255
tp851
Rp852
aV4
p853
aasI5
(lp854
I10
a(lp855
I4
ag7
(I0
I100
I0
I255
tp856
Rp857
aV1
p858
ag7
(I0
I0
I0
I255
tp859
Rp860
aV4
p861
ag7
(I0
I100
I50
I255
tp862
Rp863
aV1
p864
ag7
(I0
I0
I0
I255
tp865
Rp866
aV4
p867
aasI6
(lp868
I8
a(lp869
I2
ag7
(I25
I0
I0
I255
tp870
Rp871
aV2
p872
ag7
(I0
I0
I0
I255
tp873
Rp874
aV2
p875
aasI7
(lp876
I8
a(lp877
I2
ag7
(I12
I10
I10
I255
tp878
Rp879
aV2
p880
ag7
(I0
I0
I0
I255
tp881
Rp882
aV12
p883
aasI8
(lp884
I8
a(lp885
I2
ag7
(I25
I0
I0
I255
tp886
Rp887
aV2
p888
ag7
(I0
I0
I0
I255
tp889
Rp890
aV12
p891
aasI9
(lp892
I-1
aNassg20
V00:20 000ms
p893
sba(ieffectgroup
EffectGroup
p894
(dp895
g3
(dp896
I0
(lp897
I-1
aNasI1
(lp898
I-1
aNasI2
(lp899
I10
a(lp900
I4
ag7
(I0
I0
I100
I255
tp901
Rp902
aV1
p903
ag7
(I0
I0
I0
I255
tp904
Rp905
aV4
p906
ag7
(I75
I0
I100
I255
tp907
Rp908
aV1
p909
ag7
(I0
I0
I0
I255
tp910
Rp911
aV4
p912
aasI3
(lp913
I8
a(lp914
I2
ag7
(I25
I0
I0
I255
tp915
Rp916
aV2
p917
ag7
(I0
I0
I0
I255
tp918
Rp919
aV12
p920
aasI4
(lp921
I10
a(lp922
I4
ag7
(I0
I100
I0
I255
tp923
Rp924
aV1
p925
ag7
(I0
I0
I0
I255
tp926
Rp927
aV4
p928
ag7
(I75
I100
I0
I255
tp929
Rp930
aV1
p931
ag7
(I0
I0
I0
I255
tp932
Rp933
aV4
p934
aasI5
(lp935
I10
a(lp936
I4
ag7
(I0
I100
I0
I255
tp937
Rp938
aV1
p939
ag7
(I0
I0
I0
I255
tp940
Rp941
aV4
p942
ag7
(I0
I100
I50
I255
tp943
Rp944
aV1
p945
ag7
(I0
I0
I0
I255
tp946
Rp947
aV4
p948
aasI6
(lp949
I8
a(lp950
I2
ag7
(I25
I0
I0
I255
tp951
Rp952
aV2
p953
ag7
(I0
I0
I0
I255
tp954
Rp955
aV12
p956
aasI7
(lp957
I8
a(lp958
I2
ag7
(I12
I10
I10
I255
tp959
Rp960
aV2
p961
ag7
(I0
I0
I0
I255
tp962
Rp963
aV12
p964
aasI8
(lp965
I8
a(lp966
I2
ag7
(I25
I0
I0
I255
tp967
Rp968
aV2
p969
ag7
(I0
I0
I0
I255
tp970
Rp971
aV12
p972
aasI9
(lp973
I-1
aNassg20
V00:21 000ms
p974
sba(ieffectgroup
EffectGroup
p975
(dp976
g3
(dp977
I0
(lp978
I12
a(lp979
I8
ag7
(I0
I0
I0
I255
tp980
Rp981
aV1
p982
ag7
(I0
I0
I0
I255
tp983
Rp984
aV1
p985
ag7
(I0
I0
I0
I255
tp986
Rp987
aV1
p988
ag7
(I0
I0
I0
I255
tp989
Rp990
aV1
p991
ag7
(I0
I0
I0
I255
tp992
Rp993
aV1
p994
ag7
(I0
I0
I0
I255
tp995
Rp996
aV1
p997
ag7
(I0
I0
I0
I255
tp998
Rp999
aV1
p1000
ag7
(I0
I0
I0
I255
tp1001
Rp1002
aV1
p1003
aasI1
(lp1004
I12
a(lp1005
I8
ag7
(I0
I0
I0
I255
tp1006
Rp1007
aV1
p1008
ag7
(I0
I0
I0
I255
tp1009
Rp1010
aV1
p1011
ag7
(I0
I0
I0
I255
tp1012
Rp1013
aV1
p1014
ag7
(I0
I0
I0
I255
tp1015
Rp1016
aV1
p1017
ag7
(I0
I0
I0
I255
tp1018
Rp1019
aV1
p1020
ag7
(I0
I0
I0
I255
tp1021
Rp1022
aV1
p1023
ag7
(I0
I0
I0
I255
tp1024
Rp1025
aV1
p1026
ag7
(I0
I0
I0
I255
tp1027
Rp1028
aV1
p1029
aasI2
(lp1030
I12
a(lp1031
I8
ag7
(I0
I0
I0
I255
tp1032
Rp1033
aV1
p1034
ag7
(I0
I0
I0
I255
tp1035
Rp1036
aV1
p1037
ag7
(I0
I0
I0
I255
tp1038
Rp1039
aV1
p1040
ag7
(I0
I0
I0
I255
tp1041
Rp1042
aV1
p1043
ag7
(I0
I0
I0
I255
tp1044
Rp1045
aV1
p1046
ag7
(I0
I0
I0
I255
tp1047
Rp1048
aV1
p1049
ag7
(I0
I0
I0
I255
tp1050
Rp1051
aV1
p1052
ag7
(I0
I0
I0
I255
tp1053
Rp1054
aV1
p1055
aasI3
(lp1056
I12
a(lp1057
I8
ag7
(I0
I0
I0
I255
tp1058
Rp1059
aV1
p1060
ag7
(I0
I0
I0
I255
tp1061
Rp1062
aV1
p1063
ag7
(I0
I0
I0
I255
tp1064
Rp1065
aV1
p1066
ag7
(I0
I0
I0
I255
tp1067
Rp1068
aV1
p1069
ag7
(I0
I0
I0
I255
tp1070
Rp1071
aV1
p1072
ag7
(I0
I0
I0
I255
tp1073
Rp1074
aV1
p1075
ag7
(I0
I0
I0
I255
tp1076
Rp1077
aV1
p1078
ag7
(I0
I0
I0
I255
tp1079
Rp1080
aV1
p1081
aasI4
(lp1082
I12
a(lp1083
I8
ag7
(I0
I0
I0
I255
tp1084
Rp1085
aV1
p1086
ag7
(I0
I0
I0
I255
tp1087
Rp1088
aV1
p1089
ag7
(I0
I0
I0
I255
tp1090
Rp1091
aV1
p1092
ag7
(I0
I0
I0
I255
tp1093
Rp1094
aV1
p1095
ag7
(I0
I0
I0
I255
tp1096
Rp1097
aV1
p1098
ag7
(I0
I0
I0
I255
tp1099
Rp1100
aV1
p1101
ag7
(I0
I0
I0
I255
tp1102
Rp1103
aV1
p1104
ag7
(I0
I0
I0
I255
tp1105
Rp1106
aV1
p1107
aasI5
(lp1108
I12
a(lp1109
I8
ag7
(I0
I0
I0
I255
tp1110
Rp1111
aV1
p1112
ag7
(I0
I0
I0
I255
tp1113
Rp1114
aV1
p1115
ag7
(I0
I0
I0
I255
tp1116
Rp1117
aV1
p1118
ag7
(I0
I0
I0
I255
tp1119
Rp1120
aV1
p1121
ag7
(I0
I0
I0
I255
tp1122
Rp1123
aV1
p1124
ag7
(I0
I0
I0
I255
tp1125
Rp1126
aV1
p1127
ag7
(I0
I0
I0
I255
tp1128
Rp1129
aV1
p1130
ag7
(I0
I0
I0
I255
tp1131
Rp1132
aV1
p1133
aasI6
(lp1134
I12
a(lp1135
I8
ag7
(I0
I0
I0
I255
tp1136
Rp1137
aV1
p1138
ag7
(I0
I0
I0
I255
tp1139
Rp1140
aV1
p1141
ag7
(I0
I0
I0
I255
tp1142
Rp1143
aV1
p1144
ag7
(I0
I0
I0
I255
tp1145
Rp1146
aV1
p1147
ag7
(I0
I0
I0
I255
tp1148
Rp1149
aV1
p1150
ag7
(I0
I0
I0
I255
tp1151
Rp1152
aV1
p1153
ag7
(I0
I0
I0
I255
tp1154
Rp1155
aV1
p1156
ag7
(I0
I0
I0
I255
tp1157
Rp1158
aV1
p1159
aasI7
(lp1160
I12
a(lp1161
I8
ag7
(I0
I0
I0
I255
tp1162
Rp1163
aV1
p1164
ag7
(I0
I0
I0
I255
tp1165
Rp1166
aV1
p1167
ag7
(I0
I0
I0
I255
tp1168
Rp1169
aV1
p1170
ag7
(I0
I0
I0
I255
tp1171
Rp1172
aV1
p1173
ag7
(I0
I0
I0
I255
tp1174
Rp1175
aV1
p1176
ag7
(I0
I0
I0
I255
tp1177
Rp1178
aV1
p1179
ag7
(I0
I0
I0
I255
tp1180
Rp1181
aV1
p1182
ag7
(I0
I0
I0
I255
tp1183
Rp1184
aV1
p1185
aasI8
(lp1186
I12
a(lp1187
I8
ag7
(I0
I0
I0
I255
tp1188
Rp1189
aV1
p1190
ag7
(I0
I0
I0
I255
tp1191
Rp1192
aV1
p1193
ag7
(I0
I0
I0
I255
tp1194
Rp1195
aV1
p1196
ag7
(I0
I0
I0
I255
tp1197
Rp1198
aV1
p1199
ag7
(I0
I0
I0
I255
tp1200
Rp1201
aV1
p1202
ag7
(I0
I0
I0
I255
tp1203
Rp1204
aV1
p1205
ag7
(I0
I0
I0
I255
tp1206
Rp1207
aV1
p1208
ag7
(I0
I0
I0
I255
tp1209
Rp1210
aV1
p1211
aasI9
(lp1212
I12
a(lp1213
I8
ag7
(I0
I0
I0
I255
tp1214
Rp1215
aV1
p1216
ag7
(I0
I0
I0
I255
tp1217
Rp1218
aV1
p1219
ag7
(I0
I0
I0
I255
tp1220
Rp1221
aV1
p1222
ag7
(I0
I0
I0
I255
tp1223
Rp1224
aV1
p1225
ag7
(I0
I0
I0
I255
tp1226
Rp1227
aV1
p1228
ag7
(I0
I0
I0
I255
tp1229
Rp1230
aV1
p1231
ag7
(I0
I0
I0
I255
tp1232
Rp1233
aV1
p1234
ag7
(I0
I0
I0
I255
tp1235
Rp1236
aV1
p1237
aassg20
V00:22 000ms
p1238
sba(ieffectgroup
EffectGroup
p1239
(dp1240
g3
(dp1241
I0
(lp1242
I-1
aNasI1
(lp1243
I-1
aNasI2
(lp1244
I-1
aNasI3
(lp1245
I-1
aNasI4
(lp1246
I-1
aNasI5
(lp1247
I-1
aNasI6
(lp1248
I-1
aNasI7
(lp1249
I-1
aNasI8
(lp1250
I-1
aNasI9
(lp1251
I-1
aNassg20
V00:23 000ms
p1252
sba(ieffectgroup
EffectGroup
p1253
(dp1254
g3
(dp1255
I0
(lp1256
I-1
aNasI1
(lp1257
I-1
aNasI2
(lp1258
I-1
aNasI3
(lp1259
I-1
aNasI4
(lp1260
I-1
aNasI5
(lp1261
I-1
aNasI6
(lp1262
I-1
aNasI7
(lp1263
I-1
aNasI8
(lp1264
I-1
aNasI9
(lp1265
I-1
aNassg20
V00:24 000ms
p1266
sba(ieffectgroup
EffectGroup
p1267
(dp1268
g3
(dp1269
I0
(lp1270
I-1
aNasI1
(lp1271
I-1
aNasI2
(lp1272
I-1
aNasI3
(lp1273
I-1
aNasI4
(lp1274
I-1
aNasI5
(lp1275
I-1
aNasI6
(lp1276
I-1
aNasI7
(lp1277
I-1
aNasI8
(lp1278
I-1
aNasI9
(lp1279
I-1
aNassg20
V00:25 000ms
p1280
sba.