(lp0
(ieffectgroup
EffectGroup
p1
(dp2
S'm_effects'
p3
(dp4
I0
(lp5
I10
a(lp6
I4
acwx._gdi
Colour
p7
(I120
I90
I90
I255
tp8
Rp9
aV1
p10
ag7
(I0
I0
I0
I255
tp11
Rp12
aV3
p13
ag7
(I255
I0
I0
I255
tp14
Rp15
aV1
p16
ag7
(I0
I0
I0
I255
tp17
Rp18
aV3
p19
aasI1
(lp20
I10
a(lp21
I4
ag7
(I0
I0
I0
I255
tp22
Rp23
aV3
p24
ag7
(I120
I90
I90
I255
tp25
Rp26
aV1
p27
ag7
(I0
I0
I0
I255
tp28
Rp29
aV3
p30
ag7
(I255
I0
I0
I255
tp31
Rp32
aV1
p33
aasI2
(lp34
I10
a(lp35
I4
ag7
(I0
I0
I120
I255
tp36
Rp37
aV1
p38
ag7
(I0
I0
I0
I255
tp39
Rp40
aV3
p41
ag7
(I120
I90
I90
I255
tp42
Rp43
aV1
p44
ag7
(I0
I0
I0
I255
tp45
Rp46
aV3
p47
aasI3
(lp48
I10
a(lp49
I4
ag7
(I0
I0
I0
I255
tp50
Rp51
aV3
p52
ag7
(I0
I0
I120
I255
tp53
Rp54
aV1
p55
ag7
(I0
I0
I0
I255
tp56
Rp57
aV3
p58
ag7
(I120
I90
I90
I255
tp59
Rp60
aV1
p61
aasI4
(lp62
I5
a(lp63
g7
(I0
I0
I120
I255
tp64
Rp65
ag7
(I255
I0
I0
I255
tp66
Rp67
aV200
p68
aV5
p69
aV10
p70
aasI5
(lp71
I5
a(lp72
g7
(I255
I0
I0
I255
tp73
Rp74
ag7
(I0
I0
I120
I255
tp75
Rp76
aV200
p77
aV5
p78
aV10
p79
aasI6
(lp80
I10
a(lp81
I4
ag7
(I255
I0
I0
I255
tp82
Rp83
aV1
p84
ag7
(I0
I0
I0
I255
tp85
Rp86
aV3
p87
ag7
(I0
I0
I120
I255
tp88
Rp89
aV1
p90
ag7
(I0
I0
I0
I255
tp91
Rp92
aV3
p93
aasI7
(lp94
I10
a(lp95
I4
ag7
(I0
I0
I0
I255
tp96
Rp97
aV3
p98
ag7
(I255
I0
I0
I255
tp99
Rp100
aV1
p101
ag7
(I0
I0
I0
I255
tp102
Rp103
aV3
p104
ag7
(I0
I0
I120
I255
tp105
Rp106
aV1
p107
aasI8
(lp108
I10
a(lp109
I4
ag7
(I120
I90
I90
I255
tp110
Rp111
aV1
p112
ag7
(I0
I0
I0
I255
tp113
Rp114
aV3
p115
ag7
(I255
I0
I0
I255
tp116
Rp117
aV1
p118
ag7
(I0
I0
I0
I255
tp119
Rp120
aV3
p121
aasI9
(lp122
I10
a(lp123
I4
ag7
(I0
I0
I0
I255
tp124
Rp125
aV3
p126
ag7
(I120
I90
I90
I255
tp127
Rp128
aV1
p129
ag7
(I0
I0
I0
I255
tp130
Rp131
aV3
p132
ag7
(I255
I0
I0
I255
tp133
Rp134
aV1
p135
aassS'm_time'
p136
V00:00 000ms
p137
sba.