(lp0
(ieffectgroup
EffectGroup
p1
(dp2
S'm_effects'
p3
(dp4
I0
(lp5
I1
a(lp6
cwx._gdi
Colour
p7
(I0
I0
I0
I255
tp8
Rp9
aasI1
(lp10
I-1
aNasI2
(lp11
I-1
aNasI3
(lp12
I-1
aNasI4
(lp13
I-1
aNasI5
(lp14
I-1
aNasI6
(lp15
I-1
aNasI7
(lp16
I-1
aNasI8
(lp17
I-1
aNasI9
(lp18
I-1
aNasI10
(lp19
I-1
aNasI11
(lp20
I-1
aNassS'm_time'
p21
V00:00 000ms
p22
sba(ieffectgroup
EffectGroup
p23
(dp24
g3
(dp25
I0
(lp26
I-1
aNasI1
(lp27
I-1
aNasI2
(lp28
I-1
aNasI3
(lp29
I3
a(lp30
g7
(I128
I30
I0
I255
tp31
Rp32
aV1
p33
aV3
p34
aasI4
(lp35
I-1
aNasI5
(lp36
I-1
aNasI6
(lp37
I-1
aNasI7
(lp38
I-1
aNasI8
(lp39
I3
a(lp40
g7
(I64
I0
I128
I255
tp41
Rp42
aV1
p43
aV3
p44
aasI9
(lp45
I-1
aNasI10
(lp46
I-1
aNasI11
(lp47
I-1
aNassg21
V00:02 500ms
p48
sba(ieffectgroup
EffectGroup
p49
(dp50
g3
(dp51
I0
(lp52
I-1
aNasI1
(lp53
I-1
aNasI2
(lp54
I-1
aNasI3
(lp55
I12
a(lp56
I8
ag7
(I128
I30
I0
I255
tp57
Rp58
aV3
p59
ag7
(I0
I0
I0
I255
tp60
Rp61
aV7
p62
ag7
(I128
I30
I0
I255
tp63
Rp64
aV3
p65
ag7
(I0
I0
I0
I255
tp66
Rp67
aV7
p68
ag7
(I128
I30
I0
I255
tp69
Rp70
aV3
p71
ag7
(I0
I0
I0
I255
tp72
Rp73
aV7
p74
ag7
(I64
I0
I128
I255
tp75
Rp76
aV3
p77
ag7
(I0
I0
I0
I255
tp78
Rp79
aV7
p80
aasI4
(lp81
I-1
aNasI5
(lp82
I-1
aNasI6
(lp83
I-1
aNasI7
(lp84
I-1
aNasI8
(lp85
I12
a(lp86
I8
ag7
(I64
I0
I128
I255
tp87
Rp88
aV3
p89
ag7
(I0
I0
I0
I255
tp90
Rp91
aV7
p92
ag7
(I64
I0
I128
I255
tp93
Rp94
aV3
p95
ag7
(I0
I0
I0
I255
tp96
Rp97
aV7
p98
ag7
(I64
I0
I128
I255
tp99
Rp100
aV3
p101
ag7
(I0
I0
I0
I255
tp102
Rp103
aV7
p104
ag7
(I128
I30
I0
I255
tp105
Rp106
aV3
p107
ag7
(I0
I0
I0
I255
tp108
Rp109
aV7
p110
aasI9
(lp111
I-1
aNasI10
(lp112
I-1
aNasI11
(lp113
I-1
aNassg21
V00:03 000ms
p114
sba(ieffectgroup
EffectGroup
p115
(dp116
g3
(dp117
I0
(lp118
I-1
aNasI1
(lp119
I-1
aNasI2
(lp120
I-1
aNasI3
(lp121
I-1
aNasI4
(lp122
I3
a(lp123
g7
(I50
I10
I0
I255
tp124
Rp125
aV1
p126
aV12
p127
aasI5
(lp128
I-1
aNasI6
(lp129
I-1
aNasI7
(lp130
I3
a(lp131
g7
(I20
I0
I40
I255
tp132
Rp133
aV1
p134
aV12
p135
aasI8
(lp136
I-1
aNasI9
(lp137
I-1
aNasI10
(lp138
I-1
aNasI11
(lp139
I-1
aNassg21
V00:04 000ms
p140
sba(ieffectgroup
EffectGroup
p141
(dp142
g3
(dp143
I0
(lp144
I-1
aNasI1
(lp145
I-1
aNasI2
(lp146
I-1
aNasI3
(lp147
I-1
aNasI4
(lp148
I3
a(lp149
g7
(I50
I10
I0
I255
tp150
Rp151
aV2
p152
aV32
p153
aasI5
(lp154
I-1
aNasI6
(lp155
I-1
aNasI7
(lp156
I3
a(lp157
g7
(I20
I0
I40
I255
tp158
Rp159
aV2
p160
aV32
p161
aasI8
(lp162
I-1
aNasI9
(lp163
I-1
aNasI10
(lp164
I-1
aNasI11
(lp165
I-1
aNassg21
V00:05 000ms
p166
sba(ieffectgroup
EffectGroup
p167
(dp168
g3
(dp169
I0
(lp170
I-1
a(lp171
asI1
(lp172
I-1
aNasI2
(lp173
I-1
aNasI3
(lp174
I-1
aNasI4
(lp175
I3
a(lp176
g7
(I223
I50
I0
I255
tp177
Rp178
aV1
p179
aV8
p180
aasI5
(lp181
I-1
aNasI6
(lp182
I-1
aNasI7
(lp183
I3
a(lp184
g7
(I101
I0
I202
I255
tp185
Rp186
aV1
p187
aV8
p188
aasI8
(lp189
I-1
aNasI9
(lp190
I-1
aNasI10
(lp191
I-1
aNasI11
(lp192
I-1
aNassg21
V00:06 000ms
p193
sba(ieffectgroup
EffectGroup
p194
(dp195
g3
(dp196
I0
(lp197
I-1
aNasI1
(lp198
I-1
aNasI2
(lp199
I-1
aNasI3
(lp200
I-1
aNasI4
(lp201
I3
a(lp202
g7
(I240
I240
I240
I255
tp203
Rp204
aV5
p205
aV500
p206
aasI5
(lp207
I-1
aNasI6
(lp208
I-1
aNasI7
(lp209
I3
a(lp210
g7
(I240
I240
I240
I255
tp211
Rp212
aV5
p213
aV500
p214
aasI8
(lp215
I-1
aNasI9
(lp216
I-1
aNasI10
(lp217
I-1
aNasI11
(lp218
I-1
aNassg21
V00:07 000ms
p219
sba(ieffectgroup
EffectGroup
p220
(dp221
g3
(dp222
I0
(lp223
I-1
aNasI1
(lp224
I-1
aNasI2
(lp225
I-1
aNasI3
(lp226
I-1
aNasI4
(lp227
I3
a(lp228
g7
(I255
I255
I255
I255
tp229
Rp230
aV5
p231
aV25
p232
aasI5
(lp233
I-1
aNasI6
(lp234
I-1
aNasI7
(lp235
I3
a(lp236
g7
(I255
I255
I255
I255
tp237
Rp238
aV5
p239
aV25
p240
aasI8
(lp241
I-1
a(lp242
asI9
(lp243
I-1
aNasI10
(lp244
I-1
aNasI11
(lp245
I-1
aNassg21
V00:08 000ms
p246
sba(ieffectgroup
EffectGroup
p247
(dp248
g3
(dp249
I0
(lp250
I12
a(lp251
I8
ag7
(I64
I0
I128
I255
tp252
Rp253
aV1
p254
ag7
(I0
I0
I0
I255
tp255
Rp256
aV8
p257
ag7
(I64
I0
I128
I255
tp258
Rp259
aV1
p260
ag7
(I0
I0
I0
I255
tp261
Rp262
aV8
p263
ag7
(I64
I0
I128
I255
tp264
Rp265
aV1
p266
ag7
(I0
I0
I0
I255
tp267
Rp268
aV8
p269
ag7
(I96
I96
I96
I255
tp270
Rp271
aV4
p272
ag7
(I0
I0
I0
I255
tp273
Rp274
aV8
p275
aasI1
(lp276
I8
a(lp277
I2
ag7
(I64
I0
I128
I255
tp278
Rp279
aV1
p280
ag7
(I0
I0
I0
I255
tp281
Rp282
aV8
p283
aasI2
(lp284
I8
a(lp285
I2
ag7
(I64
I0
I128
I255
tp286
Rp287
aV1
p288
ag7
(I0
I0
I0
I255
tp289
Rp290
aV8
p291
aasI3
(lp292
I12
a(lp293
I8
ag7
(I64
I0
I128
I255
tp294
Rp295
aV1
p296
ag7
(I0
I0
I0
I255
tp297
Rp298
aV8
p299
ag7
(I64
I0
I128
I255
tp300
Rp301
aV1
p302
ag7
(I0
I0
I0
I255
tp303
Rp304
aV8
p305
ag7
(I64
I0
I128
I255
tp306
Rp307
aV1
p308
ag7
(I0
I0
I0
I255
tp309
Rp310
aV8
p311
ag7
(I110
I96
I96
I255
tp312
Rp313
aV1
p314
ag7
(I0
I0
I0
I255
tp315
Rp316
aV8
p317
aasI4
(lp318
I-1
aNasI5
(lp319
I9
a(lp320
I3
ag7
(I255
I0
I0
I255
tp321
Rp322
aV2
p323
ag7
(I255
I128
I0
I255
tp324
Rp325
aV2
p326
ag7
(I0
I0
I0
I255
tp327
Rp328
aV32
p329
aasI6
(lp330
I9
a(lp331
I3
ag7
(I255
I0
I0
I255
tp332
Rp333
aV2
p334
ag7
(I255
I128
I0
I255
tp335
Rp336
aV2
p337
ag7
(I0
I0
I0
I255
tp338
Rp339
aV32
p340
aasI7
(lp341
I-1
a(lp342
asI8
(lp343
I16
a(lp344
I16
ag7
(I64
I0
I128
I255
tp345
Rp346
aV1
p347
ag7
(I0
I0
I0
I255
tp348
Rp349
aV8
p350
ag7
(I64
I0
I128
I255
tp351
Rp352
aV1
p353
ag7
(I0
I0
I0
I255
tp354
Rp355
aV8
p356
ag7
(I64
I0
I128
I255
tp357
Rp358
aV1
p359
ag7
(I0
I0
I0
I255
tp360
Rp361
aV8
p362
ag7
(I110
I96
I96
I255
tp363
Rp364
aV1
p365
ag7
(I0
I0
I0
I255
tp366
Rp367
aV8
p368
ag7
(I64
I0
I128
I255
tp369
Rp370
aV1
p371
ag7
(I0
I0
I0
I255
tp372
Rp373
aV8
p374
ag7
(I64
I0
I128
I255
tp375
Rp376
aV1
p377
ag7
(I0
I0
I0
I255
tp378
Rp379
aV8
p380
ag7
(I64
I0
I128
I255
tp381
Rp382
aV1
p383
ag7
(I0
I0
I0
I255
tp384
Rp385
aV8
p386
ag7
(I110
I96
I96
I255
tp387
Rp388
aV1
p389
ag7
(I0
I0
I0
I255
tp390
Rp391
aV8
p392
aasI9
(lp393
I8
a(lp394
I2
ag7
(I64
I0
I128
I255
tp395
Rp396
aV1
p397
ag7
(I0
I0
I0
I255
tp398
Rp399
aV8
p400
aasI10
(lp401
I8
a(lp402
I2
ag7
(I64
I0
I128
I255
tp403
Rp404
aV1
p405
ag7
(I0
I0
I0
I255
tp406
Rp407
aV8
p408
aasI11
(lp409
I12
a(lp410
I8
ag7
(I64
I0
I128
I255
tp411
Rp412
aV1
p413
ag7
(I0
I0
I0
I255
tp414
Rp415
aV8
p416
ag7
(I64
I0
I128
I255
tp417
Rp418
aV1
p419
ag7
(I0
I0
I0
I255
tp420
Rp421
aV8
p422
ag7
(I64
I0
I128
I255
tp423
Rp424
aV1
p425
ag7
(I0
I0
I0
I255
tp426
Rp427
aV8
p428
ag7
(I110
I96
I96
I255
tp429
Rp430
aV3
p431
ag7
(I0
I0
I0
I255
tp432
Rp433
aV8
p434
aassg21
V00:10 000ms
p435
sba(ieffectgroup
EffectGroup
p436
(dp437
g3
(dp438
I0
(lp439
I12
a(lp440
I8
ag7
(I64
I0
I128
I255
tp441
Rp442
aV1
p443
ag7
(I0
I0
I0
I255
tp444
Rp445
aV8
p446
ag7
(I64
I0
I128
I255
tp447
Rp448
aV1
p449
ag7
(I0
I0
I0
I255
tp450
Rp451
aV8
p452
ag7
(I64
I0
I128
I255
tp453
Rp454
aV1
p455
ag7
(I0
I0
I0
I255
tp456
Rp457
aV8
p458
ag7
(I110
I96
I96
I255
tp459
Rp460
aV1
p461
ag7
(I0
I0
I0
I255
tp462
Rp463
aV8
p464
aasI1
(lp465
I8
a(lp466
I2
ag7
(I64
I0
I128
I255
tp467
Rp468
aV1
p469
ag7
(I0
I0
I0
I255
tp470
Rp471
aV8
p472
aasI2
(lp473
I8
a(lp474
I2
ag7
(I64
I0
I128
I255
tp475
Rp476
aV1
p477
ag7
(I0
I0
I0
I255
tp478
Rp479
aV8
p480
aasI3
(lp481
I12
a(lp482
I8
ag7
(I64
I0
I128
I255
tp483
Rp484
aV1
p485
ag7
(I0
I0
I0
I255
tp486
Rp487
aV8
p488
ag7
(I64
I0
I128
I255
tp489
Rp490
aV1
p491
ag7
(I0
I0
I0
I255
tp492
Rp493
aV8
p494
ag7
(I64
I0
I128
I255
tp495
Rp496
aV1
p497
ag7
(I0
I0
I0
I255
tp498
Rp499
aV8
p500
ag7
(I110
I96
I96
I255
tp501
Rp502
aV1
p503
ag7
(I0
I0
I0
I255
tp504
Rp505
aV8
p506
aasI4
(lp507
I-1
aNasI5
(lp508
I9
a(lp509
I3
ag7
(I0
I0
I255
I255
tp510
Rp511
aV3
p512
ag7
(I0
I128
I128
I255
tp513
Rp514
aV3
p515
ag7
(I0
I0
I0
I255
tp516
Rp517
aV32
p518
aasI6
(lp519
I9
a(lp520
I3
ag7
(I0
I0
I255
I255
tp521
Rp522
aV3
p523
ag7
(I0
I128
I128
I255
tp524
Rp525
aV3
p526
ag7
(I0
I0
I0
I255
tp527
Rp528
aV32
p529
aasI7
(lp530
I-1
aNasI8
(lp531
I12
a(lp532
I8
ag7
(I64
I0
I128
I255
tp533
Rp534
aV1
p535
ag7
(I0
I0
I0
I255
tp536
Rp537
aV8
p538
ag7
(I64
I0
I128
I255
tp539
Rp540
aV1
p541
ag7
(I0
I0
I0
I255
tp542
Rp543
aV8
p544
ag7
(I64
I0
I128
I255
tp545
Rp546
aV1
p547
ag7
(I0
I0
I0
I255
tp548
Rp549
aV8
p550
ag7
(I110
I96
I96
I255
tp551
Rp552
aV1
p553
ag7
(I0
I0
I0
I255
tp554
Rp555
aV8
p556
aasI9
(lp557
I8
a(lp558
I2
ag7
(I64
I0
I128
I255
tp559
Rp560
aV1
p561
ag7
(I0
I0
I0
I255
tp562
Rp563
aV8
p564
aasI10
(lp565
I8
a(lp566
I2
ag7
(I64
I0
I128
I255
tp567
Rp568
aV1
p569
ag7
(I0
I0
I0
I255
tp570
Rp571
aV8
p572
aasI11
(lp573
I12
a(lp574
I8
ag7
(I64
I0
I128
I255
tp575
Rp576
aV1
p577
ag7
(I0
I0
I0
I255
tp578
Rp579
aV8
p580
ag7
(I64
I0
I128
I255
tp581
Rp582
aV1
p583
ag7
(I0
I0
I0
I255
tp584
Rp585
aV8
p586
ag7
(I64
I0
I128
I255
tp587
Rp588
aV1
p589
ag7
(I0
I0
I0
I255
tp590
Rp591
aV8
p592
ag7
(I110
I96
I96
I255
tp593
Rp594
aV1
p595
ag7
(I0
I0
I0
I255
tp596
Rp597
aV8
p598
aassg21
V00:11 000ms
p599
sba(ieffectgroup
EffectGroup
p600
(dp601
g3
(dp602
I0
(lp603
I-1
aNasI1
(lp604
I-1
aNasI2
(lp605
I-1
aNasI3
(lp606
I-1
aNasI4
(lp607
I3
a(lp608
g7
(I0
I128
I128
I255
tp609
Rp610
aV1
p611
aV3
p612
aasI5
(lp613
I-1
aNasI6
(lp614
I-1
aNasI7
(lp615
I3
a(lp616
g7
(I64
I0
I128
I255
tp617
Rp618
aV1
p619
aV3
p620
aasI8
(lp621
I-1
aNasI9
(lp622
I-1
aNasI10
(lp623
I-1
aNasI11
(lp624
I-1
aNassg21
V00:12 000ms
p625
sba(ieffectgroup
EffectGroup
p626
(dp627
g3
(dp628
I0
(lp629
I-1
aNasI1
(lp630
I-1
aNasI2
(lp631
I-1
aNasI3
(lp632
I-1
a(lp633
asI4
(lp634
I12
a(lp635
I8
ag7
(I64
I0
I128
I255
tp636
Rp637
aV3
p638
ag7
(I0
I0
I0
I255
tp639
Rp640
aV7
p641
ag7
(I64
I0
I128
I255
tp642
Rp643
aV3
p644
ag7
(I0
I0
I0
I255
tp645
Rp646
aV7
p647
ag7
(I64
I0
I128
I255
tp648
Rp649
aV3
p650
ag7
(I0
I0
I0
I255
tp651
Rp652
aV7
p653
ag7
(I0
I128
I128
I255
tp654
Rp655
aV3
p656
ag7
(I0
I0
I0
I255
tp657
Rp658
aV7
p659
aasI5
(lp660
I-1
aNasI6
(lp661
I-1
aNasI7
(lp662
I12
a(lp663
I8
ag7
(I0
I128
I128
I255
tp664
Rp665
aV3
p666
ag7
(I0
I0
I0
I255
tp667
Rp668
aV7
p669
ag7
(I0
I128
I128
I255
tp670
Rp671
aV3
p672
ag7
(I0
I0
I0
I255
tp673
Rp674
aV7
p675
ag7
(I0
I128
I128
I255
tp676
Rp677
aV3
p678
ag7
(I0
I0
I0
I255
tp679
Rp680
aV7
p681
ag7
(I64
I0
I128
I255
tp682
Rp683
aV3
p684
ag7
(I0
I0
I0
I255
tp685
Rp686
aV7
p687
aasI8
(lp688
I-1
aNasI9
(lp689
I-1
aNasI10
(lp690
I-1
aNasI11
(lp691
I-1
aNassg21
V00:13 000ms
p692
sba(ieffectgroup
EffectGroup
p693
(dp694
g3
(dp695
I0
(lp696
I-1
aNasI1
(lp697
I-1
aNasI2
(lp698
I-1
aNasI3
(lp699
I-1
aNasI4
(lp700
I3
a(lp701
g7
(I0
I128
I128
I255
tp702
Rp703
aV1
p704
aV3
p705
aasI5
(lp706
I-1
aNasI6
(lp707
I-1
aNasI7
(lp708
I3
a(lp709
g7
(I64
I0
I128
I255
tp710
Rp711
aV1
p712
aV3
p713
aasI8
(lp714
I-1
aNasI9
(lp715
I-1
aNasI10
(lp716
I-1
aNasI11
(lp717
I-1
aNassg21
V00:14 000ms
p718
sba(ieffectgroup
EffectGroup
p719
(dp720
g3
(dp721
I0
(lp722
I-1
aNasI1
(lp723
I-1
aNasI2
(lp724
I-1
aNasI3
(lp725
I-1
aNasI4
(lp726
I10
a(lp727
I4
ag7
(I64
I0
I128
I255
tp728
Rp729
aV3
p730
ag7
(I0
I0
I0
I255
tp731
Rp732
aV7
p733
ag7
(I64
I0
I128
I255
tp734
Rp735
aV3
p736
ag7
(I0
I0
I0
I255
tp737
Rp738
aV40
p739
aasI5
(lp740
I-1
aNasI6
(lp741
I-1
aNasI7
(lp742
I10
a(lp743
I4
ag7
(I0
I128
I128
I255
tp744
Rp745
aV3
p746
ag7
(I0
I0
I0
I255
tp747
Rp748
aV7
p749
ag7
(I0
I128
I128
I255
tp750
Rp751
aV3
p752
ag7
(I0
I0
I0
I255
tp753
Rp754
aV40
p755
aasI8
(lp756
I-1
aNasI9
(lp757
I-1
aNasI10
(lp758
I-1
aNasI11
(lp759
I-1
aNassg21
V00:15 000ms
p760
sba(ieffectgroup
EffectGroup
p761
(dp762
g3
(dp763
I0
(lp764
I-1
aNasI1
(lp765
I-1
aNasI2
(lp766
I-1
aNasI3
(lp767
I-1
aNasI4
(lp768
I3
a(lp769
g7
(I0
I128
I128
I255
tp770
Rp771
aV1
p772
aV12
p773
aasI5
(lp774
I-1
a(lp775
asI6
(lp776
I-1
aNasI7
(lp777
I3
a(lp778
g7
(I255
I0
I0
I255
tp779
Rp780
aV1
p781
aV12
p782
aasI8
(lp783
I-1
a(lp784
asI9
(lp785
I-1
aNasI10
(lp786
I-1
aNasI11
(lp787
I-1
aNassg21
V00:16 000ms
p788
sba(ieffectgroup
EffectGroup
p789
(dp790
g3
(dp791
I0
(lp792
I-1
aNasI1
(lp793
I-1
aNasI2
(lp794
I-1
aNasI3
(lp795
I-1
aNasI4
(lp796
I8
a(lp797
I2
ag7
(I0
I128
I128
I255
tp798
Rp799
aV1
p800
ag7
(I2
I0
I2
I255
tp801
Rp802
aV20
p803
aasI5
(lp804
I-1
aNasI6
(lp805
I-1
a(lp806
asI7
(lp807
I8
a(lp808
I2
ag7
(I255
I0
I0
I255
tp809
Rp810
aV1
p811
ag7
(I2
I0
I2
I255
tp812
Rp813
aV20
p814
aasI8
(lp815
I-1
aNasI9
(lp816
I-1
aNasI10
(lp817
I-1
aNasI11
(lp818
I-1
aNassg21
V00:17 000ms
p819
sba(ieffectgroup
EffectGroup
p820
(dp821
g3
(dp822
I0
(lp823
I-1
aNasI1
(lp824
I-1
aNasI2
(lp825
I-1
aNasI3
(lp826
I-1
aNasI4
(lp827
I3
a(lp828
g7
(I255
I255
I255
I255
tp829
Rp830
aV5
p831
aV500
p832
aasI5
(lp833
I-1
aNasI6
(lp834
I-1
aNasI7
(lp835
I3
a(lp836
g7
(I255
I255
I255
I255
tp837
Rp838
aV5
p839
aV500
p840
aasI8
(lp841
I-1
aNasI9
(lp842
I-1
aNasI10
(lp843
I-1
aNasI11
(lp844
I-1
aNassg21
V00:18 000ms
p845
sba(ieffectgroup
EffectGroup
p846
(dp847
g3
(dp848
I0
(lp849
I-1
aNasI1
(lp850
I-1
aNasI2
(lp851
I-1
aNasI3
(lp852
I-1
aNasI4
(lp853
I3
a(lp854
g7
(I255
I255
I255
I255
tp855
Rp856
aV5
p857
aV25
p858
aasI5
(lp859
I-1
a(lp860
asI6
(lp861
I-1
aNasI7
(lp862
I3
a(lp863
g7
(I255
I255
I255
I255
tp864
Rp865
aV5
p866
aV25
p867
aasI8
(lp868
I-1
aNasI9
(lp869
I-1
aNasI10
(lp870
I-1
aNasI11
(lp871
I-1
aNassg21
V00:19 000ms
p872
sba(ieffectgroup
EffectGroup
p873
(dp874
g3
(dp875
I0
(lp876
I12
a(lp877
I8
ag7
(I120
I0
I0
I255
tp878
Rp879
aV1
p880
ag7
(I0
I0
I0
I255
tp881
Rp882
aV8
p883
ag7
(I120
I0
I0
I255
tp884
Rp885
aV1
p886
ag7
(I0
I0
I0
I255
tp887
Rp888
aV8
p889
ag7
(I120
I0
I0
I255
tp890
Rp891
aV1
p892
ag7
(I0
I0
I0
I255
tp893
Rp894
aV8
p895
ag7
(I0
I128
I128
I255
tp896
Rp897
aV1
p898
ag7
(I0
I0
I0
I255
tp899
Rp900
aV8
p901
aasI1
(lp902
I8
a(lp903
I2
ag7
(I120
I0
I0
I255
tp904
Rp905
aV1
p906
ag7
(I0
I0
I0
I255
tp907
Rp908
aV8
p909
aasI2
(lp910
I8
a(lp911
I2
ag7
(I120
I0
I0
I255
tp912
Rp913
aV1
p914
ag7
(I0
I0
I0
I255
tp915
Rp916
aV8
p917
aasI3
(lp918
I12
a(lp919
I8
ag7
(I120
I0
I0
I255
tp920
Rp921
aV1
p922
ag7
(I0
I0
I0
I255
tp923
Rp924
aV8
p925
ag7
(I120
I0
I0
I255
tp926
Rp927
aV1
p928
ag7
(I0
I0
I0
I255
tp929
Rp930
aV8
p931
ag7
(I120
I0
I0
I255
tp932
Rp933
aV1
p934
ag7
(I0
I0
I0
I255
tp935
Rp936
aV8
p937
ag7
(I0
I128
I128
I255
tp938
Rp939
aV4
p940
ag7
(I0
I0
I0
I255
tp941
Rp942
aV8
p943
aasI4
(lp944
I-1
aNasI5
(lp945
I9
a(lp946
I3
ag7
(I0
I0
I255
I255
tp947
Rp948
aV2
p949
ag7
(I0
I128
I128
I255
tp950
Rp951
aV2
p952
ag7
(I0
I0
I0
I255
tp953
Rp954
aV32
p955
aasI6
(lp956
I9
a(lp957
I3
ag7
(I0
I0
I255
I255
tp958
Rp959
aV2
p960
ag7
(I0
I128
I128
I255
tp961
Rp962
aV2
p963
ag7
(I0
I0
I0
I255
tp964
Rp965
aV32
p966
aasI7
(lp967
I-1
aNasI8
(lp968
I12
a(lp969
I8
ag7
(I120
I0
I0
I255
tp970
Rp971
aV1
p972
ag7
(I0
I0
I0
I255
tp973
Rp974
aV8
p975
ag7
(I120
I0
I0
I255
tp976
Rp977
aV1
p978
ag7
(I0
I0
I0
I255
tp979
Rp980
aV8
p981
ag7
(I120
I0
I0
I255
tp982
Rp983
aV1
p984
ag7
(I0
I0
I0
I255
tp985
Rp986
aV8
p987
ag7
(I0
I128
I128
I255
tp988
Rp989
aV4
p990
ag7
(I0
I0
I0
I255
tp991
Rp992
aV8
p993
aasI9
(lp994
I8
a(lp995
I2
ag7
(I120
I0
I0
I255
tp996
Rp997
aV1
p998
ag7
(I0
I0
I0
I255
tp999
Rp1000
aV8
p1001
aasI10
(lp1002
I8
a(lp1003
I2
ag7
(I120
I0
I0
I255
tp1004
Rp1005
aV1
p1006
ag7
(I0
I0
I0
I255
tp1007
Rp1008
aV8
p1009
aasI11
(lp1010
I12
a(lp1011
I8
ag7
(I120
I0
I0
I255
tp1012
Rp1013
aV1
p1014
ag7
(I0
I0
I0
I255
tp1015
Rp1016
aV8
p1017
ag7
(I120
I0
I0
I255
tp1018
Rp1019
aV1
p1020
ag7
(I0
I0
I0
I255
tp1021
Rp1022
aV8
p1023
ag7
(I120
I0
I0
I255
tp1024
Rp1025
aV1
p1026
ag7
(I0
I0
I0
I255
tp1027
Rp1028
aV8
p1029
ag7
(I0
I128
I128
I255
tp1030
Rp1031
aV1
p1032
ag7
(I0
I0
I0
I255
tp1033
Rp1034
aV8
p1035
aassg21
V00:21 000ms
p1036
sba(ieffectgroup
EffectGroup
p1037
(dp1038
g3
(dp1039
I0
(lp1040
I12
a(lp1041
I8
ag7
(I120
I0
I0
I255
tp1042
Rp1043
aV1
p1044
ag7
(I0
I0
I0
I255
tp1045
Rp1046
aV8
p1047
ag7
(I120
I0
I0
I255
tp1048
Rp1049
aV1
p1050
ag7
(I0
I0
I0
I255
tp1051
Rp1052
aV8
p1053
ag7
(I120
I0
I0
I255
tp1054
Rp1055
aV1
p1056
ag7
(I0
I0
I0
I255
tp1057
Rp1058
aV8
p1059
ag7
(I64
I0
I128
I255
tp1060
Rp1061
aV4
p1062
ag7
(I0
I0
I0
I255
tp1063
Rp1064
aV8
p1065
aasI1
(lp1066
I8
a(lp1067
I2
ag7
(I120
I0
I0
I255
tp1068
Rp1069
aV1
p1070
ag7
(I0
I0
I0
I255
tp1071
Rp1072
aV8
p1073
aasI2
(lp1074
I8
a(lp1075
I2
ag7
(I120
I0
I0
I255
tp1076
Rp1077
aV1
p1078
ag7
(I0
I0
I0
I255
tp1079
Rp1080
aV8
p1081
aasI3
(lp1082
I12
a(lp1083
I8
ag7
(I120
I0
I0
I255
tp1084
Rp1085
aV1
p1086
ag7
(I0
I0
I0
I255
tp1087
Rp1088
aV8
p1089
ag7
(I120
I0
I0
I255
tp1090
Rp1091
aV1
p1092
ag7
(I0
I0
I0
I255
tp1093
Rp1094
aV8
p1095
ag7
(I120
I0
I0
I255
tp1096
Rp1097
aV1
p1098
ag7
(I0
I0
I0
I255
tp1099
Rp1100
aV8
p1101
ag7
(I64
I0
I128
I255
tp1102
Rp1103
aV1
p1104
ag7
(I0
I0
I0
I255
tp1105
Rp1106
aV24
p1107
aasI4
(lp1108
I-1
aNasI5
(lp1109
I10
a(lp1110
I4
ag7
(I64
I0
I128
I255
tp1111
Rp1112
aV6
p1113
ag7
(I0
I0
I0
I255
tp1114
Rp1115
aV32
p1116
ag7
(I64
I0
I128
I255
tp1117
Rp1118
aV32
p1119
ag7
(I0
I0
I0
I255
tp1120
Rp1121
aV32
p1122
aasI6
(lp1123
I8
a(lp1124
I2
ag7
(I64
I0
I128
I255
tp1125
Rp1126
aV6
p1127
ag7
(I0
I0
I0
I255
tp1128
Rp1129
aV32
p1130
aasI7
(lp1131
I-1
aNasI8
(lp1132
I12
a(lp1133
I8
ag7
(I120
I0
I0
I255
tp1134
Rp1135
aV1
p1136
ag7
(I0
I0
I0
I255
tp1137
Rp1138
aV8
p1139
ag7
(I120
I0
I0
I255
tp1140
Rp1141
aV1
p1142
ag7
(I0
I0
I0
I255
tp1143
Rp1144
aV8
p1145
ag7
(I120
I0
I0
I255
tp1146
Rp1147
aV1
p1148
ag7
(I0
I0
I0
I255
tp1149
Rp1150
aV8
p1151
ag7
(I64
I0
I128
I255
tp1152
Rp1153
aV1
p1154
ag7
(I0
I0
I0
I255
tp1155
Rp1156
aV24
p1157
aasI9
(lp1158
I8
a(lp1159
I2
ag7
(I120
I0
I0
I255
tp1160
Rp1161
aV1
p1162
ag7
(I0
I0
I0
I255
tp1163
Rp1164
aV8
p1165
aasI10
(lp1166
I8
a(lp1167
I2
ag7
(I120
I0
I0
I255
tp1168
Rp1169
aV1
p1170
ag7
(I0
I0
I0
I255
tp1171
Rp1172
aV8
p1173
aasI11
(lp1174
I12
a(lp1175
I8
ag7
(I120
I0
I0
I255
tp1176
Rp1177
aV1
p1178
ag7
(I0
I0
I0
I255
tp1179
Rp1180
aV8
p1181
ag7
(I120
I0
I0
I255
tp1182
Rp1183
aV1
p1184
ag7
(I0
I0
I0
I255
tp1185
Rp1186
aV8
p1187
ag7
(I120
I0
I0
I255
tp1188
Rp1189
aV1
p1190
ag7
(I0
I0
I0
I255
tp1191
Rp1192
aV8
p1193
ag7
(I64
I0
I128
I255
tp1194
Rp1195
aV4
p1196
ag7
(I0
I0
I0
I255
tp1197
Rp1198
aV8
p1199
aassg21
V00:22 000ms
p1200
sba(ieffectgroup
EffectGroup
p1201
(dp1202
g3
(dp1203
I0
(lp1204
I-1
aNasI1
(lp1205
I-1
aNasI2
(lp1206
I-1
aNasI3
(lp1207
I-1
aNasI4
(lp1208
I10
a(lp1209
I4
ag7
(I120
I0
I0
I255
tp1210
Rp1211
aV3
p1212
ag7
(I0
I0
I0
I255
tp1213
Rp1214
aV8
p1215
ag7
(I128
I30
I0
I255
tp1216
Rp1217
aV3
p1218
ag7
(I0
I0
I0
I255
tp1219
Rp1220
aV24
p1221
aasI5
(lp1222
I-1
a(lp1223
asI6
(lp1224
I-1
aNasI7
(lp1225
I10
a(lp1226
I4
ag7
(I120
I0
I0
I255
tp1227
Rp1228
aV3
p1229
ag7
(I0
I0
I0
I255
tp1230
Rp1231
aV8
p1232
ag7
(I64
I0
I128
I255
tp1233
Rp1234
aV3
p1235
ag7
(I0
I0
I0
I255
tp1236
Rp1237
aV24
p1238
aasI8
(lp1239
I-1
aNasI9
(lp1240
I-1
aNasI10
(lp1241
I-1
aNasI11
(lp1242
I-1
aNassg21
V00:23 000ms
p1243
sba(ieffectgroup
EffectGroup
p1244
(dp1245
g3
(dp1246
I0
(lp1247
I1
a(lp1248
g7
(I0
I0
I0
I255
tp1249
Rp1250
aasI1
(lp1251
I-1
aNasI2
(lp1252
I-1
aNasI3
(lp1253
I-1
aNasI4
(lp1254
I-1
aNasI5
(lp1255
I-1
aNasI6
(lp1256
I-1
aNasI7
(lp1257
I-1
aNasI8
(lp1258
I-1
aNasI9
(lp1259
I-1
aNasI10
(lp1260
I-1
aNasI11
(lp1261
I-1
aNassg21
V00:24 000ms
p1262
sba.