(lp0
(ieffectgroup
EffectGroup
p1
(dp2
S'm_effects'
p3
(dp4
I0
(lp5
I-1
aNasI1
(lp6
I-1
aNasI2
(lp7
I-1
aNasI3
(lp8
I-1
aNasI4
(lp9
I-1
aNasI5
(lp10
I1
a(lp11
cwx._gdi
Colour
p12
(I200
I0
I0
I255
tp13
Rp14
aasI6
(lp15
I-1
aNasI7
(lp16
I-1
aNasI8
(lp17
I-1
aNasI9
(lp18
I-1
aNassS'm_time'
p19
V00:01 000ms
p20
sba(ieffectgroup
EffectGroup
p21
(dp22
g3
(dp23
I0
(lp24
I-1
aNasI1
(lp25
I-1
aNasI2
(lp26
I-1
aNasI3
(lp27
I-1
aNasI4
(lp28
I-1
aNasI5
(lp29
I1
a(lp30
g12
(I0
I200
I0
I255
tp31
Rp32
aasI6
(lp33
I-1
aNasI7
(lp34
I-1
aNasI8
(lp35
I-1
aNasI9
(lp36
I-1
aNassg19
V00:02 000ms
p37
sba(ieffectgroup
EffectGroup
p38
(dp39
g3
(dp40
I0
(lp41
I-1
aNasI1
(lp42
I-1
aNasI2
(lp43
I-1
aNasI3
(lp44
I-1
aNasI4
(lp45
I-1
aNasI5
(lp46
I1
a(lp47
g12
(I0
I0
I200
I255
tp48
Rp49
aasI6
(lp50
I-1
aNasI7
(lp51
I-1
aNasI8
(lp52
I-1
aNasI9
(lp53
I-1
aNassg19
V00:03 000ms
p54
sba(ieffectgroup
EffectGroup
p55
(dp56
g3
(dp57
I0
(lp58
I-1
aNasI1
(lp59
I-1
aNasI2
(lp60
I-1
aNasI3
(lp61
I-1
aNasI4
(lp62
I-1
aNasI5
(lp63
I1
a(lp64
g12
(I200
I200
I200
I255
tp65
Rp66
aasI6
(lp67
I-1
aNasI7
(lp68
I-1
aNasI8
(lp69
I-1
aNasI9
(lp70
I-1
aNassg19
V00:04 000ms
p71
sba(ieffectgroup
EffectGroup
p72
(dp73
g3
(dp74
I0
(lp75
I-1
a(lp76
asI1
(lp77
I-1
aNasI2
(lp78
I-1
aNasI3
(lp79
I-1
aNasI4
(lp80
I-1
aNasI5
(lp81
I1
a(lp82
g12
(I0
I0
I0
I255
tp83
Rp84
aasI6
(lp85
I-1
aNasI7
(lp86
I-1
aNasI8
(lp87
I-1
aNasI9
(lp88
I-1
aNassg19
V00:05 000ms
p89
sba(ieffectgroup
EffectGroup
p90
(dp91
g3
(dp92
I0
(lp93
I-1
aNasI1
(lp94
I-1
aNasI2
(lp95
I-1
aNasI3
(lp96
I-1
aNasI4
(lp97
I-1
aNasI5
(lp98
I1
a(lp99
g12
(I100
I100
I0
I255
tp100
Rp101
aasI6
(lp102
I-1
aNasI7
(lp103
I-1
aNasI8
(lp104
I-1
aNasI9
(lp105
I-1
aNassg19
V00:06 000ms
p106
sba(ieffectgroup
EffectGroup
p107
(dp108
g3
(dp109
I0
(lp110
I-1
aNasI1
(lp111
I-1
aNasI2
(lp112
I-1
aNasI3
(lp113
I-1
aNasI4
(lp114
I-1
aNasI5
(lp115
I1
a(lp116
g12
(I0
I100
I100
I255
tp117
Rp118
aasI6
(lp119
I-1
aNasI7
(lp120
I-1
aNasI8
(lp121
I-1
aNasI9
(lp122
I-1
aNassg19
V00:07 000ms
p123
sba(ieffectgroup
EffectGroup
p124
(dp125
g3
(dp126
I0
(lp127
I-1
aNasI1
(lp128
I-1
aNasI2
(lp129
I-1
aNasI3
(lp130
I-1
aNasI4
(lp131
I-1
aNasI5
(lp132
I1
a(lp133
g12
(I100
I0
I100
I255
tp134
Rp135
aasI6
(lp136
I-1
aNasI7
(lp137
I-1
aNasI8
(lp138
I-1
aNasI9
(lp139
I-1
aNassg19
V00:08 000ms
p140
sba(ieffectgroup
EffectGroup
p141
(dp142
g3
(dp143
I0
(lp144
I-1
aNasI1
(lp145
I-1
aNasI2
(lp146
I-1
aNasI3
(lp147
I-1
aNasI4
(lp148
I-1
aNasI5
(lp149
I3
a(lp150
g12
(I255
I0
I0
I255
tp151
Rp152
aV1
p153
aV4
p154
aasI6
(lp155
I-1
a(lp156
asI7
(lp157
I-1
aNasI8
(lp158
I-1
aNasI9
(lp159
I-1
aNassg19
V00:09 000ms
p160
sba(ieffectgroup
EffectGroup
p161
(dp162
g3
(dp163
I0
(lp164
I-1
aNasI1
(lp165
I-1
aNasI2
(lp166
I-1
aNasI3
(lp167
I-1
aNasI4
(lp168
I-1
aNasI5
(lp169
I8
a(lp170
I2
ag12
(I255
I0
I0
I255
tp171
Rp172
aV1
p173
ag12
(I0
I0
I0
I255
tp174
Rp175
aV4
p176
aasI6
(lp177
I-1
aNasI7
(lp178
I-1
aNasI8
(lp179
I-1
aNasI9
(lp180
I-1
aNassg19
V00:10 000ms
p181
sba(ieffectgroup
EffectGroup
p182
(dp183
g3
(dp184
I0
(lp185
I-1
aNasI1
(lp186
I-1
aNasI2
(lp187
I-1
aNasI3
(lp188
I-1
aNasI4
(lp189
I-1
aNasI5
(lp190
I10
a(lp191
I4
ag12
(I255
I0
I0
I255
tp192
Rp193
aV1
p194
ag12
(I0
I0
I0
I255
tp195
Rp196
aV4
p197
ag12
(I0
I255
I0
I255
tp198
Rp199
aV1
p200
ag12
(I0
I0
I0
I255
tp201
Rp202
aV4
p203
aasI6
(lp204
I-1
aNasI7
(lp205
I-1
aNasI8
(lp206
I-1
aNasI9
(lp207
I-1
aNassg19
V00:11 000ms
p208
sba(ieffectgroup
EffectGroup
p209
(dp210
g3
(dp211
I0
(lp212
I-1
aNasI1
(lp213
I-1
aNasI2
(lp214
I-1
aNasI3
(lp215
I-1
aNasI4
(lp216
I-1
aNasI5
(lp217
I5
a(lp218
g12
(I255
I0
I0
I255
tp219
Rp220
ag12
(I0
I0
I255
I255
tp221
Rp222
aV100
p223
aV1
p224
aV8
p225
aasI6
(lp226
I-1
a(lp227
asI7
(lp228
I-1
aNasI8
(lp229
I-1
aNasI9
(lp230
I-1
aNassg19
V00:12 000ms
p231
sba(ieffectgroup
EffectGroup
p232
(dp233
g3
(dp234
I0
(lp235
I-1
aNasI1
(lp236
I-1
aNasI2
(lp237
I-1
aNasI3
(lp238
I-1
aNasI4
(lp239
I-1
aNasI5
(lp240
I-1
aNasI6
(lp241
I-1
aNasI7
(lp242
I-1
aNasI8
(lp243
I-1
aNasI9
(lp244
I-1
aNassg19
V00:13 000ms
p245
sba(ieffectgroup
EffectGroup
p246
(dp247
g3
(dp248
I0
(lp249
I-1
aNasI1
(lp250
I-1
aNasI2
(lp251
I-1
aNasI3
(lp252
I-1
aNasI4
(lp253
I-1
aNasI5
(lp254
I-1
aNasI6
(lp255
I-1
aNasI7
(lp256
I-1
aNasI8
(lp257
I-1
aNasI9
(lp258
I-1
aNassg19
V00:14 000ms
p259
sba(ieffectgroup
EffectGroup
p260
(dp261
g3
(dp262
I0
(lp263
I-1
aNasI1
(lp264
I-1
aNasI2
(lp265
I-1
aNasI3
(lp266
I-1
aNasI4
(lp267
I-1
aNasI5
(lp268
I-1
aNasI6
(lp269
I-1
aNasI7
(lp270
I-1
aNasI8
(lp271
I-1
aNasI9
(lp272
I-1
aNassg19
V00:15 000ms
p273
sba.