(lp0
(ieffectgroup
EffectGroup
p1
(dp2
S'm_effects'
p3
(dp4
I0
(lp5
I11
a(lp6
I6
acwx._gdi
Colour
p7
(I0
I0
I100
I255
tp8
Rp9
aV1
p10
ag7
(I0
I0
I0
I255
tp11
Rp12
aV12
p13
ag7
(I0
I0
I100
I255
tp14
Rp15
aV1
p16
ag7
(I0
I0
I0
I255
tp17
Rp18
aV12
p19
ag7
(I100
I50
I0
I255
tp20
Rp21
aV1
p22
ag7
(I0
I0
I0
I255
tp23
Rp24
aV12
p25
aasI1
(lp26
I11
a(lp27
I6
ag7
(I0
I0
I100
I255
tp28
Rp29
aV8
p30
ag7
(I0
I0
I0
I255
tp31
Rp32
aV16
p33
ag7
(I0
I0
I100
I255
tp34
Rp35
aV2
p36
ag7
(I0
I0
I0
I255
tp37
Rp38
aV16
p39
ag7
(I0
I0
I100
I255
tp40
Rp41
aV2
p42
ag7
(I0
I0
I0
I255
tp43
Rp44
aV32
p45
aasI2
(lp46
I11
a(lp47
I6
ag7
(I0
I0
I100
I255
tp48
Rp49
aV8
p50
ag7
(I0
I0
I0
I255
tp51
Rp52
aV16
p53
ag7
(I0
I0
I100
I255
tp54
Rp55
aV2
p56
ag7
(I0
I0
I0
I255
tp57
Rp58
aV16
p59
ag7
(I0
I0
I100
I255
tp60
Rp61
aV2
p62
ag7
(I0
I0
I0
I255
tp63
Rp64
aV32
p65
aasI3
(lp66
I11
a(lp67
I6
ag7
(I0
I0
I100
I255
tp68
Rp69
aV2
p70
ag7
(I2
I1
I0
I255
tp71
Rp72
aV16
p73
ag7
(I0
I0
I100
I255
tp74
Rp75
aV2
p76
ag7
(I2
I1
I0
I255
tp77
Rp78
aV16
p79
ag7
(I0
I0
I100
I255
tp80
Rp81
aV2
p82
ag7
(I2
I1
I0
I255
tp83
Rp84
aV32
p85
aasI4
(lp86
I-1
a(lp87
asI5
(lp88
I-1
aNasI6
(lp89
I11
a(lp90
I6
ag7
(I0
I0
I100
I255
tp91
Rp92
aV2
p93
ag7
(I2
I1
I0
I255
tp94
Rp95
aV16
p96
ag7
(I0
I0
I100
I255
tp97
Rp98
aV2
p99
ag7
(I2
I1
I0
I255
tp100
Rp101
aV16
p102
ag7
(I0
I0
I100
I255
tp103
Rp104
aV2
p105
ag7
(I2
I1
I0
I255
tp106
Rp107
aV32
p108
aasI7
(lp109
I11
a(lp110
I6
ag7
(I0
I0
I100
I255
tp111
Rp112
aV8
p113
ag7
(I0
I0
I0
I255
tp114
Rp115
aV16
p116
ag7
(I0
I0
I100
I255
tp117
Rp118
aV2
p119
ag7
(I0
I0
I0
I255
tp120
Rp121
aV16
p122
ag7
(I0
I0
I100
I255
tp123
Rp124
aV2
p125
ag7
(I0
I0
I0
I255
tp126
Rp127
aV32
p128
aasI8
(lp129
I11
a(lp130
I6
ag7
(I0
I0
I100
I255
tp131
Rp132
aV8
p133
ag7
(I0
I0
I0
I255
tp134
Rp135
aV16
p136
ag7
(I0
I0
I100
I255
tp137
Rp138
aV2
p139
ag7
(I0
I0
I0
I255
tp140
Rp141
aV16
p142
ag7
(I0
I0
I100
I255
tp143
Rp144
aV2
p145
ag7
(I0
I0
I0
I255
tp146
Rp147
aV32
p148
aasI9
(lp149
I11
a(lp150
I6
ag7
(I0
I0
I100
I255
tp151
Rp152
aV1
p153
ag7
(I0
I0
I0
I255
tp154
Rp155
aV12
p156
ag7
(I0
I0
I100
I255
tp157
Rp158
aV1
p159
ag7
(I0
I0
I0
I255
tp160
Rp161
aV12
p162
ag7
(I100
I50
I0
I255
tp163
Rp164
aV1
p165
ag7
(I0
I0
I0
I255
tp166
Rp167
aV12
p168
aassS'm_time'
p169
V00:01 000ms
p170
sba(ieffectgroup
EffectGroup
p171
(dp172
g3
(dp173
I0
(lp174
I11
a(lp175
I6
ag7
(I0
I0
I100
I255
tp176
Rp177
aV1
p178
ag7
(I0
I0
I0
I255
tp179
Rp180
aV12
p181
ag7
(I0
I0
I100
I255
tp182
Rp183
aV1
p184
ag7
(I0
I0
I0
I255
tp185
Rp186
aV12
p187
ag7
(I50
I0
I100
I255
tp188
Rp189
aV1
p190
ag7
(I0
I0
I0
I255
tp191
Rp192
aV12
p193
aasI1
(lp194
I11
a(lp195
I6
ag7
(I0
I0
I100
I255
tp196
Rp197
aV2
p198
ag7
(I0
I0
I0
I255
tp199
Rp200
aV16
p201
ag7
(I0
I0
I100
I255
tp202
Rp203
aV2
p204
ag7
(I0
I0
I0
I255
tp205
Rp206
aV16
p207
ag7
(I0
I0
I100
I255
tp208
Rp209
aV2
p210
ag7
(I0
I0
I0
I255
tp211
Rp212
aV32
p213
aasI2
(lp214
I11
a(lp215
I6
ag7
(I0
I0
I100
I255
tp216
Rp217
aV2
p218
ag7
(I0
I0
I0
I255
tp219
Rp220
aV16
p221
ag7
(I0
I0
I100
I255
tp222
Rp223
aV2
p224
ag7
(I0
I0
I0
I255
tp225
Rp226
aV16
p227
ag7
(I0
I0
I100
I255
tp228
Rp229
aV2
p230
ag7
(I0
I0
I0
I255
tp231
Rp232
aV32
p233
aasI3
(lp234
I11
a(lp235
I6
ag7
(I0
I0
I100
I255
tp236
Rp237
aV1
p238
ag7
(I1
I0
I2
I255
tp239
Rp240
aV12
p241
ag7
(I0
I0
I100
I255
tp242
Rp243
aV1
p244
ag7
(I1
I0
I2
I255
tp245
Rp246
aV12
p247
ag7
(I50
I0
I100
I255
tp248
Rp249
aV1
p250
ag7
(I1
I0
I2
I255
tp251
Rp252
aV12
p253
aasI4
(lp254
I-1
aNasI5
(lp255
I-1
aNasI6
(lp256
I11
a(lp257
I6
ag7
(I0
I0
I100
I255
tp258
Rp259
aV1
p260
ag7
(I1
I0
I2
I255
tp261
Rp262
aV12
p263
ag7
(I0
I0
I100
I255
tp264
Rp265
aV1
p266
ag7
(I1
I0
I2
I255
tp267
Rp268
aV12
p269
ag7
(I50
I0
I100
I255
tp270
Rp271
aV1
p272
ag7
(I1
I0
I2
I255
tp273
Rp274
aV12
p275
aasI7
(lp276
I11
a(lp277
I6
ag7
(I0
I0
I100
I255
tp278
Rp279
aV2
p280
ag7
(I0
I0
I0
I255
tp281
Rp282
aV16
p283
ag7
(I0
I0
I100
I255
tp284
Rp285
aV2
p286
ag7
(I0
I0
I0
I255
tp287
Rp288
aV16
p289
ag7
(I0
I0
I100
I255
tp290
Rp291
aV2
p292
ag7
(I0
I0
I0
I255
tp293
Rp294
aV32
p295
aasI8
(lp296
I11
a(lp297
I6
ag7
(I0
I0
I100
I255
tp298
Rp299
aV2
p300
ag7
(I0
I0
I0
I255
tp301
Rp302
aV16
p303
ag7
(I0
I0
I100
I255
tp304
Rp305
aV2
p306
ag7
(I0
I0
I0
I255
tp307
Rp308
aV16
p309
ag7
(I0
I0
I100
I255
tp310
Rp311
aV2
p312
ag7
(I0
I0
I0
I255
tp313
Rp314
aV32
p315
aasI9
(lp316
I11
a(lp317
I6
ag7
(I0
I0
I100
I255
tp318
Rp319
aV1
p320
ag7
(I0
I0
I0
I255
tp321
Rp322
aV12
p323
ag7
(I0
I0
I100
I255
tp324
Rp325
aV1
p326
ag7
(I0
I0
I0
I255
tp327
Rp328
aV12
p329
ag7
(I50
I0
I100
I255
tp330
Rp331
aV1
p332
ag7
(I0
I0
I0
I255
tp333
Rp334
aV12
p335
aassg169
V00:02 000ms
p336
sba(ieffectgroup
EffectGroup
p337
(dp338
g3
(dp339
I0
(lp340
I8
a(lp341
I2
ag7
(I255
I255
I255
I255
tp342
Rp343
aV1
p344
ag7
(I0
I0
I0
I255
tp345
Rp346
aV4
p347
aasI1
(lp348
I8
a(lp349
I2
ag7
(I255
I255
I255
I255
tp350
Rp351
aV1
p352
ag7
(I0
I0
I0
I255
tp353
Rp354
aV4
p355
aasI2
(lp356
I8
a(lp357
I2
ag7
(I255
I255
I255
I255
tp358
Rp359
aV1
p360
ag7
(I0
I0
I0
I255
tp361
Rp362
aV4
p363
aasI3
(lp364
I8
a(lp365
I2
ag7
(I255
I255
I255
I255
tp366
Rp367
aV1
p368
ag7
(I0
I0
I0
I255
tp369
Rp370
aV4
p371
aasI4
(lp372
I8
a(lp373
I2
ag7
(I255
I255
I255
I255
tp374
Rp375
aV1
p376
ag7
(I0
I0
I0
I255
tp377
Rp378
aV4
p379
aasI5
(lp380
I8
a(lp381
I2
ag7
(I0
I0
I0
I255
tp382
Rp383
aV1
p384
ag7
(I0
I0
I0
I255
tp385
Rp386
aV1
p387
aasI6
(lp388
I8
a(lp389
I2
ag7
(I0
I0
I0
I255
tp390
Rp391
aV1
p392
ag7
(I0
I0
I0
I255
tp393
Rp394
aV1
p395
aasI7
(lp396
I8
a(lp397
I2
ag7
(I0
I0
I0
I255
tp398
Rp399
aV1
p400
ag7
(I0
I0
I0
I255
tp401
Rp402
aV1
p403
aasI8
(lp404
I8
a(lp405
I2
ag7
(I0
I0
I0
I255
tp406
Rp407
aV1
p408
ag7
(I0
I0
I0
I255
tp409
Rp410
aV1
p411
aasI9
(lp412
I8
a(lp413
I2
ag7
(I0
I0
I0
I255
tp414
Rp415
aV1
p416
ag7
(I0
I0
I0
I255
tp417
Rp418
aV1
p419
aassg169
V00:03 000ms
p420
sba(ieffectgroup
EffectGroup
p421
(dp422
g3
(dp423
I0
(lp424
I-1
aNasI1
(lp425
I-1
aNasI2
(lp426
I-1
aNasI3
(lp427
I-1
aNasI4
(lp428
I-1
aNasI5
(lp429
I-1
aNasI6
(lp430
I-1
aNasI7
(lp431
I-1
aNasI8
(lp432
I-1
aNasI9
(lp433
I-1
aNassg169
V00:04 000ms
p434
sba(ieffectgroup
EffectGroup
p435
(dp436
g3
(dp437
I0
(lp438
I-1
aNasI1
(lp439
I-1
aNasI2
(lp440
I-1
aNasI3
(lp441
I-1
aNasI4
(lp442
I-1
aNasI5
(lp443
I-1
aNasI6
(lp444
I-1
aNasI7
(lp445
I-1
aNasI8
(lp446
I-1
aNasI9
(lp447
I-1
aNassg169
V00:05 000ms
p448
sba(ieffectgroup
EffectGroup
p449
(dp450
g3
(dp451
I0
(lp452
I-1
aNasI1
(lp453
I-1
aNasI2
(lp454
I-1
aNasI3
(lp455
I-1
aNasI4
(lp456
I-1
aNasI5
(lp457
I-1
aNasI6
(lp458
I-1
aNasI7
(lp459
I-1
aNasI8
(lp460
I-1
aNasI9
(lp461
I-1
aNassg169
V00:06 000ms
p462
sba(ieffectgroup
EffectGroup
p463
(dp464
g3
(dp465
I0
(lp466
I-1
aNasI1
(lp467
I-1
aNasI2
(lp468
I-1
aNasI3
(lp469
I-1
aNasI4
(lp470
I-1
aNasI5
(lp471
I-1
aNasI6
(lp472
I-1
aNasI7
(lp473
I-1
aNasI8
(lp474
I-1
aNasI9
(lp475
I-1
aNassg169
V00:07 000ms
p476
sba(ieffectgroup
EffectGroup
p477
(dp478
g3
(dp479
I0
(lp480
I-1
aNasI1
(lp481
I-1
aNasI2
(lp482
I-1
aNasI3
(lp483
I-1
aNasI4
(lp484
I-1
aNasI5
(lp485
I-1
aNasI6
(lp486
I-1
aNasI7
(lp487
I-1
aNasI8
(lp488
I-1
aNasI9
(lp489
I-1
aNassg169
V00:08 000ms
p490
sba(ieffectgroup
EffectGroup
p491
(dp492
g3
(dp493
I0
(lp494
I-1
aNasI1
(lp495
I-1
aNasI2
(lp496
I-1
aNasI3
(lp497
I-1
aNasI4
(lp498
I-1
aNasI5
(lp499
I-1
aNasI6
(lp500
I-1
aNasI7
(lp501
I-1
aNasI8
(lp502
I-1
aNasI9
(lp503
I-1
aNassg169
V00:09 000ms
p504
sba(ieffectgroup
EffectGroup
p505
(dp506
g3
(dp507
I0
(lp508
I-1
aNasI1
(lp509
I-1
aNasI2
(lp510
I-1
aNasI3
(lp511
I-1
aNasI4
(lp512
I-1
aNasI5
(lp513
I-1
aNasI6
(lp514
I-1
aNasI7
(lp515
I-1
aNasI8
(lp516
I-1
aNasI9
(lp517
I-1
aNassg169
V00:10 000ms
p518
sba(ieffectgroup
EffectGroup
p519
(dp520
g3
(dp521
I0
(lp522
I-1
aNasI1
(lp523
I-1
aNasI2
(lp524
I-1
aNasI3
(lp525
I-1
aNasI4
(lp526
I-1
aNasI5
(lp527
I-1
aNasI6
(lp528
I-1
aNasI7
(lp529
I-1
aNasI8
(lp530
I-1
aNasI9
(lp531
I-1
aNassg169
V00:11 000ms
p532
sba(ieffectgroup
EffectGroup
p533
(dp534
g3
(dp535
I0
(lp536
I-1
aNasI1
(lp537
I-1
aNasI2
(lp538
I-1
aNasI3
(lp539
I-1
aNasI4
(lp540
I-1
aNasI5
(lp541
I-1
aNasI6
(lp542
I-1
aNasI7
(lp543
I-1
aNasI8
(lp544
I-1
aNasI9
(lp545
I-1
aNassg169
V00:12 000ms
p546
sba(ieffectgroup
EffectGroup
p547
(dp548
g3
(dp549
I0
(lp550
I-1
aNasI1
(lp551
I-1
aNasI2
(lp552
I-1
aNasI3
(lp553
I-1
aNasI4
(lp554
I-1
aNasI5
(lp555
I-1
aNasI6
(lp556
I-1
aNasI7
(lp557
I-1
aNasI8
(lp558
I-1
aNasI9
(lp559
I-1
aNassg169
V00:13 000ms
p560
sba(ieffectgroup
EffectGroup
p561
(dp562
g3
(dp563
I0
(lp564
I-1
aNasI1
(lp565
I-1
aNasI2
(lp566
I-1
aNasI3
(lp567
I-1
aNasI4
(lp568
I-1
aNasI5
(lp569
I-1
aNasI6
(lp570
I-1
aNasI7
(lp571
I-1
aNasI8
(lp572
I-1
aNasI9
(lp573
I-1
aNassg169
V00:14 000ms
p574
sba(ieffectgroup
EffectGroup
p575
(dp576
g3
(dp577
I0
(lp578
I-1
aNasI1
(lp579
I-1
aNasI2
(lp580
I-1
aNasI3
(lp581
I-1
aNasI4
(lp582
I-1
aNasI5
(lp583
I-1
aNasI6
(lp584
I-1
aNasI7
(lp585
I-1
aNasI8
(lp586
I-1
aNasI9
(lp587
I-1
aNassg169
V00:15 000ms
p588
sba(ieffectgroup
EffectGroup
p589
(dp590
g3
(dp591
I0
(lp592
I-1
aNasI1
(lp593
I-1
aNasI2
(lp594
I-1
aNasI3
(lp595
I-1
aNasI4
(lp596
I-1
aNasI5
(lp597
I-1
aNasI6
(lp598
I-1
aNasI7
(lp599
I-1
aNasI8
(lp600
I-1
aNasI9
(lp601
I-1
aNassg169
V00:16 000ms
p602
sba(ieffectgroup
EffectGroup
p603
(dp604
g3
(dp605
I0
(lp606
I-1
aNasI1
(lp607
I-1
aNasI2
(lp608
I-1
aNasI3
(lp609
I-1
aNasI4
(lp610
I-1
aNasI5
(lp611
I-1
aNasI6
(lp612
I-1
aNasI7
(lp613
I-1
aNasI8
(lp614
I-1
aNasI9
(lp615
I-1
aNassg169
V00:17 000ms
p616
sba(ieffectgroup
EffectGroup
p617
(dp618
g3
(dp619
I0
(lp620
I-1
aNasI1
(lp621
I-1
aNasI2
(lp622
I-1
aNasI3
(lp623
I-1
aNasI4
(lp624
I-1
aNasI5
(lp625
I-1
aNasI6
(lp626
I-1
aNasI7
(lp627
I-1
aNasI8
(lp628
I-1
aNasI9
(lp629
I-1
aNassg169
V00:18 000ms
p630
sba(ieffectgroup
EffectGroup
p631
(dp632
g3
(dp633
I0
(lp634
I-1
aNasI1
(lp635
I-1
aNasI2
(lp636
I-1
aNasI3
(lp637
I-1
aNasI4
(lp638
I-1
aNasI5
(lp639
I-1
aNasI6
(lp640
I-1
aNasI7
(lp641
I-1
aNasI8
(lp642
I-1
aNasI9
(lp643
I-1
aNassg169
V00:19 000ms
p644
sba(ieffectgroup
EffectGroup
p645
(dp646
g3
(dp647
I0
(lp648
I-1
aNasI1
(lp649
I-1
aNasI2
(lp650
I-1
aNasI3
(lp651
I-1
aNasI4
(lp652
I-1
aNasI5
(lp653
I-1
aNasI6
(lp654
I-1
aNasI7
(lp655
I-1
aNasI8
(lp656
I-1
aNasI9
(lp657
I-1
aNassg169
V00:20 000ms
p658
sba(ieffectgroup
EffectGroup
p659
(dp660
g3
(dp661
I0
(lp662
I-1
aNasI1
(lp663
I-1
aNasI2
(lp664
I-1
aNasI3
(lp665
I-1
aNasI4
(lp666
I-1
aNasI5
(lp667
I-1
aNasI6
(lp668
I-1
aNasI7
(lp669
I-1
aNasI8
(lp670
I-1
aNasI9
(lp671
I-1
aNassg169
V00:21 000ms
p672
sba(ieffectgroup
EffectGroup
p673
(dp674
g3
(dp675
I0
(lp676
I-1
aNasI1
(lp677
I-1
aNasI2
(lp678
I-1
aNasI3
(lp679
I-1
aNasI4
(lp680
I-1
aNasI5
(lp681
I-1
aNasI6
(lp682
I-1
aNasI7
(lp683
I-1
aNasI8
(lp684
I-1
aNasI9
(lp685
I-1
aNassg169
V00:22 000ms
p686
sba(ieffectgroup
EffectGroup
p687
(dp688
g3
(dp689
I0
(lp690
I-1
aNasI1
(lp691
I-1
aNasI2
(lp692
I-1
aNasI3
(lp693
I-1
aNasI4
(lp694
I-1
aNasI5
(lp695
I-1
aNasI6
(lp696
I-1
aNasI7
(lp697
I-1
aNasI8
(lp698
I-1
aNasI9
(lp699
I-1
aNassg169
V00:23 000ms
p700
sba(ieffectgroup
EffectGroup
p701
(dp702
g3
(dp703
I0
(lp704
I-1
aNasI1
(lp705
I-1
aNasI2
(lp706
I-1
aNasI3
(lp707
I-1
aNasI4
(lp708
I-1
aNasI5
(lp709
I-1
aNasI6
(lp710
I-1
aNasI7
(lp711
I-1
aNasI8
(lp712
I-1
aNasI9
(lp713
I-1
aNassg169
V00:24 000ms
p714
sba(ieffectgroup
EffectGroup
p715
(dp716
g3
(dp717
I0
(lp718
I-1
aNasI1
(lp719
I-1
aNasI2
(lp720
I-1
aNasI3
(lp721
I-1
aNasI4
(lp722
I-1
aNasI5
(lp723
I-1
aNasI6
(lp724
I-1
aNasI7
(lp725
I-1
aNasI8
(lp726
I-1
aNasI9
(lp727
I-1
aNassg169
V00:25 000ms
p728
sba.