(lp0
(ieffectgroup
EffectGroup
p1
(dp2
S'm_effects'
p3
(dp4
I0
(lp5
I8
a(lp6
I2
acwx._gdi
Colour
p7
(I255
I0
I0
I255
tp8
Rp9
aV4
p10
ag7
(I0
I0
I0
I255
tp11
Rp12
aV20
p13
aasI1
(lp14
I8
a(lp15
I2
ag7
(I255
I15
I0
I255
tp16
Rp17
aV4
p18
ag7
(I0
I0
I0
I255
tp19
Rp20
aV20
p21
aasI2
(lp22
I8
a(lp23
I2
ag7
(I255
I40
I0
I255
tp24
Rp25
aV4
p26
ag7
(I0
I0
I0
I255
tp27
Rp28
aV20
p29
aasI3
(lp30
I8
a(lp31
I2
ag7
(I255
I60
I0
I255
tp32
Rp33
aV4
p34
ag7
(I0
I0
I0
I255
tp35
Rp36
aV20
p37
aasI4
(lp38
I10
a(lp39
I4
ag7
(I255
I0
I0
I255
tp40
Rp41
aV1
p42
ag7
(I0
I0
I0
I255
tp43
Rp44
aV20
p45
ag7
(I255
I0
I0
I255
tp46
Rp47
aV20
p48
ag7
(I0
I0
I0
I255
tp49
Rp50
aV20
p51
aasI5
(lp52
I-1
a(lp53
asI6
(lp54
I10
a(lp55
I4
ag7
(I0
I0
I0
I255
tp56
Rp57
aV1
p58
ag7
(I0
I0
I120
I255
tp59
Rp60
aV4
p61
ag7
(I0
I0
I0
I255
tp62
Rp63
aV1
p64
ag7
(I60
I0
I120
I255
tp65
Rp66
aV4
p67
aasI7
(lp68
I10
a(lp69
I4
ag7
(I0
I0
I0
I255
tp70
Rp71
aV1
p72
ag7
(I0
I0
I120
I255
tp73
Rp74
aV4
p75
ag7
(I0
I0
I0
I255
tp76
Rp77
aV1
p78
ag7
(I0
I40
I120
I255
tp79
Rp80
aV4
p81
aasI8
(lp82
I10
a(lp83
I4
ag7
(I0
I0
I0
I255
tp84
Rp85
aV1
p86
ag7
(I60
I0
I120
I255
tp87
Rp88
aV4
p89
ag7
(I0
I0
I0
I255
tp90
Rp91
aV1
p92
ag7
(I0
I0
I120
I255
tp93
Rp94
aV4
p95
aasI9
(lp96
I10
a(lp97
I4
ag7
(I0
I0
I0
I255
tp98
Rp99
aV1
p100
ag7
(I0
I0
I120
I255
tp101
Rp102
aV4
p103
ag7
(I0
I0
I0
I255
tp104
Rp105
aV1
p106
ag7
(I0
I40
I120
I255
tp107
Rp108
aV4
p109
aassS'm_time'
p110
V00:00 000ms
p111
sba.