(lp0
(ieffectgroup
EffectGroup
p1
(dp2
S'm_effects'
p3
(dp4
I0
(lp5
I1
a(lp6
cwx._gdi
Colour
p7
(I255
I255
I255
I255
tp8
Rp9
aasI1
(lp10
I-1
aNasI2
(lp11
I-1
aNasI3
(lp12
I-1
aNasI4
(lp13
I-1
aNasI5
(lp14
I-1
aNasI6
(lp15
I-1
aNasI7
(lp16
I-1
aNasI8
(lp17
I-1
aNasI9
(lp18
I-1
aNasI10
(lp19
I-1
aNasI11
(lp20
I-1
aNassS'm_time'
p21
V01:00 100ms
p22
sba(ieffectgroup
EffectGroup
p23
(dp24
g3
(dp25
I0
(lp26
I-1
aNasI1
(lp27
I1
a(lp28
g7
(I255
I255
I255
I255
tp29
Rp30
aasI2
(lp31
I-1
aNasI3
(lp32
I-1
aNasI4
(lp33
I-1
aNasI5
(lp34
I-1
aNasI6
(lp35
I-1
aNasI7
(lp36
I-1
aNasI8
(lp37
I-1
aNasI9
(lp38
I-1
aNasI10
(lp39
I-1
aNasI11
(lp40
I-1
aNassg21
V02:00 100ms
p41
sba(ieffectgroup
EffectGroup
p42
(dp43
g3
(dp44
I0
(lp45
I-1
aNasI1
(lp46
I-1
aNasI2
(lp47
I1
a(lp48
g7
(I255
I255
I255
I255
tp49
Rp50
aasI3
(lp51
I-1
aNasI4
(lp52
I-1
aNasI5
(lp53
I-1
aNasI6
(lp54
I-1
aNasI7
(lp55
I-1
aNasI8
(lp56
I-1
aNasI9
(lp57
I-1
aNasI10
(lp58
I-1
aNasI11
(lp59
I-1
aNassg21
V03:00 100ms
p60
sba(ieffectgroup
EffectGroup
p61
(dp62
g3
(dp63
I0
(lp64
I-1
aNasI1
(lp65
I-1
aNasI2
(lp66
I-1
aNasI3
(lp67
I1
a(lp68
g7
(I255
I255
I255
I255
tp69
Rp70
aasI4
(lp71
I-1
a(lp72
asI5
(lp73
I-1
aNasI6
(lp74
I-1
aNasI7
(lp75
I-1
aNasI8
(lp76
I-1
aNasI9
(lp77
I-1
aNasI10
(lp78
I-1
aNasI11
(lp79
I-1
aNassg21
V04:00 100ms
p80
sba(ieffectgroup
EffectGroup
p81
(dp82
g3
(dp83
I0
(lp84
I-1
aNasI1
(lp85
I-1
aNasI2
(lp86
I-1
aNasI3
(lp87
I-1
a(lp88
asI4
(lp89
I1
a(lp90
g7
(I255
I255
I255
I255
tp91
Rp92
aasI5
(lp93
I-1
a(lp94
asI6
(lp95
I-1
aNasI7
(lp96
I-1
aNasI8
(lp97
I-1
aNasI9
(lp98
I-1
aNasI10
(lp99
I-1
aNasI11
(lp100
I-1
aNassg21
V05:00 100ms
p101
sba(ieffectgroup
EffectGroup
p102
(dp103
g3
(dp104
I0
(lp105
I-1
aNasI1
(lp106
I-1
aNasI2
(lp107
I-1
aNasI3
(lp108
I-1
aNasI4
(lp109
I-1
aNasI5
(lp110
I1
a(lp111
g7
(I255
I255
I255
I255
tp112
Rp113
aasI6
(lp114
I-1
aNasI7
(lp115
I-1
aNasI8
(lp116
I-1
aNasI9
(lp117
I-1
aNasI10
(lp118
I-1
aNasI11
(lp119
I-1
aNassg21
V06:00 100ms
p120
sba(ieffectgroup
EffectGroup
p121
(dp122
g3
(dp123
I0
(lp124
I-1
aNasI1
(lp125
I-1
aNasI2
(lp126
I-1
aNasI3
(lp127
I-1
aNasI4
(lp128
I-1
aNasI5
(lp129
I-1
aNasI6
(lp130
I1
a(lp131
g7
(I255
I255
I255
I255
tp132
Rp133
aasI7
(lp134
I-1
aNasI8
(lp135
I-1
aNasI9
(lp136
I-1
aNasI10
(lp137
I-1
aNasI11
(lp138
I-1
aNassg21
V07:00 100ms
p139
sba(ieffectgroup
EffectGroup
p140
(dp141
g3
(dp142
I0
(lp143
I-1
aNasI1
(lp144
I-1
aNasI2
(lp145
I-1
aNasI3
(lp146
I-1
aNasI4
(lp147
I-1
aNasI5
(lp148
I-1
aNasI6
(lp149
I-1
aNasI7
(lp150
I1
a(lp151
g7
(I255
I255
I255
I255
tp152
Rp153
aasI8
(lp154
I-1
aNasI9
(lp155
I-1
aNasI10
(lp156
I-1
aNasI11
(lp157
I-1
aNassg21
V08:00 100ms
p158
sba(ieffectgroup
EffectGroup
p159
(dp160
g3
(dp161
I0
(lp162
I-1
aNasI1
(lp163
I-1
aNasI2
(lp164
I-1
aNasI3
(lp165
I-1
aNasI4
(lp166
I-1
aNasI5
(lp167
I-1
aNasI6
(lp168
I-1
aNasI7
(lp169
I-1
aNasI8
(lp170
I1
a(lp171
g7
(I255
I255
I255
I255
tp172
Rp173
aasI9
(lp174
I-1
a(lp175
asI10
(lp176
I-1
aNasI11
(lp177
I-1
aNassg21
V09:00 100ms
p178
sba(ieffectgroup
EffectGroup
p179
(dp180
g3
(dp181
I0
(lp182
I-1
aNasI1
(lp183
I-1
aNasI2
(lp184
I-1
aNasI3
(lp185
I-1
aNasI4
(lp186
I-1
aNasI5
(lp187
I-1
aNasI6
(lp188
I-1
aNasI7
(lp189
I-1
aNasI8
(lp190
I-1
aNasI9
(lp191
I1
a(lp192
g7
(I255
I255
I255
I255
tp193
Rp194
aasI10
(lp195
I-1
aNasI11
(lp196
I-1
aNassg21
V10:00 100ms
p197
sba(ieffectgroup
EffectGroup
p198
(dp199
g3
(dp200
I0
(lp201
I-1
aNasI1
(lp202
I-1
aNasI2
(lp203
I-1
aNasI3
(lp204
I-1
aNasI4
(lp205
I-1
aNasI5
(lp206
I-1
aNasI6
(lp207
I-1
aNasI7
(lp208
I-1
aNasI8
(lp209
I-1
aNasI9
(lp210
I-1
aNasI10
(lp211
I1
a(lp212
g7
(I255
I255
I255
I255
tp213
Rp214
aasI11
(lp215
I-1
aNassg21
V11:00 100ms
p216
sba(ieffectgroup
EffectGroup
p217
(dp218
g3
(dp219
I0
(lp220
I-1
aNasI1
(lp221
I-1
aNasI2
(lp222
I-1
aNasI3
(lp223
I-1
aNasI4
(lp224
I-1
aNasI5
(lp225
I-1
aNasI6
(lp226
I-1
aNasI7
(lp227
I-1
aNasI8
(lp228
I-1
aNasI9
(lp229
I-1
aNasI10
(lp230
I-1
aNasI11
(lp231
I1
a(lp232
g7
(I255
I255
I255
I255
tp233
Rp234
aassg21
V12:00 100ms
p235
sba.