(lp0
(ieffectgroup
EffectGroup
p1
(dp2
S'm_effects'
p3
(dp4
I0
(lp5
I-1
aNasI1
(lp6
I-1
aNasI2
(lp7
I-1
aNasI3
(lp8
I-1
aNasI4
(lp9
I-1
aNasI5
(lp10
I1
a(lp11
cwx._gdi
Colour
p12
(I0
I0
I0
I255
tp13
Rp14
aasI6
(lp15
I-1
aNasI7
(lp16
I-1
aNasI8
(lp17
I-1
aNasI9
(lp18
I-1
aNassS'm_time'
p19
V00:01 000ms
p20
sba(ieffectgroup
EffectGroup
p21
(dp22
g3
(dp23
I0
(lp24
I-1
aNasI1
(lp25
I-1
aNasI2
(lp26
I-1
aNasI3
(lp27
I-1
aNasI4
(lp28
I-1
aNasI5
(lp29
I5
a(lp30
g12
(I0
I0
I0
I255
tp31
Rp32
ag12
(I200
I0
I200
I255
tp33
Rp34
aV50
p35
aV1
p36
aV8
p37
aasI6
(lp38
I-1
aNasI7
(lp39
I-1
aNasI8
(lp40
I-1
aNasI9
(lp41
I-1
aNassg19
V00:02 000ms
p42
sba(ieffectgroup
EffectGroup
p43
(dp44
g3
(dp45
I0
(lp46
I-1
aNasI1
(lp47
I-1
aNasI2
(lp48
I-1
aNasI3
(lp49
I-1
aNasI4
(lp50
I-1
aNasI5
(lp51
I-1
aNasI6
(lp52
I-1
aNasI7
(lp53
I-1
aNasI8
(lp54
I-1
aNasI9
(lp55
I-1
aNassg19
V00:03 000ms
p56
sba(ieffectgroup
EffectGroup
p57
(dp58
g3
(dp59
I0
(lp60
I-1
aNasI1
(lp61
I-1
aNasI2
(lp62
I-1
aNasI3
(lp63
I-1
aNasI4
(lp64
I-1
aNasI5
(lp65
I-1
aNasI6
(lp66
I-1
aNasI7
(lp67
I-1
aNasI8
(lp68
I-1
aNasI9
(lp69
I-1
aNassg19
V00:04 000ms
p70
sba(ieffectgroup
EffectGroup
p71
(dp72
g3
(dp73
I0
(lp74
I-1
aNasI1
(lp75
I-1
aNasI2
(lp76
I-1
aNasI3
(lp77
I-1
aNasI4
(lp78
I-1
aNasI5
(lp79
I-1
aNasI6
(lp80
I-1
aNasI7
(lp81
I-1
aNasI8
(lp82
I-1
aNasI9
(lp83
I-1
aNassg19
V00:05 000ms
p84
sba(ieffectgroup
EffectGroup
p85
(dp86
g3
(dp87
I0
(lp88
I-1
aNasI1
(lp89
I-1
aNasI2
(lp90
I-1
aNasI3
(lp91
I-1
aNasI4
(lp92
I-1
aNasI5
(lp93
I-1
aNasI6
(lp94
I-1
aNasI7
(lp95
I-1
aNasI8
(lp96
I-1
aNasI9
(lp97
I-1
aNassg19
V00:06 000ms
p98
sba(ieffectgroup
EffectGroup
p99
(dp100
g3
(dp101
I0
(lp102
I-1
aNasI1
(lp103
I-1
aNasI2
(lp104
I-1
aNasI3
(lp105
I-1
aNasI4
(lp106
I-1
aNasI5
(lp107
I-1
aNasI6
(lp108
I-1
aNasI7
(lp109
I-1
aNasI8
(lp110
I-1
aNasI9
(lp111
I-1
aNassg19
V00:07 000ms
p112
sba(ieffectgroup
EffectGroup
p113
(dp114
g3
(dp115
I0
(lp116
I-1
aNasI1
(lp117
I-1
aNasI2
(lp118
I-1
aNasI3
(lp119
I-1
aNasI4
(lp120
I-1
aNasI5
(lp121
I-1
aNasI6
(lp122
I-1
aNasI7
(lp123
I-1
aNasI8
(lp124
I-1
aNasI9
(lp125
I-1
aNassg19
V00:08 000ms
p126
sba(ieffectgroup
EffectGroup
p127
(dp128
g3
(dp129
I0
(lp130
I-1
aNasI1
(lp131
I-1
aNasI2
(lp132
I-1
aNasI3
(lp133
I-1
aNasI4
(lp134
I-1
aNasI5
(lp135
I-1
aNasI6
(lp136
I-1
aNasI7
(lp137
I-1
aNasI8
(lp138
I-1
aNasI9
(lp139
I-1
aNassg19
V00:09 000ms
p140
sba(ieffectgroup
EffectGroup
p141
(dp142
g3
(dp143
I0
(lp144
I-1
aNasI1
(lp145
I-1
aNasI2
(lp146
I-1
aNasI3
(lp147
I-1
aNasI4
(lp148
I-1
aNasI5
(lp149
I-1
aNasI6
(lp150
I-1
aNasI7
(lp151
I-1
aNasI8
(lp152
I-1
aNasI9
(lp153
I-1
aNassg19
V00:10 000ms
p154
sba(ieffectgroup
EffectGroup
p155
(dp156
g3
(dp157
I0
(lp158
I-1
aNasI1
(lp159
I-1
aNasI2
(lp160
I-1
aNasI3
(lp161
I-1
aNasI4
(lp162
I-1
aNasI5
(lp163
I-1
aNasI6
(lp164
I-1
aNasI7
(lp165
I-1
aNasI8
(lp166
I-1
aNasI9
(lp167
I-1
aNassg19
V00:11 000ms
p168
sba(ieffectgroup
EffectGroup
p169
(dp170
g3
(dp171
I0
(lp172
I-1
aNasI1
(lp173
I-1
aNasI2
(lp174
I-1
aNasI3
(lp175
I-1
aNasI4
(lp176
I-1
aNasI5
(lp177
I-1
aNasI6
(lp178
I-1
aNasI7
(lp179
I-1
aNasI8
(lp180
I-1
aNasI9
(lp181
I-1
aNassg19
V00:12 000ms
p182
sba(ieffectgroup
EffectGroup
p183
(dp184
g3
(dp185
I0
(lp186
I-1
aNasI1
(lp187
I-1
aNasI2
(lp188
I-1
aNasI3
(lp189
I-1
aNasI4
(lp190
I-1
aNasI5
(lp191
I-1
aNasI6
(lp192
I-1
aNasI7
(lp193
I-1
aNasI8
(lp194
I-1
aNasI9
(lp195
I-1
aNassg19
V00:13 000ms
p196
sba(ieffectgroup
EffectGroup
p197
(dp198
g3
(dp199
I0
(lp200
I-1
aNasI1
(lp201
I-1
aNasI2
(lp202
I-1
aNasI3
(lp203
I-1
aNasI4
(lp204
I-1
aNasI5
(lp205
I-1
aNasI6
(lp206
I-1
aNasI7
(lp207
I-1
aNasI8
(lp208
I-1
aNasI9
(lp209
I-1
aNassg19
V00:14 000ms
p210
sba(ieffectgroup
EffectGroup
p211
(dp212
g3
(dp213
I0
(lp214
I-1
aNasI1
(lp215
I-1
aNasI2
(lp216
I-1
aNasI3
(lp217
I-1
aNasI4
(lp218
I-1
aNasI5
(lp219
I-1
aNasI6
(lp220
I-1
aNasI7
(lp221
I-1
aNasI8
(lp222
I-1
aNasI9
(lp223
I-1
aNassg19
V00:15 000ms
p224
sba(ieffectgroup
EffectGroup
p225
(dp226
g3
(dp227
I0
(lp228
I-1
aNasI1
(lp229
I-1
aNasI2
(lp230
I-1
aNasI3
(lp231
I-1
aNasI4
(lp232
I-1
aNasI5
(lp233
I-1
aNasI6
(lp234
I-1
aNasI7
(lp235
I-1
aNasI8
(lp236
I-1
aNasI9
(lp237
I-1
aNassg19
V00:16 000ms
p238
sba(ieffectgroup
EffectGroup
p239
(dp240
g3
(dp241
I0
(lp242
I-1
aNasI1
(lp243
I-1
aNasI2
(lp244
I-1
aNasI3
(lp245
I-1
aNasI4
(lp246
I-1
aNasI5
(lp247
I-1
aNasI6
(lp248
I-1
aNasI7
(lp249
I-1
aNasI8
(lp250
I-1
aNasI9
(lp251
I-1
aNassg19
V00:17 000ms
p252
sba(ieffectgroup
EffectGroup
p253
(dp254
g3
(dp255
I0
(lp256
I-1
aNasI1
(lp257
I-1
aNasI2
(lp258
I-1
aNasI3
(lp259
I-1
aNasI4
(lp260
I-1
aNasI5
(lp261
I-1
aNasI6
(lp262
I-1
aNasI7
(lp263
I-1
aNasI8
(lp264
I-1
aNasI9
(lp265
I-1
aNassg19
V00:18 000ms
p266
sba(ieffectgroup
EffectGroup
p267
(dp268
g3
(dp269
I0
(lp270
I-1
aNasI1
(lp271
I-1
aNasI2
(lp272
I-1
aNasI3
(lp273
I-1
aNasI4
(lp274
I-1
aNasI5
(lp275
I-1
aNasI6
(lp276
I-1
aNasI7
(lp277
I-1
aNasI8
(lp278
I-1
aNasI9
(lp279
I-1
aNassg19
V00:19 000ms
p280
sba(ieffectgroup
EffectGroup
p281
(dp282
g3
(dp283
I0
(lp284
I-1
aNasI1
(lp285
I-1
aNasI2
(lp286
I-1
aNasI3
(lp287
I-1
aNasI4
(lp288
I-1
aNasI5
(lp289
I-1
aNasI6
(lp290
I-1
aNasI7
(lp291
I-1
aNasI8
(lp292
I-1
aNasI9
(lp293
I-1
aNassg19
V00:20 000ms
p294
sba.